
led.elf:     file format elf32-littlearm


Disassembly of section .text:

d0020010 <_start>:
d0020010:	e59f0070 	ldr	r0, [pc, #112]	; d0020088 <run_on_dram+0x8>
d0020014:	e3a01000 	mov	r1, #0
d0020018:	e5801000 	str	r1, [r0]
d002001c:	e59f0068 	ldr	r0, [pc, #104]	; d002008c <run_on_dram+0xc>
d0020020:	e59f1068 	ldr	r1, [pc, #104]	; d0020090 <run_on_dram+0x10>
d0020024:	e5801000 	str	r1, [r0]
d0020028:	e59fd064 	ldr	sp, [pc, #100]	; d0020094 <run_on_dram+0x14>
d002002c:	ee110f10 	mrc	15, 0, r0, cr1, cr0, {0}
d0020030:	e3800a01 	orr	r0, r0, #4096	; 0x1000
d0020034:	ee010f10 	mcr	15, 0, r0, cr1, cr0, {0}
d0020038:	eb000021 	bl	d00200c4 <sdram_asm_init>
d002003c:	e24f0034 	sub	r0, pc, #52	; 0x34
d0020040:	e59f1050 	ldr	r1, [pc, #80]	; d0020098 <run_on_dram+0x18>
d0020044:	e59f2050 	ldr	r2, [pc, #80]	; d002009c <run_on_dram+0x1c>
d0020048:	e1500001 	cmp	r0, r1
d002004c:	0a000003 	beq	d0020060 <clean_bss>

d0020050 <copy_loop>:
d0020050:	e4903004 	ldr	r3, [r0], #4
d0020054:	e4813004 	str	r3, [r1], #4
d0020058:	e1510002 	cmp	r1, r2
d002005c:	1afffffb 	bne	d0020050 <copy_loop>

d0020060 <clean_bss>:
d0020060:	e59f0034 	ldr	r0, [pc, #52]	; d002009c <run_on_dram+0x1c>
d0020064:	e59f1034 	ldr	r1, [pc, #52]	; d00200a0 <run_on_dram+0x20>
d0020068:	e1500001 	cmp	r0, r1
d002006c:	0a000003 	beq	d0020080 <run_on_dram>
d0020070:	e3a02000 	mov	r2, #0

d0020074 <clear_loop>:
d0020074:	e4802004 	str	r2, [r0], #4
d0020078:	e1500001 	cmp	r0, r1
d002007c:	1afffffc 	bne	d0020074 <clear_loop>

d0020080 <run_on_dram>:
d0020080:	e59ff01c 	ldr	pc, [pc, #28]	; d00200a4 <run_on_dram+0x24>
d0020084:	eafffffe 	b	d0020084 <run_on_dram+0x4>
d0020088:	e2700000 	rsbs	r0, r0, #0
d002008c:	e010e81c 	ands	lr, r0, ip, lsl r8
d0020090:	00000301 	andeq	r0, r0, r1, lsl #6
d0020094:	d0037d80 	andle	r7, r3, r0, lsl #27
d0020098:	d0020010 	andle	r0, r2, r0, lsl r0
d002009c:	d0026a28 	andle	r6, r2, r8, lsr #20
d00200a0:	d0026a28 	andle	r6, r2, r8, lsr #20
d00200a4:	d00221b0 	strhle	r2, [r2], -r0
d00200a8:	00001a41 	andeq	r1, r0, r1, asr #20
d00200ac:	61656100 	cmnvs	r5, r0, lsl #2
d00200b0:	01006962 	tsteq	r0, r2, ror #18
d00200b4:	00000010 	andeq	r0, r0, r0, lsl r0
d00200b8:	45543505 	ldrbmi	r3, [r4, #-1285]	; 0x505
d00200bc:	08040600 	stmdaeq	r4, {r9, sl}
d00200c0:	00010901 	andeq	r0, r1, r1, lsl #18

d00200c4 <sdram_asm_init>:
d00200c4:	e59f037c 	ldr	r0, [pc, #892]	; d0020448 <find_lock_val1+0x150>
d00200c8:	e3a01000 	mov	r1, #0
d00200cc:	e5801000 	str	r1, [r0]
d00200d0:	e59f0374 	ldr	r0, [pc, #884]	; d002044c <find_lock_val1+0x154>
d00200d4:	e59f1374 	ldr	r1, [pc, #884]	; d0020450 <find_lock_val1+0x158>
d00200d8:	e58013cc 	str	r1, [r0, #972]	; 0x3cc
d00200dc:	e59f136c 	ldr	r1, [pc, #876]	; d0020450 <find_lock_val1+0x158>
d00200e0:	e58013ec 	str	r1, [r0, #1004]	; 0x3ec
d00200e4:	e59f1364 	ldr	r1, [pc, #868]	; d0020450 <find_lock_val1+0x158>
d00200e8:	e580140c 	str	r1, [r0, #1036]	; 0x40c
d00200ec:	e59f135c 	ldr	r1, [pc, #860]	; d0020450 <find_lock_val1+0x158>
d00200f0:	e580142c 	str	r1, [r0, #1068]	; 0x42c
d00200f4:	e59f1354 	ldr	r1, [pc, #852]	; d0020450 <find_lock_val1+0x158>
d00200f8:	e580144c 	str	r1, [r0, #1100]	; 0x44c
d00200fc:	e59f134c 	ldr	r1, [pc, #844]	; d0020450 <find_lock_val1+0x158>
d0020100:	e580146c 	str	r1, [r0, #1132]	; 0x46c
d0020104:	e59f1344 	ldr	r1, [pc, #836]	; d0020450 <find_lock_val1+0x158>
d0020108:	e580148c 	str	r1, [r0, #1164]	; 0x48c
d002010c:	e59f133c 	ldr	r1, [pc, #828]	; d0020450 <find_lock_val1+0x158>
d0020110:	e58014ac 	str	r1, [r0, #1196]	; 0x4ac
d0020114:	e59f1338 	ldr	r1, [pc, #824]	; d0020454 <find_lock_val1+0x15c>
d0020118:	e58014cc 	str	r1, [r0, #1228]	; 0x4cc
d002011c:	e59f0328 	ldr	r0, [pc, #808]	; d002044c <find_lock_val1+0x154>
d0020120:	e59f1328 	ldr	r1, [pc, #808]	; d0020450 <find_lock_val1+0x158>
d0020124:	e58014ec 	str	r1, [r0, #1260]	; 0x4ec
d0020128:	e59f1320 	ldr	r1, [pc, #800]	; d0020450 <find_lock_val1+0x158>
d002012c:	e580150c 	str	r1, [r0, #1292]	; 0x50c
d0020130:	e59f1318 	ldr	r1, [pc, #792]	; d0020450 <find_lock_val1+0x158>
d0020134:	e580152c 	str	r1, [r0, #1324]	; 0x52c
d0020138:	e59f1310 	ldr	r1, [pc, #784]	; d0020450 <find_lock_val1+0x158>
d002013c:	e580154c 	str	r1, [r0, #1356]	; 0x54c
d0020140:	e59f1308 	ldr	r1, [pc, #776]	; d0020450 <find_lock_val1+0x158>
d0020144:	e580156c 	str	r1, [r0, #1388]	; 0x56c
d0020148:	e59f1300 	ldr	r1, [pc, #768]	; d0020450 <find_lock_val1+0x158>
d002014c:	e580158c 	str	r1, [r0, #1420]	; 0x58c
d0020150:	e59f12f8 	ldr	r1, [pc, #760]	; d0020450 <find_lock_val1+0x158>
d0020154:	e58015ac 	str	r1, [r0, #1452]	; 0x5ac
d0020158:	e59f12f0 	ldr	r1, [pc, #752]	; d0020450 <find_lock_val1+0x158>
d002015c:	e58015cc 	str	r1, [r0, #1484]	; 0x5cc
d0020160:	e59f12ec 	ldr	r1, [pc, #748]	; d0020454 <find_lock_val1+0x15c>
d0020164:	e58015ec 	str	r1, [r0, #1516]	; 0x5ec
d0020168:	e3a0020f 	mov	r0, #-268435456	; 0xf0000000
d002016c:	e59f12e4 	ldr	r1, [pc, #740]	; d0020458 <find_lock_val1+0x160>
d0020170:	e5801018 	str	r1, [r0, #24]
d0020174:	e3a01086 	mov	r1, #134	; 0x86
d0020178:	e580101c 	str	r1, [r0, #28]
d002017c:	e59f12d8 	ldr	r1, [pc, #728]	; d002045c <find_lock_val1+0x164>
d0020180:	e5801018 	str	r1, [r0, #24]
d0020184:	e59f12d4 	ldr	r1, [pc, #724]	; d0020460 <find_lock_val1+0x168>
d0020188:	e5801018 	str	r1, [r0, #24]

d002018c <find_lock_val>:
d002018c:	e5901040 	ldr	r1, [r0, #64]	; 0x40
d0020190:	e2012007 	and	r2, r1, #7
d0020194:	e3520007 	cmp	r2, #7
d0020198:	1afffffb 	bne	d002018c <find_lock_val>
d002019c:	e2011dff 	and	r1, r1, #16320	; 0x3fc0
d00201a0:	e1a02901 	lsl	r2, r1, #18
d00201a4:	e3822601 	orr	r2, r2, #1048576	; 0x100000
d00201a8:	e3822a01 	orr	r2, r2, #4096	; 0x1000
d00201ac:	e3821003 	orr	r1, r2, #3
d00201b0:	e5801018 	str	r1, [r0, #24]
d00201b4:	e59f12a8 	ldr	r1, [pc, #680]	; d0020464 <find_lock_val1+0x16c>
d00201b8:	e5801000 	str	r1, [r0]
d00201bc:	e59f12a4 	ldr	r1, [pc, #676]	; d0020468 <find_lock_val1+0x170>
d00201c0:	e5801004 	str	r1, [r0, #4]
d00201c4:	e59f12a0 	ldr	r1, [pc, #672]	; d002046c <find_lock_val1+0x174>
d00201c8:	e5801008 	str	r1, [r0, #8]
d00201cc:	e59f129c 	ldr	r1, [pc, #668]	; d0020470 <find_lock_val1+0x178>
d00201d0:	e580100c 	str	r1, [r0, #12]
d00201d4:	e3a014ff 	mov	r1, #-16777216	; 0xff000000
d00201d8:	e5801014 	str	r1, [r0, #20]
d00201dc:	e59f1290 	ldr	r1, [pc, #656]	; d0020474 <find_lock_val1+0x17c>
d00201e0:	e5801030 	str	r1, [r0, #48]	; 0x30
d00201e4:	e59f128c 	ldr	r1, [pc, #652]	; d0020478 <find_lock_val1+0x180>
d00201e8:	e5801034 	str	r1, [r0, #52]	; 0x34
d00201ec:	e59f1288 	ldr	r1, [pc, #648]	; d002047c <find_lock_val1+0x184>
d00201f0:	e5801038 	str	r1, [r0, #56]	; 0x38
d00201f4:	e59f1284 	ldr	r1, [pc, #644]	; d0020480 <find_lock_val1+0x188>
d00201f8:	e580103c 	str	r1, [r0, #60]	; 0x3c
d00201fc:	e3a01407 	mov	r1, #117440512	; 0x7000000
d0020200:	e5801010 	str	r1, [r0, #16]
d0020204:	e3a01401 	mov	r1, #16777216	; 0x1000000
d0020208:	e5801010 	str	r1, [r0, #16]
d002020c:	e3a01802 	mov	r1, #131072	; 0x20000
d0020210:	e5801010 	str	r1, [r0, #16]
d0020214:	e3a01803 	mov	r1, #196608	; 0x30000
d0020218:	e5801010 	str	r1, [r0, #16]
d002021c:	e3a01b41 	mov	r1, #66560	; 0x10400
d0020220:	e5801010 	str	r1, [r0, #16]
d0020224:	e59f1258 	ldr	r1, [pc, #600]	; d0020484 <find_lock_val1+0x18c>
d0020228:	e5801010 	str	r1, [r0, #16]
d002022c:	e3a01401 	mov	r1, #16777216	; 0x1000000
d0020230:	e5801010 	str	r1, [r0, #16]
d0020234:	e3a01405 	mov	r1, #83886080	; 0x5000000
d0020238:	e5801010 	str	r1, [r0, #16]
d002023c:	e3a01405 	mov	r1, #83886080	; 0x5000000
d0020240:	e5801010 	str	r1, [r0, #16]
d0020244:	e59f123c 	ldr	r1, [pc, #572]	; d0020488 <find_lock_val1+0x190>
d0020248:	e5801010 	str	r1, [r0, #16]
d002024c:	e59f1238 	ldr	r1, [pc, #568]	; d002048c <find_lock_val1+0x194>
d0020250:	e5801010 	str	r1, [r0, #16]
d0020254:	e3a01b41 	mov	r1, #66560	; 0x10400
d0020258:	e5801010 	str	r1, [r0, #16]
d002025c:	e3a01671 	mov	r1, #118489088	; 0x7100000
d0020260:	e5801010 	str	r1, [r0, #16]
d0020264:	e3a01611 	mov	r1, #17825792	; 0x1100000
d0020268:	e5801010 	str	r1, [r0, #16]
d002026c:	e3a01812 	mov	r1, #1179648	; 0x120000
d0020270:	e5801010 	str	r1, [r0, #16]
d0020274:	e3a01813 	mov	r1, #1245184	; 0x130000
d0020278:	e5801010 	str	r1, [r0, #16]
d002027c:	e59f120c 	ldr	r1, [pc, #524]	; d0020490 <find_lock_val1+0x198>
d0020280:	e5801010 	str	r1, [r0, #16]
d0020284:	e59f1208 	ldr	r1, [pc, #520]	; d0020494 <find_lock_val1+0x19c>
d0020288:	e5801010 	str	r1, [r0, #16]
d002028c:	e3a01611 	mov	r1, #17825792	; 0x1100000
d0020290:	e5801010 	str	r1, [r0, #16]
d0020294:	e3a01651 	mov	r1, #84934656	; 0x5100000
d0020298:	e5801010 	str	r1, [r0, #16]
d002029c:	e3a01651 	mov	r1, #84934656	; 0x5100000
d00202a0:	e5801010 	str	r1, [r0, #16]
d00202a4:	e59f11ec 	ldr	r1, [pc, #492]	; d0020498 <find_lock_val1+0x1a0>
d00202a8:	e5801010 	str	r1, [r0, #16]
d00202ac:	e59f11e8 	ldr	r1, [pc, #488]	; d002049c <find_lock_val1+0x1a4>
d00202b0:	e5801010 	str	r1, [r0, #16]
d00202b4:	e59f11d4 	ldr	r1, [pc, #468]	; d0020490 <find_lock_val1+0x198>
d00202b8:	e5801010 	str	r1, [r0, #16]
d00202bc:	e59f11dc 	ldr	r1, [pc, #476]	; d00204a0 <find_lock_val1+0x1a8>
d00202c0:	e5801000 	str	r1, [r0]
d00202c4:	e3e01cff 	mvn	r1, #65280	; 0xff00
d00202c8:	e5801028 	str	r1, [r0, #40]	; 0x28
d00202cc:	e59f1194 	ldr	r1, [pc, #404]	; d0020468 <find_lock_val1+0x170>
d00202d0:	e5801004 	str	r1, [r0, #4]
d00202d4:	e59f01c8 	ldr	r0, [pc, #456]	; d00204a4 <find_lock_val1+0x1ac>
d00202d8:	e59f1178 	ldr	r1, [pc, #376]	; d0020458 <find_lock_val1+0x160>
d00202dc:	e5801018 	str	r1, [r0, #24]
d00202e0:	e3a01086 	mov	r1, #134	; 0x86
d00202e4:	e580101c 	str	r1, [r0, #28]
d00202e8:	e59f116c 	ldr	r1, [pc, #364]	; d002045c <find_lock_val1+0x164>
d00202ec:	e5801018 	str	r1, [r0, #24]
d00202f0:	e59f1168 	ldr	r1, [pc, #360]	; d0020460 <find_lock_val1+0x168>
d00202f4:	e5801018 	str	r1, [r0, #24]

d00202f8 <find_lock_val1>:
d00202f8:	e5901040 	ldr	r1, [r0, #64]	; 0x40
d00202fc:	e2012007 	and	r2, r1, #7
d0020300:	e3520007 	cmp	r2, #7
d0020304:	1afffffb 	bne	d00202f8 <find_lock_val1>
d0020308:	e2011dff 	and	r1, r1, #16320	; 0x3fc0
d002030c:	e1a02901 	lsl	r2, r1, #18
d0020310:	e3822601 	orr	r2, r2, #1048576	; 0x100000
d0020314:	e3822a01 	orr	r2, r2, #4096	; 0x1000
d0020318:	e3821003 	orr	r1, r2, #3
d002031c:	e5801018 	str	r1, [r0, #24]
d0020320:	e59f017c 	ldr	r0, [pc, #380]	; d00204a4 <find_lock_val1+0x1ac>
d0020324:	e59f1138 	ldr	r1, [pc, #312]	; d0020464 <find_lock_val1+0x16c>
d0020328:	e5801000 	str	r1, [r0]
d002032c:	e59f1134 	ldr	r1, [pc, #308]	; d0020468 <find_lock_val1+0x170>
d0020330:	e5801004 	str	r1, [r0, #4]
d0020334:	e59f116c 	ldr	r1, [pc, #364]	; d00204a8 <find_lock_val1+0x1b0>
d0020338:	e5801008 	str	r1, [r0, #8]
d002033c:	e59f1168 	ldr	r1, [pc, #360]	; d00204ac <find_lock_val1+0x1b4>
d0020340:	e580100c 	str	r1, [r0, #12]
d0020344:	e3a014ff 	mov	r1, #-16777216	; 0xff000000
d0020348:	e5801014 	str	r1, [r0, #20]
d002034c:	e59f1120 	ldr	r1, [pc, #288]	; d0020474 <find_lock_val1+0x17c>
d0020350:	e5801030 	str	r1, [r0, #48]	; 0x30
d0020354:	e59f1154 	ldr	r1, [pc, #340]	; d00204b0 <find_lock_val1+0x1b8>
d0020358:	e5801034 	str	r1, [r0, #52]	; 0x34
d002035c:	e59f1118 	ldr	r1, [pc, #280]	; d002047c <find_lock_val1+0x184>
d0020360:	e5801038 	str	r1, [r0, #56]	; 0x38
d0020364:	e59f1148 	ldr	r1, [pc, #328]	; d00204b4 <find_lock_val1+0x1bc>
d0020368:	e580103c 	str	r1, [r0, #60]	; 0x3c
d002036c:	e3a01407 	mov	r1, #117440512	; 0x7000000
d0020370:	e5801010 	str	r1, [r0, #16]
d0020374:	e3a01401 	mov	r1, #16777216	; 0x1000000
d0020378:	e5801010 	str	r1, [r0, #16]
d002037c:	e3a01802 	mov	r1, #131072	; 0x20000
d0020380:	e5801010 	str	r1, [r0, #16]
d0020384:	e3a01803 	mov	r1, #196608	; 0x30000
d0020388:	e5801010 	str	r1, [r0, #16]
d002038c:	e3a01b41 	mov	r1, #66560	; 0x10400
d0020390:	e5801010 	str	r1, [r0, #16]
d0020394:	e59f10e8 	ldr	r1, [pc, #232]	; d0020484 <find_lock_val1+0x18c>
d0020398:	e5801010 	str	r1, [r0, #16]
d002039c:	e3a01401 	mov	r1, #16777216	; 0x1000000
d00203a0:	e5801010 	str	r1, [r0, #16]
d00203a4:	e3a01405 	mov	r1, #83886080	; 0x5000000
d00203a8:	e5801010 	str	r1, [r0, #16]
d00203ac:	e3a01405 	mov	r1, #83886080	; 0x5000000
d00203b0:	e5801010 	str	r1, [r0, #16]
d00203b4:	e59f10cc 	ldr	r1, [pc, #204]	; d0020488 <find_lock_val1+0x190>
d00203b8:	e5801010 	str	r1, [r0, #16]
d00203bc:	e59f10c8 	ldr	r1, [pc, #200]	; d002048c <find_lock_val1+0x194>
d00203c0:	e5801010 	str	r1, [r0, #16]
d00203c4:	e3a01b41 	mov	r1, #66560	; 0x10400
d00203c8:	e5801010 	str	r1, [r0, #16]
d00203cc:	e3a01671 	mov	r1, #118489088	; 0x7100000
d00203d0:	e5801010 	str	r1, [r0, #16]
d00203d4:	e3a01611 	mov	r1, #17825792	; 0x1100000
d00203d8:	e5801010 	str	r1, [r0, #16]
d00203dc:	e3a01812 	mov	r1, #1179648	; 0x120000
d00203e0:	e5801010 	str	r1, [r0, #16]
d00203e4:	e3a01813 	mov	r1, #1245184	; 0x130000
d00203e8:	e5801010 	str	r1, [r0, #16]
d00203ec:	e59f10c4 	ldr	r1, [pc, #196]	; d00204b8 <find_lock_val1+0x1c0>
d00203f0:	e5801010 	str	r1, [r0, #16]
d00203f4:	e59f1098 	ldr	r1, [pc, #152]	; d0020494 <find_lock_val1+0x19c>
d00203f8:	e5801010 	str	r1, [r0, #16]
d00203fc:	e3a01611 	mov	r1, #17825792	; 0x1100000
d0020400:	e5801010 	str	r1, [r0, #16]
d0020404:	e3a01651 	mov	r1, #84934656	; 0x5100000
d0020408:	e5801010 	str	r1, [r0, #16]
d002040c:	e3a01651 	mov	r1, #84934656	; 0x5100000
d0020410:	e5801010 	str	r1, [r0, #16]
d0020414:	e59f107c 	ldr	r1, [pc, #124]	; d0020498 <find_lock_val1+0x1a0>
d0020418:	e5801010 	str	r1, [r0, #16]
d002041c:	e59f1078 	ldr	r1, [pc, #120]	; d002049c <find_lock_val1+0x1a4>
d0020420:	e5801010 	str	r1, [r0, #16]
d0020424:	e59f1064 	ldr	r1, [pc, #100]	; d0020490 <find_lock_val1+0x198>
d0020428:	e5801010 	str	r1, [r0, #16]
d002042c:	e59f106c 	ldr	r1, [pc, #108]	; d00204a0 <find_lock_val1+0x1a8>
d0020430:	e5801000 	str	r1, [r0]
d0020434:	e3e01cff 	mvn	r1, #65280	; 0xff00
d0020438:	e5801028 	str	r1, [r0, #40]	; 0x28
d002043c:	e59f1024 	ldr	r1, [pc, #36]	; d0020468 <find_lock_val1+0x170>
d0020440:	e5801004 	str	r1, [r0, #4]
d0020444:	e1a0f00e 	mov	pc, lr
d0020448:	f1e00000 	undefined instruction 0xf1e00000
d002044c:	e0200000 	eor	r0, r0, r0
d0020450:	0000aaaa 	andeq	sl, r0, sl, lsr #21
d0020454:	00002aaa 	andeq	r2, r0, sl, lsr #21
d0020458:	00101000 	andseq	r1, r0, r0
d002045c:	00101002 	andseq	r1, r0, r2
d0020460:	00101003 	andseq	r1, r0, r3
d0020464:	0fff2010 	svceq	0x00ff2010
d0020468:	00202400 	eoreq	r2, r0, r0, lsl #8
d002046c:	20f01323 	rscscs	r1, r0, r3, lsr #6
d0020470:	30f00312 	rscscc	r0, r0, r2, lsl r3
d0020474:	00000618 	andeq	r0, r0, r8, lsl r6
d0020478:	28233287 	stmdacs	r3!, {r0, r1, r2, r7, r9, ip, sp}
d002047c:	23240304 	teqcs	r4, #268435456	; 0x10000000
d0020480:	09c80232 	stmibeq	r8, {r1, r4, r5, r9}^
d0020484:	00000542 	andeq	r0, r0, r2, asr #10
d0020488:	00000442 	andeq	r0, r0, r2, asr #8
d002048c:	00010780 	andeq	r0, r1, r0, lsl #15
d0020490:	00110400 	andseq	r0, r1, r0, lsl #8
d0020494:	00100542 	andseq	r0, r0, r2, asr #10
d0020498:	00100442 	andseq	r0, r0, r2, asr #8
d002049c:	00110780 	andseq	r0, r1, r0, lsl #15
d00204a0:	0ff02030 	svceq	0x00f02030
d00204a4:	f1400000 	undefined instruction 0xf1400000
d00204a8:	40f01323 	rscsmi	r1, r0, r3, lsr #6
d00204ac:	60e00312 	rscvs	r0, r0, r2, lsl r3
d00204b0:	28233289 	stmdacs	r3!, {r0, r3, r7, r9, ip, sp}
d00204b4:	08280232 	stmdaeq	r8!, {r1, r4, r5, r9}
d00204b8:	00110440 	andseq	r0, r1, r0, asr #8
d00204bc:	00001a41 	andeq	r1, r0, r1, asr #20
d00204c0:	61656100 	cmnvs	r5, r0, lsl #2
d00204c4:	01006962 	tsteq	r0, r2, ror #18
d00204c8:	00000010 	andeq	r0, r0, r0, lsl r0
d00204cc:	45543505 	ldrbmi	r3, [r4, #-1285]	; 0x505
d00204d0:	08040600 	stmdaeq	r4, {r9, sl}
d00204d4:	00010901 	andeq	r0, r1, r1, lsl #18

d00204d8 <led1>:
d00204d8:	e52db004 	push	{fp}		; (str fp, [sp, #-4]!)
d00204dc:	e28db000 	add	fp, sp, #0
d00204e0:	e59f301c 	ldr	r3, [pc, #28]	; d0020504 <led1+0x2c>
d00204e4:	e59f201c 	ldr	r2, [pc, #28]	; d0020508 <led1+0x30>
d00204e8:	e5832000 	str	r2, [r3]
d00204ec:	e59f3018 	ldr	r3, [pc, #24]	; d002050c <led1+0x34>
d00204f0:	e3a02030 	mov	r2, #48	; 0x30
d00204f4:	e5832000 	str	r2, [r3]
d00204f8:	e28bd000 	add	sp, fp, #0
d00204fc:	e8bd0800 	pop	{fp}
d0020500:	e12fff1e 	bx	lr
d0020504:	e0200240 	eor	r0, r0, r0, asr #4
d0020508:	11111111 	tstne	r1, r1, lsl r1
d002050c:	e0200244 	eor	r0, r0, r4, asr #4

d0020510 <led2>:
d0020510:	e52db004 	push	{fp}		; (str fp, [sp, #-4]!)
d0020514:	e28db000 	add	fp, sp, #0
d0020518:	e59f301c 	ldr	r3, [pc, #28]	; d002053c <led2+0x2c>
d002051c:	e59f201c 	ldr	r2, [pc, #28]	; d0020540 <led2+0x30>
d0020520:	e5832000 	str	r2, [r3]
d0020524:	e59f3018 	ldr	r3, [pc, #24]	; d0020544 <led2+0x34>
d0020528:	e3a02020 	mov	r2, #32
d002052c:	e5832000 	str	r2, [r3]
d0020530:	e28bd000 	add	sp, fp, #0
d0020534:	e8bd0800 	pop	{fp}
d0020538:	e12fff1e 	bx	lr
d002053c:	e0200240 	eor	r0, r0, r0, asr #4
d0020540:	11111111 	tstne	r1, r1, lsl r1
d0020544:	e0200244 	eor	r0, r0, r4, asr #4

d0020548 <led3>:
d0020548:	e52db004 	push	{fp}		; (str fp, [sp, #-4]!)
d002054c:	e28db000 	add	fp, sp, #0
d0020550:	e59f301c 	ldr	r3, [pc, #28]	; d0020574 <led3+0x2c>
d0020554:	e59f201c 	ldr	r2, [pc, #28]	; d0020578 <led3+0x30>
d0020558:	e5832000 	str	r2, [r3]
d002055c:	e59f3018 	ldr	r3, [pc, #24]	; d002057c <led3+0x34>
d0020560:	e3a02000 	mov	r2, #0
d0020564:	e5832000 	str	r2, [r3]
d0020568:	e28bd000 	add	sp, fp, #0
d002056c:	e8bd0800 	pop	{fp}
d0020570:	e12fff1e 	bx	lr
d0020574:	e0200240 	eor	r0, r0, r0, asr #4
d0020578:	11111111 	tstne	r1, r1, lsl r1
d002057c:	e0200244 	eor	r0, r0, r4, asr #4

d0020580 <led_blink>:
d0020580:	e92d4800 	push	{fp, lr}
d0020584:	e28db004 	add	fp, sp, #4
d0020588:	e59f3028 	ldr	r3, [pc, #40]	; d00205b8 <led_blink+0x38>
d002058c:	e59f2028 	ldr	r2, [pc, #40]	; d00205bc <led_blink+0x3c>
d0020590:	e5832000 	str	r2, [r3]
d0020594:	e59f3024 	ldr	r3, [pc, #36]	; d00205c0 <led_blink+0x40>
d0020598:	e3a02000 	mov	r2, #0
d002059c:	e5832000 	str	r2, [r3]
d00205a0:	eb000007 	bl	d00205c4 <delay>
d00205a4:	e59f3014 	ldr	r3, [pc, #20]	; d00205c0 <led_blink+0x40>
d00205a8:	e3a02038 	mov	r2, #56	; 0x38
d00205ac:	e5832000 	str	r2, [r3]
d00205b0:	eb000003 	bl	d00205c4 <delay>
d00205b4:	eafffff6 	b	d0020594 <led_blink+0x14>
d00205b8:	e0200240 	eor	r0, r0, r0, asr #4
d00205bc:	11111111 	tstne	r1, r1, lsl r1
d00205c0:	e0200244 	eor	r0, r0, r4, asr #4

d00205c4 <delay>:
d00205c4:	e52db004 	push	{fp}		; (str fp, [sp, #-4]!)
d00205c8:	e28db000 	add	fp, sp, #0
d00205cc:	e24dd00c 	sub	sp, sp, #12
d00205d0:	e59f3030 	ldr	r3, [pc, #48]	; d0020608 <delay+0x44>
d00205d4:	e50b3008 	str	r3, [fp, #-8]
d00205d8:	e51b3008 	ldr	r3, [fp, #-8]
d00205dc:	e3530000 	cmp	r3, #0
d00205e0:	03a02000 	moveq	r2, #0
d00205e4:	13a02001 	movne	r2, #1
d00205e8:	e20220ff 	and	r2, r2, #255	; 0xff
d00205ec:	e2433001 	sub	r3, r3, #1
d00205f0:	e50b3008 	str	r3, [fp, #-8]
d00205f4:	e3520000 	cmp	r2, #0
d00205f8:	1afffff6 	bne	d00205d8 <delay+0x14>
d00205fc:	e28bd000 	add	sp, fp, #0
d0020600:	e8bd0800 	pop	{fp}
d0020604:	e12fff1e 	bx	lr
d0020608:	000dbba0 	andeq	fp, sp, r0, lsr #23

d002060c <key_init>:
d002060c:	e52db004 	push	{fp}		; (str fp, [sp, #-4]!)
d0020610:	e28db000 	add	fp, sp, #0
d0020614:	e59f2030 	ldr	r2, [pc, #48]	; d002064c <key_init+0x40>
d0020618:	e59f302c 	ldr	r3, [pc, #44]	; d002064c <key_init+0x40>
d002061c:	e5933000 	ldr	r3, [r3]
d0020620:	e1a03823 	lsr	r3, r3, #16
d0020624:	e1a03803 	lsl	r3, r3, #16
d0020628:	e5823000 	str	r3, [r2]
d002062c:	e59f301c 	ldr	r3, [pc, #28]	; d0020650 <key_init+0x44>
d0020630:	e59f2018 	ldr	r2, [pc, #24]	; d0020650 <key_init+0x44>
d0020634:	e5922000 	ldr	r2, [r2]
d0020638:	e3c22cff 	bic	r2, r2, #65280	; 0xff00
d002063c:	e5832000 	str	r2, [r3]
d0020640:	e28bd000 	add	sp, fp, #0
d0020644:	e8bd0800 	pop	{fp}
d0020648:	e12fff1e 	bx	lr
d002064c:	e0200c40 	eor	r0, r0, r0, asr #24
d0020650:	e0200c00 	eor	r0, r0, r0, lsl #24

d0020654 <delay20ms>:
d0020654:	e52db004 	push	{fp}		; (str fp, [sp, #-4]!)
d0020658:	e28db000 	add	fp, sp, #0
d002065c:	e24dd00c 	sub	sp, sp, #12
d0020660:	e3a03000 	mov	r3, #0
d0020664:	e50b300c 	str	r3, [fp, #-12]
d0020668:	ea00000c 	b	d00206a0 <delay20ms+0x4c>
d002066c:	e3a03000 	mov	r3, #0
d0020670:	e50b3008 	str	r3, [fp, #-8]
d0020674:	ea000002 	b	d0020684 <delay20ms+0x30>
d0020678:	e51b3008 	ldr	r3, [fp, #-8]
d002067c:	e2833001 	add	r3, r3, #1
d0020680:	e50b3008 	str	r3, [fp, #-8]
d0020684:	e51b2008 	ldr	r2, [fp, #-8]
d0020688:	e59f3028 	ldr	r3, [pc, #40]	; d00206b8 <delay20ms+0x64>
d002068c:	e1520003 	cmp	r2, r3
d0020690:	dafffff8 	ble	d0020678 <delay20ms+0x24>
d0020694:	e51b300c 	ldr	r3, [fp, #-12]
d0020698:	e2833001 	add	r3, r3, #1
d002069c:	e50b300c 	str	r3, [fp, #-12]
d00206a0:	e51b300c 	ldr	r3, [fp, #-12]
d00206a4:	e3530063 	cmp	r3, #99	; 0x63
d00206a8:	daffffef 	ble	d002066c <delay20ms+0x18>
d00206ac:	e28bd000 	add	sp, fp, #0
d00206b0:	e8bd0800 	pop	{fp}
d00206b4:	e12fff1e 	bx	lr
d00206b8:	000003e7 	andeq	r0, r0, r7, ror #7

d00206bc <lcd_init>:
d00206bc:	e52db004 	push	{fp}		; (str fp, [sp, #-4]!)
d00206c0:	e28db000 	add	fp, sp, #0
d00206c4:	e59f317c 	ldr	r3, [pc, #380]	; d0020848 <lcd_init+0x18c>
d00206c8:	e59f217c 	ldr	r2, [pc, #380]	; d002084c <lcd_init+0x190>
d00206cc:	e5832000 	str	r2, [r3]
d00206d0:	e59f3178 	ldr	r3, [pc, #376]	; d0020850 <lcd_init+0x194>
d00206d4:	e59f2170 	ldr	r2, [pc, #368]	; d002084c <lcd_init+0x190>
d00206d8:	e5832000 	str	r2, [r3]
d00206dc:	e59f3170 	ldr	r3, [pc, #368]	; d0020854 <lcd_init+0x198>
d00206e0:	e59f2164 	ldr	r2, [pc, #356]	; d002084c <lcd_init+0x190>
d00206e4:	e5832000 	str	r2, [r3]
d00206e8:	e59f3168 	ldr	r3, [pc, #360]	; d0020858 <lcd_init+0x19c>
d00206ec:	e59f2158 	ldr	r2, [pc, #344]	; d002084c <lcd_init+0x190>
d00206f0:	e5832000 	str	r2, [r3]
d00206f4:	e59f3160 	ldr	r3, [pc, #352]	; d002085c <lcd_init+0x1a0>
d00206f8:	e59f215c 	ldr	r2, [pc, #348]	; d002085c <lcd_init+0x1a0>
d00206fc:	e5922000 	ldr	r2, [r2]
d0020700:	e3c2200f 	bic	r2, r2, #15
d0020704:	e5832000 	str	r2, [r3]
d0020708:	e59f314c 	ldr	r3, [pc, #332]	; d002085c <lcd_init+0x1a0>
d002070c:	e59f2148 	ldr	r2, [pc, #328]	; d002085c <lcd_init+0x1a0>
d0020710:	e5922000 	ldr	r2, [r2]
d0020714:	e3822001 	orr	r2, r2, #1
d0020718:	e5832000 	str	r2, [r3]
d002071c:	e59f313c 	ldr	r3, [pc, #316]	; d0020860 <lcd_init+0x1a4>
d0020720:	e59f2138 	ldr	r2, [pc, #312]	; d0020860 <lcd_init+0x1a4>
d0020724:	e5922000 	ldr	r2, [r2]
d0020728:	e3c22001 	bic	r2, r2, #1
d002072c:	e5832000 	str	r2, [r3]
d0020730:	e59f312c 	ldr	r3, [pc, #300]	; d0020864 <lcd_init+0x1a8>
d0020734:	e3a02002 	mov	r2, #2
d0020738:	e5832000 	str	r2, [r3]
d002073c:	e3a0233e 	mov	r2, #-134217728	; 0xf8000000
d0020740:	e3a0333e 	mov	r3, #-134217728	; 0xf8000000
d0020744:	e5931000 	ldr	r1, [r3]
d0020748:	e59f3118 	ldr	r3, [pc, #280]	; d0020868 <lcd_init+0x1ac>
d002074c:	e0013003 	and	r3, r1, r3
d0020750:	e5823000 	str	r3, [r2]
d0020754:	e3a0333e 	mov	r3, #-134217728	; 0xf8000000
d0020758:	e3a0233e 	mov	r2, #-134217728	; 0xf8000000
d002075c:	e5922000 	ldr	r2, [r2]
d0020760:	e3822003 	orr	r2, r2, #3
d0020764:	e5832000 	str	r2, [r3]
d0020768:	e3a0333e 	mov	r3, #-134217728	; 0xf8000000
d002076c:	e3a0233e 	mov	r2, #-134217728	; 0xf8000000
d0020770:	e5922000 	ldr	r2, [r2]
d0020774:	e3822e11 	orr	r2, r2, #272	; 0x110
d0020778:	e5832000 	str	r2, [r3]
d002077c:	e59f30e8 	ldr	r3, [pc, #232]	; d002086c <lcd_init+0x1b0>
d0020780:	e59f20e4 	ldr	r2, [pc, #228]	; d002086c <lcd_init+0x1b0>
d0020784:	e5922000 	ldr	r2, [r2]
d0020788:	e3822060 	orr	r2, r2, #96	; 0x60
d002078c:	e5832000 	str	r2, [r3]
d0020790:	e59f30d8 	ldr	r3, [pc, #216]	; d0020870 <lcd_init+0x1b4>
d0020794:	e59f20d8 	ldr	r2, [pc, #216]	; d0020874 <lcd_init+0x1b8>
d0020798:	e5832000 	str	r2, [r3]
d002079c:	e59f30d4 	ldr	r3, [pc, #212]	; d0020878 <lcd_init+0x1bc>
d00207a0:	e59f20d4 	ldr	r2, [pc, #212]	; d002087c <lcd_init+0x1c0>
d00207a4:	e5832000 	str	r2, [r3]
d00207a8:	e59f30d0 	ldr	r3, [pc, #208]	; d0020880 <lcd_init+0x1c4>
d00207ac:	e59f20d0 	ldr	r2, [pc, #208]	; d0020884 <lcd_init+0x1c8>
d00207b0:	e5832000 	str	r2, [r3]
d00207b4:	e59f30cc 	ldr	r3, [pc, #204]	; d0020888 <lcd_init+0x1cc>
d00207b8:	e59f20c8 	ldr	r2, [pc, #200]	; d0020888 <lcd_init+0x1cc>
d00207bc:	e5922000 	ldr	r2, [r2]
d00207c0:	e3822001 	orr	r2, r2, #1
d00207c4:	e5832000 	str	r2, [r3]
d00207c8:	e59f30b8 	ldr	r3, [pc, #184]	; d0020888 <lcd_init+0x1cc>
d00207cc:	e59f20b4 	ldr	r2, [pc, #180]	; d0020888 <lcd_init+0x1cc>
d00207d0:	e5922000 	ldr	r2, [r2]
d00207d4:	e3c2203c 	bic	r2, r2, #60	; 0x3c
d00207d8:	e5832000 	str	r2, [r3]
d00207dc:	e59f20a4 	ldr	r2, [pc, #164]	; d0020888 <lcd_init+0x1cc>
d00207e0:	e59f30a0 	ldr	r3, [pc, #160]	; d0020888 <lcd_init+0x1cc>
d00207e4:	e5933000 	ldr	r3, [r3]
d00207e8:	e3833902 	orr	r3, r3, #32768	; 0x8000
d00207ec:	e383302c 	orr	r3, r3, #44	; 0x2c
d00207f0:	e5823000 	str	r3, [r2]
d00207f4:	e59f3090 	ldr	r3, [pc, #144]	; d002088c <lcd_init+0x1d0>
d00207f8:	e3a02000 	mov	r2, #0
d00207fc:	e5832000 	str	r2, [r3]
d0020800:	e59f3088 	ldr	r3, [pc, #136]	; d0020890 <lcd_init+0x1d4>
d0020804:	e59f2088 	ldr	r2, [pc, #136]	; d0020894 <lcd_init+0x1d8>
d0020808:	e5832000 	str	r2, [r3]
d002080c:	e59f3084 	ldr	r3, [pc, #132]	; d0020898 <lcd_init+0x1dc>
d0020810:	e3a02a96 	mov	r2, #614400	; 0x96000
d0020814:	e5832000 	str	r2, [r3]
d0020818:	e59f307c 	ldr	r3, [pc, #124]	; d002089c <lcd_init+0x1e0>
d002081c:	e3a02423 	mov	r2, #587202560	; 0x23000000
d0020820:	e5832000 	str	r2, [r3]
d0020824:	e59f3074 	ldr	r3, [pc, #116]	; d00208a0 <lcd_init+0x1e4>
d0020828:	e3a02996 	mov	r2, #2457600	; 0x258000
d002082c:	e5832000 	str	r2, [r3]
d0020830:	e59f306c 	ldr	r3, [pc, #108]	; d00208a4 <lcd_init+0x1e8>
d0020834:	e3a02001 	mov	r2, #1
d0020838:	e5832000 	str	r2, [r3]
d002083c:	e28bd000 	add	sp, fp, #0
d0020840:	e8bd0800 	pop	{fp}
d0020844:	e12fff1e 	bx	lr
d0020848:	e0200120 	eor	r0, r0, r0, lsr #2
d002084c:	22222222 	eorcs	r2, r2, #536870914	; 0x20000002
d0020850:	e0200140 	eor	r0, r0, r0, asr #2
d0020854:	e0200160 	eor	r0, r0, r0, ror #2
d0020858:	e0200180 	eor	r0, r0, r0, lsl #3
d002085c:	e02000a0 	eor	r0, r0, r0, lsr #1
d0020860:	e02000a4 	eor	r0, r0, r4, lsr #1
d0020864:	e0107008 	ands	r7, r0, r8
d0020868:	f3fbfffb 	undefined instruction 0xf3fbfffb
d002086c:	f8000004 	undefined instruction 0xf8000004
d0020870:	f8000010 	undefined instruction 0xf8000010
d0020874:	00091d14 	andeq	r1, r9, r4, lsl sp
d0020878:	f8000014 	undefined instruction 0xf8000014
d002087c:	0009ef28 	andeq	lr, r9, r8, lsr #30
d0020880:	f8000018 	undefined instruction 0xf8000018
d0020884:	0012bbff 	ldrsheq	fp, [r2], -pc
d0020888:	f8000020 	undefined instruction 0xf8000020
d002088c:	f8000040 	undefined instruction 0xf8000040
d0020890:	f8000044 	undefined instruction 0xf8000044
d0020894:	001ffa57 	andseq	pc, pc, r7, asr sl
d0020898:	f8000048 	undefined instruction 0xf8000048
d002089c:	f80000a0 	undefined instruction 0xf80000a0
d00208a0:	f80000d0 	undefined instruction 0xf80000d0
d00208a4:	f8000034 	undefined instruction 0xf8000034

d00208a8 <lcd_draw_pixel>:
d00208a8:	e52db004 	push	{fp}		; (str fp, [sp, #-4]!)
d00208ac:	e28db000 	add	fp, sp, #0
d00208b0:	e24dd01c 	sub	sp, sp, #28
d00208b4:	e50b0010 	str	r0, [fp, #-16]
d00208b8:	e50b1014 	str	r1, [fp, #-20]
d00208bc:	e50b2018 	str	r2, [fp, #-24]
d00208c0:	e3a03423 	mov	r3, #587202560	; 0x23000000
d00208c4:	e50b3008 	str	r3, [fp, #-8]
d00208c8:	e51b3014 	ldr	r3, [fp, #-20]
d00208cc:	e1a03503 	lsl	r3, r3, #10
d00208d0:	e1a02003 	mov	r2, r3
d00208d4:	e51b3010 	ldr	r3, [fp, #-16]
d00208d8:	e0823003 	add	r3, r2, r3
d00208dc:	e1a02103 	lsl	r2, r3, #2
d00208e0:	e51b3008 	ldr	r3, [fp, #-8]
d00208e4:	e0823003 	add	r3, r2, r3
d00208e8:	e51b2018 	ldr	r2, [fp, #-24]
d00208ec:	e5832000 	str	r2, [r3]
d00208f0:	e28bd000 	add	sp, fp, #0
d00208f4:	e8bd0800 	pop	{fp}
d00208f8:	e12fff1e 	bx	lr

d00208fc <lcd_draw_background>:
d00208fc:	e92d4800 	push	{fp, lr}
d0020900:	e28db004 	add	fp, sp, #4
d0020904:	e24dd010 	sub	sp, sp, #16
d0020908:	e50b0010 	str	r0, [fp, #-16]
d002090c:	e3a03000 	mov	r3, #0
d0020910:	e50b3008 	str	r3, [fp, #-8]
d0020914:	ea000013 	b	d0020968 <lcd_draw_background+0x6c>
d0020918:	e3a03000 	mov	r3, #0
d002091c:	e50b300c 	str	r3, [fp, #-12]
d0020920:	ea000009 	b	d002094c <lcd_draw_background+0x50>
d0020924:	e51b100c 	ldr	r1, [fp, #-12]
d0020928:	e51b2008 	ldr	r2, [fp, #-8]
d002092c:	e51b3010 	ldr	r3, [fp, #-16]
d0020930:	e1a00001 	mov	r0, r1
d0020934:	e1a01002 	mov	r1, r2
d0020938:	e1a02003 	mov	r2, r3
d002093c:	ebffffd9 	bl	d00208a8 <lcd_draw_pixel>
d0020940:	e51b300c 	ldr	r3, [fp, #-12]
d0020944:	e2833001 	add	r3, r3, #1
d0020948:	e50b300c 	str	r3, [fp, #-12]
d002094c:	e51b200c 	ldr	r2, [fp, #-12]
d0020950:	e59f3028 	ldr	r3, [pc, #40]	; d0020980 <lcd_draw_background+0x84>
d0020954:	e1520003 	cmp	r2, r3
d0020958:	9afffff1 	bls	d0020924 <lcd_draw_background+0x28>
d002095c:	e51b3008 	ldr	r3, [fp, #-8]
d0020960:	e2833001 	add	r3, r3, #1
d0020964:	e50b3008 	str	r3, [fp, #-8]
d0020968:	e51b2008 	ldr	r2, [fp, #-8]
d002096c:	e59f3010 	ldr	r3, [pc, #16]	; d0020984 <lcd_draw_background+0x88>
d0020970:	e1520003 	cmp	r2, r3
d0020974:	9affffe7 	bls	d0020918 <lcd_draw_background+0x1c>
d0020978:	e24bd004 	sub	sp, fp, #4
d002097c:	e8bd8800 	pop	{fp, pc}
d0020980:	000003ff 	strdeq	r0, [r0], -pc
d0020984:	00000257 	andeq	r0, r0, r7, asr r2

d0020988 <show_8_16>:
d0020988:	e92d4800 	push	{fp, lr}
d002098c:	e28db004 	add	fp, sp, #4
d0020990:	e24dd020 	sub	sp, sp, #32
d0020994:	e50b0018 	str	r0, [fp, #-24]
d0020998:	e50b101c 	str	r1, [fp, #-28]
d002099c:	e50b2020 	str	r2, [fp, #-32]
d00209a0:	e50b3024 	str	r3, [fp, #-36]	; 0x24
d00209a4:	e3a03000 	mov	r3, #0
d00209a8:	e50b3008 	str	r3, [fp, #-8]
d00209ac:	e51b301c 	ldr	r3, [fp, #-28]
d00209b0:	e50b300c 	str	r3, [fp, #-12]
d00209b4:	ea000032 	b	d0020a84 <show_8_16+0xfc>
d00209b8:	e51b3018 	ldr	r3, [fp, #-24]
d00209bc:	e50b3010 	str	r3, [fp, #-16]
d00209c0:	ea000027 	b	d0020a64 <show_8_16+0xdc>
d00209c4:	e51b2010 	ldr	r2, [fp, #-16]
d00209c8:	e59f30d0 	ldr	r3, [pc, #208]	; d0020aa0 <show_8_16+0x118>
d00209cc:	e1520003 	cmp	r2, r3
d00209d0:	ca00001d 	bgt	d0020a4c <show_8_16+0xc4>
d00209d4:	e51b200c 	ldr	r2, [fp, #-12]
d00209d8:	e59f30c4 	ldr	r3, [pc, #196]	; d0020aa4 <show_8_16+0x11c>
d00209dc:	e1520003 	cmp	r2, r3
d00209e0:	ca000019 	bgt	d0020a4c <show_8_16+0xc4>
d00209e4:	e51b3008 	ldr	r3, [fp, #-8]
d00209e8:	e2832007 	add	r2, r3, #7
d00209ec:	e3530000 	cmp	r3, #0
d00209f0:	b1a03002 	movlt	r3, r2
d00209f4:	e1a031c3 	asr	r3, r3, #3
d00209f8:	e1a02003 	mov	r2, r3
d00209fc:	e51b3024 	ldr	r3, [fp, #-36]	; 0x24
d0020a00:	e0823003 	add	r3, r2, r3
d0020a04:	e5d33000 	ldrb	r3, [r3]
d0020a08:	e1a01003 	mov	r1, r3
d0020a0c:	e51b2008 	ldr	r2, [fp, #-8]
d0020a10:	e1a03fc2 	asr	r3, r2, #31
d0020a14:	e1a03ea3 	lsr	r3, r3, #29
d0020a18:	e0822003 	add	r2, r2, r3
d0020a1c:	e2022007 	and	r2, r2, #7
d0020a20:	e0633002 	rsb	r3, r3, r2
d0020a24:	e1a03351 	asr	r3, r1, r3
d0020a28:	e2033001 	and	r3, r3, #1
d0020a2c:	e20330ff 	and	r3, r3, #255	; 0xff
d0020a30:	e3530000 	cmp	r3, #0
d0020a34:	0a000004 	beq	d0020a4c <show_8_16+0xc4>
d0020a38:	e51b3020 	ldr	r3, [fp, #-32]
d0020a3c:	e51b0010 	ldr	r0, [fp, #-16]
d0020a40:	e51b100c 	ldr	r1, [fp, #-12]
d0020a44:	e1a02003 	mov	r2, r3
d0020a48:	ebffff96 	bl	d00208a8 <lcd_draw_pixel>
d0020a4c:	e51b3008 	ldr	r3, [fp, #-8]
d0020a50:	e2833001 	add	r3, r3, #1
d0020a54:	e50b3008 	str	r3, [fp, #-8]
d0020a58:	e51b3010 	ldr	r3, [fp, #-16]
d0020a5c:	e2833001 	add	r3, r3, #1
d0020a60:	e50b3010 	str	r3, [fp, #-16]
d0020a64:	e51b2010 	ldr	r2, [fp, #-16]
d0020a68:	e51b3018 	ldr	r3, [fp, #-24]
d0020a6c:	e2833008 	add	r3, r3, #8
d0020a70:	e1520003 	cmp	r2, r3
d0020a74:	3affffd2 	bcc	d00209c4 <show_8_16+0x3c>
d0020a78:	e51b300c 	ldr	r3, [fp, #-12]
d0020a7c:	e2833001 	add	r3, r3, #1
d0020a80:	e50b300c 	str	r3, [fp, #-12]
d0020a84:	e51b200c 	ldr	r2, [fp, #-12]
d0020a88:	e51b301c 	ldr	r3, [fp, #-28]
d0020a8c:	e2833010 	add	r3, r3, #16
d0020a90:	e1520003 	cmp	r2, r3
d0020a94:	3affffc7 	bcc	d00209b8 <show_8_16+0x30>
d0020a98:	e24bd004 	sub	sp, fp, #4
d0020a9c:	e8bd8800 	pop	{fp, pc}
d0020aa0:	000003ff 	strdeq	r0, [r0], -pc
d0020aa4:	00000257 	andeq	r0, r0, r7, asr r2

d0020aa8 <show_16_16>:
d0020aa8:	e92d4800 	push	{fp, lr}
d0020aac:	e28db004 	add	fp, sp, #4
d0020ab0:	e24dd020 	sub	sp, sp, #32
d0020ab4:	e50b0018 	str	r0, [fp, #-24]
d0020ab8:	e50b101c 	str	r1, [fp, #-28]
d0020abc:	e50b2020 	str	r2, [fp, #-32]
d0020ac0:	e50b3024 	str	r3, [fp, #-36]	; 0x24
d0020ac4:	e3a03000 	mov	r3, #0
d0020ac8:	e50b3008 	str	r3, [fp, #-8]
d0020acc:	e51b301c 	ldr	r3, [fp, #-28]
d0020ad0:	e50b300c 	str	r3, [fp, #-12]
d0020ad4:	ea000032 	b	d0020ba4 <show_16_16+0xfc>
d0020ad8:	e51b3018 	ldr	r3, [fp, #-24]
d0020adc:	e50b3010 	str	r3, [fp, #-16]
d0020ae0:	ea000027 	b	d0020b84 <show_16_16+0xdc>
d0020ae4:	e51b2010 	ldr	r2, [fp, #-16]
d0020ae8:	e59f30d0 	ldr	r3, [pc, #208]	; d0020bc0 <show_16_16+0x118>
d0020aec:	e1520003 	cmp	r2, r3
d0020af0:	ca00001d 	bgt	d0020b6c <show_16_16+0xc4>
d0020af4:	e51b200c 	ldr	r2, [fp, #-12]
d0020af8:	e59f30c4 	ldr	r3, [pc, #196]	; d0020bc4 <show_16_16+0x11c>
d0020afc:	e1520003 	cmp	r2, r3
d0020b00:	ca000019 	bgt	d0020b6c <show_16_16+0xc4>
d0020b04:	e51b3008 	ldr	r3, [fp, #-8]
d0020b08:	e2832007 	add	r2, r3, #7
d0020b0c:	e3530000 	cmp	r3, #0
d0020b10:	b1a03002 	movlt	r3, r2
d0020b14:	e1a031c3 	asr	r3, r3, #3
d0020b18:	e1a02003 	mov	r2, r3
d0020b1c:	e51b3024 	ldr	r3, [fp, #-36]	; 0x24
d0020b20:	e0823003 	add	r3, r2, r3
d0020b24:	e5d33000 	ldrb	r3, [r3]
d0020b28:	e1a01003 	mov	r1, r3
d0020b2c:	e51b2008 	ldr	r2, [fp, #-8]
d0020b30:	e1a03fc2 	asr	r3, r2, #31
d0020b34:	e1a03ea3 	lsr	r3, r3, #29
d0020b38:	e0822003 	add	r2, r2, r3
d0020b3c:	e2022007 	and	r2, r2, #7
d0020b40:	e0633002 	rsb	r3, r3, r2
d0020b44:	e1a03351 	asr	r3, r1, r3
d0020b48:	e2033001 	and	r3, r3, #1
d0020b4c:	e20330ff 	and	r3, r3, #255	; 0xff
d0020b50:	e3530000 	cmp	r3, #0
d0020b54:	0a000004 	beq	d0020b6c <show_16_16+0xc4>
d0020b58:	e51b3020 	ldr	r3, [fp, #-32]
d0020b5c:	e51b0010 	ldr	r0, [fp, #-16]
d0020b60:	e51b100c 	ldr	r1, [fp, #-12]
d0020b64:	e1a02003 	mov	r2, r3
d0020b68:	ebffff4e 	bl	d00208a8 <lcd_draw_pixel>
d0020b6c:	e51b3008 	ldr	r3, [fp, #-8]
d0020b70:	e2833001 	add	r3, r3, #1
d0020b74:	e50b3008 	str	r3, [fp, #-8]
d0020b78:	e51b3010 	ldr	r3, [fp, #-16]
d0020b7c:	e2833001 	add	r3, r3, #1
d0020b80:	e50b3010 	str	r3, [fp, #-16]
d0020b84:	e51b2010 	ldr	r2, [fp, #-16]
d0020b88:	e51b3018 	ldr	r3, [fp, #-24]
d0020b8c:	e2833010 	add	r3, r3, #16
d0020b90:	e1520003 	cmp	r2, r3
d0020b94:	3affffd2 	bcc	d0020ae4 <show_16_16+0x3c>
d0020b98:	e51b300c 	ldr	r3, [fp, #-12]
d0020b9c:	e2833001 	add	r3, r3, #1
d0020ba0:	e50b300c 	str	r3, [fp, #-12]
d0020ba4:	e51b200c 	ldr	r2, [fp, #-12]
d0020ba8:	e51b301c 	ldr	r3, [fp, #-28]
d0020bac:	e2833010 	add	r3, r3, #16
d0020bb0:	e1520003 	cmp	r2, r3
d0020bb4:	3affffc7 	bcc	d0020ad8 <show_16_16+0x30>
d0020bb8:	e24bd004 	sub	sp, fp, #4
d0020bbc:	e8bd8800 	pop	{fp, pc}
d0020bc0:	000003ff 	strdeq	r0, [r0], -pc
d0020bc4:	00000257 	andeq	r0, r0, r7, asr r2

d0020bc8 <show_32_32>:
d0020bc8:	e92d4800 	push	{fp, lr}
d0020bcc:	e28db004 	add	fp, sp, #4
d0020bd0:	e24dd020 	sub	sp, sp, #32
d0020bd4:	e50b0018 	str	r0, [fp, #-24]
d0020bd8:	e50b101c 	str	r1, [fp, #-28]
d0020bdc:	e50b2020 	str	r2, [fp, #-32]
d0020be0:	e50b3024 	str	r3, [fp, #-36]	; 0x24
d0020be4:	e3a03000 	mov	r3, #0
d0020be8:	e50b3008 	str	r3, [fp, #-8]
d0020bec:	e51b301c 	ldr	r3, [fp, #-28]
d0020bf0:	e50b300c 	str	r3, [fp, #-12]
d0020bf4:	ea000032 	b	d0020cc4 <show_32_32+0xfc>
d0020bf8:	e51b3018 	ldr	r3, [fp, #-24]
d0020bfc:	e50b3010 	str	r3, [fp, #-16]
d0020c00:	ea000027 	b	d0020ca4 <show_32_32+0xdc>
d0020c04:	e51b2010 	ldr	r2, [fp, #-16]
d0020c08:	e59f30d0 	ldr	r3, [pc, #208]	; d0020ce0 <show_32_32+0x118>
d0020c0c:	e1520003 	cmp	r2, r3
d0020c10:	ca00001d 	bgt	d0020c8c <show_32_32+0xc4>
d0020c14:	e51b200c 	ldr	r2, [fp, #-12]
d0020c18:	e59f30c4 	ldr	r3, [pc, #196]	; d0020ce4 <show_32_32+0x11c>
d0020c1c:	e1520003 	cmp	r2, r3
d0020c20:	ca000019 	bgt	d0020c8c <show_32_32+0xc4>
d0020c24:	e51b3008 	ldr	r3, [fp, #-8]
d0020c28:	e2832007 	add	r2, r3, #7
d0020c2c:	e3530000 	cmp	r3, #0
d0020c30:	b1a03002 	movlt	r3, r2
d0020c34:	e1a031c3 	asr	r3, r3, #3
d0020c38:	e1a02003 	mov	r2, r3
d0020c3c:	e51b3024 	ldr	r3, [fp, #-36]	; 0x24
d0020c40:	e0823003 	add	r3, r2, r3
d0020c44:	e5d33000 	ldrb	r3, [r3]
d0020c48:	e1a01003 	mov	r1, r3
d0020c4c:	e51b2008 	ldr	r2, [fp, #-8]
d0020c50:	e1a03fc2 	asr	r3, r2, #31
d0020c54:	e1a03ea3 	lsr	r3, r3, #29
d0020c58:	e0822003 	add	r2, r2, r3
d0020c5c:	e2022007 	and	r2, r2, #7
d0020c60:	e0633002 	rsb	r3, r3, r2
d0020c64:	e1a03351 	asr	r3, r1, r3
d0020c68:	e2033001 	and	r3, r3, #1
d0020c6c:	e20330ff 	and	r3, r3, #255	; 0xff
d0020c70:	e3530000 	cmp	r3, #0
d0020c74:	0a000004 	beq	d0020c8c <show_32_32+0xc4>
d0020c78:	e51b3020 	ldr	r3, [fp, #-32]
d0020c7c:	e51b0010 	ldr	r0, [fp, #-16]
d0020c80:	e51b100c 	ldr	r1, [fp, #-12]
d0020c84:	e1a02003 	mov	r2, r3
d0020c88:	ebffff06 	bl	d00208a8 <lcd_draw_pixel>
d0020c8c:	e51b3008 	ldr	r3, [fp, #-8]
d0020c90:	e2833001 	add	r3, r3, #1
d0020c94:	e50b3008 	str	r3, [fp, #-8]
d0020c98:	e51b3010 	ldr	r3, [fp, #-16]
d0020c9c:	e2833001 	add	r3, r3, #1
d0020ca0:	e50b3010 	str	r3, [fp, #-16]
d0020ca4:	e51b2010 	ldr	r2, [fp, #-16]
d0020ca8:	e51b3018 	ldr	r3, [fp, #-24]
d0020cac:	e2833020 	add	r3, r3, #32
d0020cb0:	e1520003 	cmp	r2, r3
d0020cb4:	3affffd2 	bcc	d0020c04 <show_32_32+0x3c>
d0020cb8:	e51b300c 	ldr	r3, [fp, #-12]
d0020cbc:	e2833001 	add	r3, r3, #1
d0020cc0:	e50b300c 	str	r3, [fp, #-12]
d0020cc4:	e51b200c 	ldr	r2, [fp, #-12]
d0020cc8:	e51b301c 	ldr	r3, [fp, #-28]
d0020ccc:	e2833020 	add	r3, r3, #32
d0020cd0:	e1520003 	cmp	r2, r3
d0020cd4:	3affffc7 	bcc	d0020bf8 <show_32_32+0x30>
d0020cd8:	e24bd004 	sub	sp, fp, #4
d0020cdc:	e8bd8800 	pop	{fp, pc}
d0020ce0:	000003ff 	strdeq	r0, [r0], -pc
d0020ce4:	00000257 	andeq	r0, r0, r7, asr r2

d0020ce8 <draw_circular>:
d0020ce8:	e92d4800 	push	{fp, lr}
d0020cec:	e28db004 	add	fp, sp, #4
d0020cf0:	e24dd018 	sub	sp, sp, #24
d0020cf4:	e50b0010 	str	r0, [fp, #-16]
d0020cf8:	e50b1014 	str	r1, [fp, #-20]
d0020cfc:	e50b2018 	str	r2, [fp, #-24]
d0020d00:	e50b301c 	str	r3, [fp, #-28]
d0020d04:	e3a03000 	mov	r3, #0
d0020d08:	e50b3008 	str	r3, [fp, #-8]
d0020d0c:	ea000025 	b	d0020da8 <draw_circular+0xc0>
d0020d10:	e3a03000 	mov	r3, #0
d0020d14:	e50b300c 	str	r3, [fp, #-12]
d0020d18:	ea00001b 	b	d0020d8c <draw_circular+0xa4>
d0020d1c:	e51b2008 	ldr	r2, [fp, #-8]
d0020d20:	e51b3014 	ldr	r3, [fp, #-20]
d0020d24:	e0633002 	rsb	r3, r3, r2
d0020d28:	e51b1008 	ldr	r1, [fp, #-8]
d0020d2c:	e51b2014 	ldr	r2, [fp, #-20]
d0020d30:	e0622001 	rsb	r2, r2, r1
d0020d34:	e0020293 	mul	r2, r3, r2
d0020d38:	e51b100c 	ldr	r1, [fp, #-12]
d0020d3c:	e51b3010 	ldr	r3, [fp, #-16]
d0020d40:	e0633001 	rsb	r3, r3, r1
d0020d44:	e51b000c 	ldr	r0, [fp, #-12]
d0020d48:	e51b1010 	ldr	r1, [fp, #-16]
d0020d4c:	e0611000 	rsb	r1, r1, r0
d0020d50:	e0030391 	mul	r3, r1, r3
d0020d54:	e0822003 	add	r2, r2, r3
d0020d58:	e51b3018 	ldr	r3, [fp, #-24]
d0020d5c:	e51b1018 	ldr	r1, [fp, #-24]
d0020d60:	e0030391 	mul	r3, r1, r3
d0020d64:	e1520003 	cmp	r2, r3
d0020d68:	8a000004 	bhi	d0020d80 <draw_circular+0x98>
d0020d6c:	e51b301c 	ldr	r3, [fp, #-28]
d0020d70:	e51b000c 	ldr	r0, [fp, #-12]
d0020d74:	e51b1008 	ldr	r1, [fp, #-8]
d0020d78:	e1a02003 	mov	r2, r3
d0020d7c:	ebfffec9 	bl	d00208a8 <lcd_draw_pixel>
d0020d80:	e51b300c 	ldr	r3, [fp, #-12]
d0020d84:	e2833001 	add	r3, r3, #1
d0020d88:	e50b300c 	str	r3, [fp, #-12]
d0020d8c:	e51b200c 	ldr	r2, [fp, #-12]
d0020d90:	e59f3028 	ldr	r3, [pc, #40]	; d0020dc0 <draw_circular+0xd8>
d0020d94:	e1520003 	cmp	r2, r3
d0020d98:	daffffdf 	ble	d0020d1c <draw_circular+0x34>
d0020d9c:	e51b3008 	ldr	r3, [fp, #-8]
d0020da0:	e2833001 	add	r3, r3, #1
d0020da4:	e50b3008 	str	r3, [fp, #-8]
d0020da8:	e51b2008 	ldr	r2, [fp, #-8]
d0020dac:	e59f3010 	ldr	r3, [pc, #16]	; d0020dc4 <draw_circular+0xdc>
d0020db0:	e1520003 	cmp	r2, r3
d0020db4:	daffffd5 	ble	d0020d10 <draw_circular+0x28>
d0020db8:	e24bd004 	sub	sp, fp, #4
d0020dbc:	e8bd8800 	pop	{fp, pc}
d0020dc0:	00000257 	andeq	r0, r0, r7, asr r2
d0020dc4:	000003ff 	strdeq	r0, [r0], -pc

d0020dc8 <draw_ascii_ok32>:
d0020dc8:	e92d4800 	push	{fp, lr}
d0020dcc:	e28db004 	add	fp, sp, #4
d0020dd0:	e24dd018 	sub	sp, sp, #24
d0020dd4:	e50b0010 	str	r0, [fp, #-16]
d0020dd8:	e50b1014 	str	r1, [fp, #-20]
d0020ddc:	e50b2018 	str	r2, [fp, #-24]
d0020de0:	e50b301c 	str	r3, [fp, #-28]
d0020de4:	e3a03000 	mov	r3, #0
d0020de8:	e50b300c 	str	r3, [fp, #-12]
d0020dec:	ea00001d 	b	d0020e68 <draw_ascii_ok32+0xa0>
d0020df0:	e59f2090 	ldr	r2, [pc, #144]	; d0020e88 <draw_ascii_ok32+0xc0>
d0020df4:	e51b100c 	ldr	r1, [fp, #-12]
d0020df8:	e51b301c 	ldr	r3, [fp, #-28]
d0020dfc:	e0813003 	add	r3, r1, r3
d0020e00:	e5d33000 	ldrb	r3, [r3]
d0020e04:	e2433061 	sub	r3, r3, #97	; 0x61
d0020e08:	e1a03383 	lsl	r3, r3, #7
d0020e0c:	e0823003 	add	r3, r2, r3
d0020e10:	e50b3008 	str	r3, [fp, #-8]
d0020e14:	e51b0010 	ldr	r0, [fp, #-16]
d0020e18:	e51b1014 	ldr	r1, [fp, #-20]
d0020e1c:	e51b2018 	ldr	r2, [fp, #-24]
d0020e20:	e51b3008 	ldr	r3, [fp, #-8]
d0020e24:	ebffff67 	bl	d0020bc8 <show_32_32>
d0020e28:	e51b3010 	ldr	r3, [fp, #-16]
d0020e2c:	e2833028 	add	r3, r3, #40	; 0x28
d0020e30:	e50b3010 	str	r3, [fp, #-16]
d0020e34:	e51b2010 	ldr	r2, [fp, #-16]
d0020e38:	e59f304c 	ldr	r3, [pc, #76]	; d0020e8c <draw_ascii_ok32+0xc4>
d0020e3c:	e1520003 	cmp	r2, r3
d0020e40:	9a000005 	bls	d0020e5c <draw_ascii_ok32+0x94>
d0020e44:	e51b3010 	ldr	r3, [fp, #-16]
d0020e48:	e2433b01 	sub	r3, r3, #1024	; 0x400
d0020e4c:	e50b3010 	str	r3, [fp, #-16]
d0020e50:	e51b3014 	ldr	r3, [fp, #-20]
d0020e54:	e2833020 	add	r3, r3, #32
d0020e58:	e50b3014 	str	r3, [fp, #-20]
d0020e5c:	e51b300c 	ldr	r3, [fp, #-12]
d0020e60:	e2833001 	add	r3, r3, #1
d0020e64:	e50b300c 	str	r3, [fp, #-12]
d0020e68:	e51b200c 	ldr	r2, [fp, #-12]
d0020e6c:	e51b301c 	ldr	r3, [fp, #-28]
d0020e70:	e0823003 	add	r3, r2, r3
d0020e74:	e5d33000 	ldrb	r3, [r3]
d0020e78:	e3530000 	cmp	r3, #0
d0020e7c:	1affffdb 	bne	d0020df0 <draw_ascii_ok32+0x28>
d0020e80:	e24bd004 	sub	sp, fp, #4
d0020e84:	e8bd8800 	pop	{fp, pc}
d0020e88:	d00229d8 	ldrdle	r2, [r2], -r8
d0020e8c:	000003ff 	strdeq	r0, [r0], -pc

d0020e90 <lcd_draw_pictures>:
d0020e90:	e92d4800 	push	{fp, lr}
d0020e94:	e28db004 	add	fp, sp, #4
d0020e98:	e24dd028 	sub	sp, sp, #40	; 0x28
d0020e9c:	e50b0020 	str	r0, [fp, #-32]
d0020ea0:	e50b1024 	str	r1, [fp, #-36]	; 0x24
d0020ea4:	e50b2028 	str	r2, [fp, #-40]	; 0x28
d0020ea8:	e50b302c 	str	r3, [fp, #-44]	; 0x2c
d0020eac:	e3a03000 	mov	r3, #0
d0020eb0:	e50b300c 	str	r3, [fp, #-12]
d0020eb4:	e3a03000 	mov	r3, #0
d0020eb8:	e50b3008 	str	r3, [fp, #-8]
d0020ebc:	e51b3020 	ldr	r3, [fp, #-32]
d0020ec0:	e50b3018 	str	r3, [fp, #-24]
d0020ec4:	ea00002c 	b	d0020f7c <lcd_draw_pictures+0xec>
d0020ec8:	e51b3024 	ldr	r3, [fp, #-36]	; 0x24
d0020ecc:	e50b3014 	str	r3, [fp, #-20]
d0020ed0:	ea000020 	b	d0020f58 <lcd_draw_pictures+0xc8>
d0020ed4:	e51b1018 	ldr	r1, [fp, #-24]
d0020ed8:	e51b2014 	ldr	r2, [fp, #-20]
d0020edc:	e59b0004 	ldr	r0, [fp, #4]
d0020ee0:	e51b300c 	ldr	r3, [fp, #-12]
d0020ee4:	e0803003 	add	r3, r0, r3
d0020ee8:	e5d33000 	ldrb	r3, [r3]
d0020eec:	e1a00003 	mov	r0, r3
d0020ef0:	e51b3008 	ldr	r3, [fp, #-8]
d0020ef4:	e2233002 	eor	r3, r3, #2
d0020ef8:	e0003003 	and	r3, r0, r3
d0020efc:	e3530000 	cmp	r3, #0
d0020f00:	0a000001 	beq	d0020f0c <lcd_draw_pictures+0x7c>
d0020f04:	e3a030c0 	mov	r3, #192	; 0xc0
d0020f08:	ea000000 	b	d0020f10 <lcd_draw_pictures+0x80>
d0020f0c:	e3e034ff 	mvn	r3, #-16777216	; 0xff000000
d0020f10:	e1a00001 	mov	r0, r1
d0020f14:	e1a01002 	mov	r1, r2
d0020f18:	e1a02003 	mov	r2, r3
d0020f1c:	ebfffe61 	bl	d00208a8 <lcd_draw_pixel>
d0020f20:	e51b3008 	ldr	r3, [fp, #-8]
d0020f24:	e3530007 	cmp	r3, #7
d0020f28:	9a000004 	bls	d0020f40 <lcd_draw_pictures+0xb0>
d0020f2c:	e3a03000 	mov	r3, #0
d0020f30:	e50b3008 	str	r3, [fp, #-8]
d0020f34:	e51b300c 	ldr	r3, [fp, #-12]
d0020f38:	e2833001 	add	r3, r3, #1
d0020f3c:	e50b300c 	str	r3, [fp, #-12]
d0020f40:	e51b3008 	ldr	r3, [fp, #-8]
d0020f44:	e2833001 	add	r3, r3, #1
d0020f48:	e50b3008 	str	r3, [fp, #-8]
d0020f4c:	e51b3014 	ldr	r3, [fp, #-20]
d0020f50:	e2833001 	add	r3, r3, #1
d0020f54:	e50b3014 	str	r3, [fp, #-20]
d0020f58:	e51b2024 	ldr	r2, [fp, #-36]	; 0x24
d0020f5c:	e51b302c 	ldr	r3, [fp, #-44]	; 0x2c
d0020f60:	e0822003 	add	r2, r2, r3
d0020f64:	e51b3014 	ldr	r3, [fp, #-20]
d0020f68:	e1520003 	cmp	r2, r3
d0020f6c:	8affffd8 	bhi	d0020ed4 <lcd_draw_pictures+0x44>
d0020f70:	e51b3018 	ldr	r3, [fp, #-24]
d0020f74:	e2833001 	add	r3, r3, #1
d0020f78:	e50b3018 	str	r3, [fp, #-24]
d0020f7c:	e51b2020 	ldr	r2, [fp, #-32]
d0020f80:	e51b3028 	ldr	r3, [fp, #-40]	; 0x28
d0020f84:	e0822003 	add	r2, r2, r3
d0020f88:	e51b3018 	ldr	r3, [fp, #-24]
d0020f8c:	e1520003 	cmp	r2, r3
d0020f90:	8affffcc 	bhi	d0020ec8 <lcd_draw_pictures+0x38>
d0020f94:	e24bd004 	sub	sp, fp, #4
d0020f98:	e8bd8800 	pop	{fp, pc}

d0020f9c <lcd_draw_picture>:
d0020f9c:	e92d4800 	push	{fp, lr}
d0020fa0:	e28db004 	add	fp, sp, #4
d0020fa4:	e24dd020 	sub	sp, sp, #32
d0020fa8:	e50b0020 	str	r0, [fp, #-32]
d0020fac:	e3a03000 	mov	r3, #0
d0020fb0:	e50b300c 	str	r3, [fp, #-12]
d0020fb4:	e3a03000 	mov	r3, #0
d0020fb8:	e50b3008 	str	r3, [fp, #-8]
d0020fbc:	e3a03000 	mov	r3, #0
d0020fc0:	e50b3018 	str	r3, [fp, #-24]
d0020fc4:	ea00002a 	b	d0021074 <lcd_draw_picture+0xd8>
d0020fc8:	e3a03000 	mov	r3, #0
d0020fcc:	e50b3014 	str	r3, [fp, #-20]
d0020fd0:	ea000020 	b	d0021058 <lcd_draw_picture+0xbc>
d0020fd4:	e51b1018 	ldr	r1, [fp, #-24]
d0020fd8:	e51b2014 	ldr	r2, [fp, #-20]
d0020fdc:	e51b0020 	ldr	r0, [fp, #-32]
d0020fe0:	e51b300c 	ldr	r3, [fp, #-12]
d0020fe4:	e0803003 	add	r3, r0, r3
d0020fe8:	e5d33000 	ldrb	r3, [r3]
d0020fec:	e1a00003 	mov	r0, r3
d0020ff0:	e51b3008 	ldr	r3, [fp, #-8]
d0020ff4:	e2233002 	eor	r3, r3, #2
d0020ff8:	e0003003 	and	r3, r0, r3
d0020ffc:	e3530000 	cmp	r3, #0
d0021000:	0a000001 	beq	d002100c <lcd_draw_picture+0x70>
d0021004:	e3a030c0 	mov	r3, #192	; 0xc0
d0021008:	ea000000 	b	d0021010 <lcd_draw_picture+0x74>
d002100c:	e3e034ff 	mvn	r3, #-16777216	; 0xff000000
d0021010:	e1a00001 	mov	r0, r1
d0021014:	e1a01002 	mov	r1, r2
d0021018:	e1a02003 	mov	r2, r3
d002101c:	ebfffe21 	bl	d00208a8 <lcd_draw_pixel>
d0021020:	e51b3008 	ldr	r3, [fp, #-8]
d0021024:	e3530007 	cmp	r3, #7
d0021028:	9a000004 	bls	d0021040 <lcd_draw_picture+0xa4>
d002102c:	e3a03000 	mov	r3, #0
d0021030:	e50b3008 	str	r3, [fp, #-8]
d0021034:	e51b300c 	ldr	r3, [fp, #-12]
d0021038:	e2833001 	add	r3, r3, #1
d002103c:	e50b300c 	str	r3, [fp, #-12]
d0021040:	e51b3008 	ldr	r3, [fp, #-8]
d0021044:	e2833001 	add	r3, r3, #1
d0021048:	e50b3008 	str	r3, [fp, #-8]
d002104c:	e51b3014 	ldr	r3, [fp, #-20]
d0021050:	e2833001 	add	r3, r3, #1
d0021054:	e50b3014 	str	r3, [fp, #-20]
d0021058:	e51b2014 	ldr	r2, [fp, #-20]
d002105c:	e59f3028 	ldr	r3, [pc, #40]	; d002108c <lcd_draw_picture+0xf0>
d0021060:	e1520003 	cmp	r2, r3
d0021064:	9affffda 	bls	d0020fd4 <lcd_draw_picture+0x38>
d0021068:	e51b3018 	ldr	r3, [fp, #-24]
d002106c:	e2833001 	add	r3, r3, #1
d0021070:	e50b3018 	str	r3, [fp, #-24]
d0021074:	e51b2018 	ldr	r2, [fp, #-24]
d0021078:	e59f3010 	ldr	r3, [pc, #16]	; d0021090 <lcd_draw_picture+0xf4>
d002107c:	e1520003 	cmp	r2, r3
d0021080:	9affffd0 	bls	d0020fc8 <lcd_draw_picture+0x2c>
d0021084:	e24bd004 	sub	sp, fp, #4
d0021088:	e8bd8800 	pop	{fp, pc}
d002108c:	00000257 	andeq	r0, r0, r7, asr r2
d0021090:	000003ff 	strdeq	r0, [r0], -pc

d0021094 <draw_ascii_ok16>:
d0021094:	e92d4800 	push	{fp, lr}
d0021098:	e28db004 	add	fp, sp, #4
d002109c:	e24dd018 	sub	sp, sp, #24
d00210a0:	e50b0010 	str	r0, [fp, #-16]
d00210a4:	e50b1014 	str	r1, [fp, #-20]
d00210a8:	e50b2018 	str	r2, [fp, #-24]
d00210ac:	e50b301c 	str	r3, [fp, #-28]
d00210b0:	e3a03000 	mov	r3, #0
d00210b4:	e50b300c 	str	r3, [fp, #-12]
d00210b8:	ea00001d 	b	d0021134 <draw_ascii_ok16+0xa0>
d00210bc:	e59f2090 	ldr	r2, [pc, #144]	; d0021154 <draw_ascii_ok16+0xc0>
d00210c0:	e51b100c 	ldr	r1, [fp, #-12]
d00210c4:	e51b301c 	ldr	r3, [fp, #-28]
d00210c8:	e0813003 	add	r3, r1, r3
d00210cc:	e5d33000 	ldrb	r3, [r3]
d00210d0:	e2433061 	sub	r3, r3, #97	; 0x61
d00210d4:	e1a03283 	lsl	r3, r3, #5
d00210d8:	e0823003 	add	r3, r2, r3
d00210dc:	e50b3008 	str	r3, [fp, #-8]
d00210e0:	e51b0010 	ldr	r0, [fp, #-16]
d00210e4:	e51b1014 	ldr	r1, [fp, #-20]
d00210e8:	e51b2018 	ldr	r2, [fp, #-24]
d00210ec:	e51b3008 	ldr	r3, [fp, #-8]
d00210f0:	ebfffe6c 	bl	d0020aa8 <show_16_16>
d00210f4:	e51b3010 	ldr	r3, [fp, #-16]
d00210f8:	e2833014 	add	r3, r3, #20
d00210fc:	e50b3010 	str	r3, [fp, #-16]
d0021100:	e51b2010 	ldr	r2, [fp, #-16]
d0021104:	e59f304c 	ldr	r3, [pc, #76]	; d0021158 <draw_ascii_ok16+0xc4>
d0021108:	e1520003 	cmp	r2, r3
d002110c:	9a000005 	bls	d0021128 <draw_ascii_ok16+0x94>
d0021110:	e51b3010 	ldr	r3, [fp, #-16]
d0021114:	e2433b01 	sub	r3, r3, #1024	; 0x400
d0021118:	e50b3010 	str	r3, [fp, #-16]
d002111c:	e51b3014 	ldr	r3, [fp, #-20]
d0021120:	e2833010 	add	r3, r3, #16
d0021124:	e50b3014 	str	r3, [fp, #-20]
d0021128:	e51b300c 	ldr	r3, [fp, #-12]
d002112c:	e2833001 	add	r3, r3, #1
d0021130:	e50b300c 	str	r3, [fp, #-12]
d0021134:	e51b200c 	ldr	r2, [fp, #-12]
d0021138:	e51b301c 	ldr	r3, [fp, #-28]
d002113c:	e0823003 	add	r3, r2, r3
d0021140:	e5d33000 	ldrb	r3, [r3]
d0021144:	e3530000 	cmp	r3, #0
d0021148:	1affffdb 	bne	d00210bc <draw_ascii_ok16+0x28>
d002114c:	e24bd004 	sub	sp, fp, #4
d0021150:	e8bd8800 	pop	{fp, pc}
d0021154:	d00227b8 	strhle	r2, [r2], -r8
d0021158:	000003ff 	strdeq	r0, [r0], -pc

d002115c <draw_ascii_ok8>:
d002115c:	e92d4800 	push	{fp, lr}
d0021160:	e28db004 	add	fp, sp, #4
d0021164:	e24dd018 	sub	sp, sp, #24
d0021168:	e50b0010 	str	r0, [fp, #-16]
d002116c:	e50b1014 	str	r1, [fp, #-20]
d0021170:	e50b2018 	str	r2, [fp, #-24]
d0021174:	e50b301c 	str	r3, [fp, #-28]
d0021178:	e3a03000 	mov	r3, #0
d002117c:	e50b300c 	str	r3, [fp, #-12]
d0021180:	ea00001d 	b	d00211fc <draw_ascii_ok8+0xa0>
d0021184:	e51b200c 	ldr	r2, [fp, #-12]
d0021188:	e51b301c 	ldr	r3, [fp, #-28]
d002118c:	e0823003 	add	r3, r2, r3
d0021190:	e5d33000 	ldrb	r3, [r3]
d0021194:	e2433020 	sub	r3, r3, #32
d0021198:	e1a02203 	lsl	r2, r3, #4
d002119c:	e59f3078 	ldr	r3, [pc, #120]	; d002121c <draw_ascii_ok8+0xc0>
d00211a0:	e0823003 	add	r3, r2, r3
d00211a4:	e50b3008 	str	r3, [fp, #-8]
d00211a8:	e51b0010 	ldr	r0, [fp, #-16]
d00211ac:	e51b1014 	ldr	r1, [fp, #-20]
d00211b0:	e51b2018 	ldr	r2, [fp, #-24]
d00211b4:	e51b3008 	ldr	r3, [fp, #-8]
d00211b8:	ebfffdf2 	bl	d0020988 <show_8_16>
d00211bc:	e51b3010 	ldr	r3, [fp, #-16]
d00211c0:	e283300a 	add	r3, r3, #10
d00211c4:	e50b3010 	str	r3, [fp, #-16]
d00211c8:	e51b2010 	ldr	r2, [fp, #-16]
d00211cc:	e59f304c 	ldr	r3, [pc, #76]	; d0021220 <draw_ascii_ok8+0xc4>
d00211d0:	e1520003 	cmp	r2, r3
d00211d4:	9a000005 	bls	d00211f0 <draw_ascii_ok8+0x94>
d00211d8:	e51b3010 	ldr	r3, [fp, #-16]
d00211dc:	e2433b01 	sub	r3, r3, #1024	; 0x400
d00211e0:	e50b3010 	str	r3, [fp, #-16]
d00211e4:	e51b3014 	ldr	r3, [fp, #-20]
d00211e8:	e2833010 	add	r3, r3, #16
d00211ec:	e50b3014 	str	r3, [fp, #-20]
d00211f0:	e51b300c 	ldr	r3, [fp, #-12]
d00211f4:	e2833001 	add	r3, r3, #1
d00211f8:	e50b300c 	str	r3, [fp, #-12]
d00211fc:	e51b200c 	ldr	r2, [fp, #-12]
d0021200:	e51b301c 	ldr	r3, [fp, #-28]
d0021204:	e0823003 	add	r3, r2, r3
d0021208:	e5d33000 	ldrb	r3, [r3]
d002120c:	e3530000 	cmp	r3, #0
d0021210:	1affffdb 	bne	d0021184 <draw_ascii_ok8+0x28>
d0021214:	e24bd004 	sub	sp, fp, #4
d0021218:	e8bd8800 	pop	{fp, pc}
d002121c:	d00221c8 	andle	r2, r2, r8, asr #3
d0021220:	000003ff 	strdeq	r0, [r0], -pc

d0021224 <draw_rectangle>:
d0021224:	e92d4800 	push	{fp, lr}
d0021228:	e28db004 	add	fp, sp, #4
d002122c:	e24dd020 	sub	sp, sp, #32
d0021230:	e50b0018 	str	r0, [fp, #-24]
d0021234:	e50b101c 	str	r1, [fp, #-28]
d0021238:	e50b2020 	str	r2, [fp, #-32]
d002123c:	e50b3024 	str	r3, [fp, #-36]	; 0x24
d0021240:	e51b2018 	ldr	r2, [fp, #-24]
d0021244:	e51b3020 	ldr	r3, [fp, #-32]
d0021248:	e1520003 	cmp	r2, r3
d002124c:	9a00000b 	bls	d0021280 <draw_rectangle+0x5c>
d0021250:	e51b3020 	ldr	r3, [fp, #-32]
d0021254:	e50b3008 	str	r3, [fp, #-8]
d0021258:	e51b3018 	ldr	r3, [fp, #-24]
d002125c:	e50b3020 	str	r3, [fp, #-32]
d0021260:	e51b3008 	ldr	r3, [fp, #-8]
d0021264:	e50b3018 	str	r3, [fp, #-24]
d0021268:	e51b3024 	ldr	r3, [fp, #-36]	; 0x24
d002126c:	e50b3008 	str	r3, [fp, #-8]
d0021270:	e51b301c 	ldr	r3, [fp, #-28]
d0021274:	e50b3024 	str	r3, [fp, #-36]	; 0x24
d0021278:	e51b3008 	ldr	r3, [fp, #-8]
d002127c:	e50b301c 	str	r3, [fp, #-28]
d0021280:	e51b201c 	ldr	r2, [fp, #-28]
d0021284:	e51b3024 	ldr	r3, [fp, #-36]	; 0x24
d0021288:	e1520003 	cmp	r2, r3
d002128c:	2a000019 	bcs	d00212f8 <draw_rectangle+0xd4>
d0021290:	e51b3018 	ldr	r3, [fp, #-24]
d0021294:	e50b3010 	str	r3, [fp, #-16]
d0021298:	ea000011 	b	d00212e4 <draw_rectangle+0xc0>
d002129c:	e51b301c 	ldr	r3, [fp, #-28]
d00212a0:	e50b300c 	str	r3, [fp, #-12]
d00212a4:	ea000007 	b	d00212c8 <draw_rectangle+0xa4>
d00212a8:	e59b3004 	ldr	r3, [fp, #4]
d00212ac:	e51b0010 	ldr	r0, [fp, #-16]
d00212b0:	e51b100c 	ldr	r1, [fp, #-12]
d00212b4:	e1a02003 	mov	r2, r3
d00212b8:	ebfffd7a 	bl	d00208a8 <lcd_draw_pixel>
d00212bc:	e51b300c 	ldr	r3, [fp, #-12]
d00212c0:	e2833001 	add	r3, r3, #1
d00212c4:	e50b300c 	str	r3, [fp, #-12]
d00212c8:	e51b200c 	ldr	r2, [fp, #-12]
d00212cc:	e51b3024 	ldr	r3, [fp, #-36]	; 0x24
d00212d0:	e1520003 	cmp	r2, r3
d00212d4:	9afffff3 	bls	d00212a8 <draw_rectangle+0x84>
d00212d8:	e51b3010 	ldr	r3, [fp, #-16]
d00212dc:	e2833001 	add	r3, r3, #1
d00212e0:	e50b3010 	str	r3, [fp, #-16]
d00212e4:	e51b2010 	ldr	r2, [fp, #-16]
d00212e8:	e51b3020 	ldr	r3, [fp, #-32]
d00212ec:	e1520003 	cmp	r2, r3
d00212f0:	9affffe9 	bls	d002129c <draw_rectangle+0x78>
d00212f4:	ea000018 	b	d002135c <draw_rectangle+0x138>
d00212f8:	e51b3018 	ldr	r3, [fp, #-24]
d00212fc:	e50b3010 	str	r3, [fp, #-16]
d0021300:	ea000011 	b	d002134c <draw_rectangle+0x128>
d0021304:	e51b301c 	ldr	r3, [fp, #-28]
d0021308:	e50b300c 	str	r3, [fp, #-12]
d002130c:	ea000007 	b	d0021330 <draw_rectangle+0x10c>
d0021310:	e59b3004 	ldr	r3, [fp, #4]
d0021314:	e51b0010 	ldr	r0, [fp, #-16]
d0021318:	e51b100c 	ldr	r1, [fp, #-12]
d002131c:	e1a02003 	mov	r2, r3
d0021320:	ebfffd60 	bl	d00208a8 <lcd_draw_pixel>
d0021324:	e51b300c 	ldr	r3, [fp, #-12]
d0021328:	e2433001 	sub	r3, r3, #1
d002132c:	e50b300c 	str	r3, [fp, #-12]
d0021330:	e51b200c 	ldr	r2, [fp, #-12]
d0021334:	e51b3024 	ldr	r3, [fp, #-36]	; 0x24
d0021338:	e1520003 	cmp	r2, r3
d002133c:	2afffff3 	bcs	d0021310 <draw_rectangle+0xec>
d0021340:	e51b3010 	ldr	r3, [fp, #-16]
d0021344:	e2833001 	add	r3, r3, #1
d0021348:	e50b3010 	str	r3, [fp, #-16]
d002134c:	e51b2010 	ldr	r2, [fp, #-16]
d0021350:	e51b3020 	ldr	r3, [fp, #-32]
d0021354:	e1520003 	cmp	r2, r3
d0021358:	9affffe9 	bls	d0021304 <draw_rectangle+0xe0>
d002135c:	e24bd004 	sub	sp, fp, #4
d0021360:	e8bd8800 	pop	{fp, pc}

d0021364 <draw_line>:
d0021364:	e92d4800 	push	{fp, lr}
d0021368:	e28db004 	add	fp, sp, #4
d002136c:	e24dd020 	sub	sp, sp, #32
d0021370:	e50b0018 	str	r0, [fp, #-24]
d0021374:	e50b101c 	str	r1, [fp, #-28]
d0021378:	e50b2020 	str	r2, [fp, #-32]
d002137c:	e50b3024 	str	r3, [fp, #-36]	; 0x24
d0021380:	e51b2018 	ldr	r2, [fp, #-24]
d0021384:	e51b3020 	ldr	r3, [fp, #-32]
d0021388:	e1520003 	cmp	r2, r3
d002138c:	9a00000b 	bls	d00213c0 <draw_line+0x5c>
d0021390:	e51b3018 	ldr	r3, [fp, #-24]
d0021394:	e50b3008 	str	r3, [fp, #-8]
d0021398:	e51b3020 	ldr	r3, [fp, #-32]
d002139c:	e50b3018 	str	r3, [fp, #-24]
d00213a0:	e51b3008 	ldr	r3, [fp, #-8]
d00213a4:	e50b3020 	str	r3, [fp, #-32]
d00213a8:	e51b301c 	ldr	r3, [fp, #-28]
d00213ac:	e50b3008 	str	r3, [fp, #-8]
d00213b0:	e51b3024 	ldr	r3, [fp, #-36]	; 0x24
d00213b4:	e50b301c 	str	r3, [fp, #-28]
d00213b8:	e51b3008 	ldr	r3, [fp, #-8]
d00213bc:	e50b3024 	str	r3, [fp, #-36]	; 0x24
d00213c0:	e51b201c 	ldr	r2, [fp, #-28]
d00213c4:	e51b3024 	ldr	r3, [fp, #-36]	; 0x24
d00213c8:	e1520003 	cmp	r2, r3
d00213cc:	2a000029 	bcs	d0021478 <draw_line+0x114>
d00213d0:	e51b3018 	ldr	r3, [fp, #-24]
d00213d4:	e50b3010 	str	r3, [fp, #-16]
d00213d8:	ea000021 	b	d0021464 <draw_line+0x100>
d00213dc:	e51b301c 	ldr	r3, [fp, #-28]
d00213e0:	e50b300c 	str	r3, [fp, #-12]
d00213e4:	ea000017 	b	d0021448 <draw_line+0xe4>
d00213e8:	e51b3010 	ldr	r3, [fp, #-16]
d00213ec:	e51b2018 	ldr	r2, [fp, #-24]
d00213f0:	e0633002 	rsb	r3, r3, r2
d00213f4:	e51b200c 	ldr	r2, [fp, #-12]
d00213f8:	e51b1024 	ldr	r1, [fp, #-36]	; 0x24
d00213fc:	e0622001 	rsb	r2, r2, r1
d0021400:	e0020293 	mul	r2, r3, r2
d0021404:	e51b300c 	ldr	r3, [fp, #-12]
d0021408:	e51b101c 	ldr	r1, [fp, #-28]
d002140c:	e0633001 	rsb	r3, r3, r1
d0021410:	e51b1010 	ldr	r1, [fp, #-16]
d0021414:	e51b0020 	ldr	r0, [fp, #-32]
d0021418:	e0611000 	rsb	r1, r1, r0
d002141c:	e0030391 	mul	r3, r1, r3
d0021420:	e1520003 	cmp	r2, r3
d0021424:	1a000004 	bne	d002143c <draw_line+0xd8>
d0021428:	e59b3004 	ldr	r3, [fp, #4]
d002142c:	e51b0010 	ldr	r0, [fp, #-16]
d0021430:	e51b100c 	ldr	r1, [fp, #-12]
d0021434:	e1a02003 	mov	r2, r3
d0021438:	ebfffd1a 	bl	d00208a8 <lcd_draw_pixel>
d002143c:	e51b300c 	ldr	r3, [fp, #-12]
d0021440:	e2833001 	add	r3, r3, #1
d0021444:	e50b300c 	str	r3, [fp, #-12]
d0021448:	e51b200c 	ldr	r2, [fp, #-12]
d002144c:	e51b3024 	ldr	r3, [fp, #-36]	; 0x24
d0021450:	e1520003 	cmp	r2, r3
d0021454:	9affffe3 	bls	d00213e8 <draw_line+0x84>
d0021458:	e51b3010 	ldr	r3, [fp, #-16]
d002145c:	e2833001 	add	r3, r3, #1
d0021460:	e50b3010 	str	r3, [fp, #-16]
d0021464:	e51b2010 	ldr	r2, [fp, #-16]
d0021468:	e51b3020 	ldr	r3, [fp, #-32]
d002146c:	e1520003 	cmp	r2, r3
d0021470:	9affffd9 	bls	d00213dc <draw_line+0x78>
d0021474:	ea000028 	b	d002151c <draw_line+0x1b8>
d0021478:	e51b3018 	ldr	r3, [fp, #-24]
d002147c:	e50b3010 	str	r3, [fp, #-16]
d0021480:	ea000021 	b	d002150c <draw_line+0x1a8>
d0021484:	e51b301c 	ldr	r3, [fp, #-28]
d0021488:	e50b300c 	str	r3, [fp, #-12]
d002148c:	ea000017 	b	d00214f0 <draw_line+0x18c>
d0021490:	e51b3010 	ldr	r3, [fp, #-16]
d0021494:	e51b2018 	ldr	r2, [fp, #-24]
d0021498:	e0633002 	rsb	r3, r3, r2
d002149c:	e51b200c 	ldr	r2, [fp, #-12]
d00214a0:	e51b1024 	ldr	r1, [fp, #-36]	; 0x24
d00214a4:	e0622001 	rsb	r2, r2, r1
d00214a8:	e0020293 	mul	r2, r3, r2
d00214ac:	e51b300c 	ldr	r3, [fp, #-12]
d00214b0:	e51b101c 	ldr	r1, [fp, #-28]
d00214b4:	e0633001 	rsb	r3, r3, r1
d00214b8:	e51b1010 	ldr	r1, [fp, #-16]
d00214bc:	e51b0020 	ldr	r0, [fp, #-32]
d00214c0:	e0611000 	rsb	r1, r1, r0
d00214c4:	e0030391 	mul	r3, r1, r3
d00214c8:	e1520003 	cmp	r2, r3
d00214cc:	1a000004 	bne	d00214e4 <draw_line+0x180>
d00214d0:	e59b3004 	ldr	r3, [fp, #4]
d00214d4:	e51b0010 	ldr	r0, [fp, #-16]
d00214d8:	e51b100c 	ldr	r1, [fp, #-12]
d00214dc:	e1a02003 	mov	r2, r3
d00214e0:	ebfffcf0 	bl	d00208a8 <lcd_draw_pixel>
d00214e4:	e51b300c 	ldr	r3, [fp, #-12]
d00214e8:	e2433001 	sub	r3, r3, #1
d00214ec:	e50b300c 	str	r3, [fp, #-12]
d00214f0:	e51b200c 	ldr	r2, [fp, #-12]
d00214f4:	e51b3024 	ldr	r3, [fp, #-36]	; 0x24
d00214f8:	e1520003 	cmp	r2, r3
d00214fc:	2affffe3 	bcs	d0021490 <draw_line+0x12c>
d0021500:	e51b3010 	ldr	r3, [fp, #-16]
d0021504:	e2833001 	add	r3, r3, #1
d0021508:	e50b3010 	str	r3, [fp, #-16]
d002150c:	e51b2010 	ldr	r2, [fp, #-16]
d0021510:	e51b3020 	ldr	r3, [fp, #-32]
d0021514:	e1520003 	cmp	r2, r3
d0021518:	9affffd9 	bls	d0021484 <draw_line+0x120>
d002151c:	e24bd004 	sub	sp, fp, #4
d0021520:	e8bd8800 	pop	{fp, pc}

d0021524 <glib_line>:
d0021524:	e92d4800 	push	{fp, lr}
d0021528:	e28db004 	add	fp, sp, #4
d002152c:	e24dd020 	sub	sp, sp, #32
d0021530:	e50b0018 	str	r0, [fp, #-24]
d0021534:	e50b101c 	str	r1, [fp, #-28]
d0021538:	e50b2020 	str	r2, [fp, #-32]
d002153c:	e50b3024 	str	r3, [fp, #-36]	; 0x24
d0021540:	e51b2020 	ldr	r2, [fp, #-32]
d0021544:	e51b3018 	ldr	r3, [fp, #-24]
d0021548:	e0633002 	rsb	r3, r3, r2
d002154c:	e50b3010 	str	r3, [fp, #-16]
d0021550:	e51b2024 	ldr	r2, [fp, #-36]	; 0x24
d0021554:	e51b301c 	ldr	r3, [fp, #-28]
d0021558:	e0633002 	rsb	r3, r3, r2
d002155c:	e50b300c 	str	r3, [fp, #-12]
d0021560:	e51b3010 	ldr	r3, [fp, #-16]
d0021564:	e3530000 	cmp	r3, #0
d0021568:	ba0000a1 	blt	d00217f4 <glib_line+0x2d0>
d002156c:	e51b300c 	ldr	r3, [fp, #-12]
d0021570:	e3530000 	cmp	r3, #0
d0021574:	ba00004d 	blt	d00216b0 <glib_line+0x18c>
d0021578:	e51b2010 	ldr	r2, [fp, #-16]
d002157c:	e51b300c 	ldr	r3, [fp, #-12]
d0021580:	e1520003 	cmp	r2, r3
d0021584:	ba000024 	blt	d002161c <glib_line+0xf8>
d0021588:	e51b3010 	ldr	r3, [fp, #-16]
d002158c:	e1a02fa3 	lsr	r2, r3, #31
d0021590:	e0823003 	add	r3, r2, r3
d0021594:	e1a030c3 	asr	r3, r3, #1
d0021598:	e51b200c 	ldr	r2, [fp, #-12]
d002159c:	e0633002 	rsb	r3, r3, r2
d00215a0:	e50b3008 	str	r3, [fp, #-8]
d00215a4:	ea000017 	b	d0021608 <glib_line+0xe4>
d00215a8:	e51b1018 	ldr	r1, [fp, #-24]
d00215ac:	e51b201c 	ldr	r2, [fp, #-28]
d00215b0:	e59b3004 	ldr	r3, [fp, #4]
d00215b4:	e1a00001 	mov	r0, r1
d00215b8:	e1a01002 	mov	r1, r2
d00215bc:	e1a02003 	mov	r2, r3
d00215c0:	ebfffcb8 	bl	d00208a8 <lcd_draw_pixel>
d00215c4:	e51b3008 	ldr	r3, [fp, #-8]
d00215c8:	e3530000 	cmp	r3, #0
d00215cc:	da000006 	ble	d00215ec <glib_line+0xc8>
d00215d0:	e51b301c 	ldr	r3, [fp, #-28]
d00215d4:	e2833001 	add	r3, r3, #1
d00215d8:	e50b301c 	str	r3, [fp, #-28]
d00215dc:	e51b2008 	ldr	r2, [fp, #-8]
d00215e0:	e51b3010 	ldr	r3, [fp, #-16]
d00215e4:	e0633002 	rsb	r3, r3, r2
d00215e8:	e50b3008 	str	r3, [fp, #-8]
d00215ec:	e51b3018 	ldr	r3, [fp, #-24]
d00215f0:	e2833001 	add	r3, r3, #1
d00215f4:	e50b3018 	str	r3, [fp, #-24]
d00215f8:	e51b2008 	ldr	r2, [fp, #-8]
d00215fc:	e51b300c 	ldr	r3, [fp, #-12]
d0021600:	e0823003 	add	r3, r2, r3
d0021604:	e50b3008 	str	r3, [fp, #-8]
d0021608:	e51b2018 	ldr	r2, [fp, #-24]
d002160c:	e51b3020 	ldr	r3, [fp, #-32]
d0021610:	e1520003 	cmp	r2, r3
d0021614:	9affffe3 	bls	d00215a8 <glib_line+0x84>
d0021618:	ea000119 	b	d0021a84 <glib_line+0x560>
d002161c:	e51b300c 	ldr	r3, [fp, #-12]
d0021620:	e1a02fa3 	lsr	r2, r3, #31
d0021624:	e0823003 	add	r3, r2, r3
d0021628:	e1a030c3 	asr	r3, r3, #1
d002162c:	e51b2010 	ldr	r2, [fp, #-16]
d0021630:	e0633002 	rsb	r3, r3, r2
d0021634:	e50b3008 	str	r3, [fp, #-8]
d0021638:	ea000017 	b	d002169c <glib_line+0x178>
d002163c:	e51b1018 	ldr	r1, [fp, #-24]
d0021640:	e51b201c 	ldr	r2, [fp, #-28]
d0021644:	e59b3004 	ldr	r3, [fp, #4]
d0021648:	e1a00001 	mov	r0, r1
d002164c:	e1a01002 	mov	r1, r2
d0021650:	e1a02003 	mov	r2, r3
d0021654:	ebfffc93 	bl	d00208a8 <lcd_draw_pixel>
d0021658:	e51b3008 	ldr	r3, [fp, #-8]
d002165c:	e3530000 	cmp	r3, #0
d0021660:	da000006 	ble	d0021680 <glib_line+0x15c>
d0021664:	e51b3018 	ldr	r3, [fp, #-24]
d0021668:	e2833001 	add	r3, r3, #1
d002166c:	e50b3018 	str	r3, [fp, #-24]
d0021670:	e51b2008 	ldr	r2, [fp, #-8]
d0021674:	e51b300c 	ldr	r3, [fp, #-12]
d0021678:	e0633002 	rsb	r3, r3, r2
d002167c:	e50b3008 	str	r3, [fp, #-8]
d0021680:	e51b301c 	ldr	r3, [fp, #-28]
d0021684:	e2833001 	add	r3, r3, #1
d0021688:	e50b301c 	str	r3, [fp, #-28]
d002168c:	e51b2008 	ldr	r2, [fp, #-8]
d0021690:	e51b3010 	ldr	r3, [fp, #-16]
d0021694:	e0823003 	add	r3, r2, r3
d0021698:	e50b3008 	str	r3, [fp, #-8]
d002169c:	e51b201c 	ldr	r2, [fp, #-28]
d00216a0:	e51b3024 	ldr	r3, [fp, #-36]	; 0x24
d00216a4:	e1520003 	cmp	r2, r3
d00216a8:	9affffe3 	bls	d002163c <glib_line+0x118>
d00216ac:	ea0000f4 	b	d0021a84 <glib_line+0x560>
d00216b0:	e51b300c 	ldr	r3, [fp, #-12]
d00216b4:	e2633000 	rsb	r3, r3, #0
d00216b8:	e50b300c 	str	r3, [fp, #-12]
d00216bc:	e51b2010 	ldr	r2, [fp, #-16]
d00216c0:	e51b300c 	ldr	r3, [fp, #-12]
d00216c4:	e1520003 	cmp	r2, r3
d00216c8:	ba000024 	blt	d0021760 <glib_line+0x23c>
d00216cc:	e51b3010 	ldr	r3, [fp, #-16]
d00216d0:	e1a02fa3 	lsr	r2, r3, #31
d00216d4:	e0823003 	add	r3, r2, r3
d00216d8:	e1a030c3 	asr	r3, r3, #1
d00216dc:	e51b200c 	ldr	r2, [fp, #-12]
d00216e0:	e0633002 	rsb	r3, r3, r2
d00216e4:	e50b3008 	str	r3, [fp, #-8]
d00216e8:	ea000017 	b	d002174c <glib_line+0x228>
d00216ec:	e51b1018 	ldr	r1, [fp, #-24]
d00216f0:	e51b201c 	ldr	r2, [fp, #-28]
d00216f4:	e59b3004 	ldr	r3, [fp, #4]
d00216f8:	e1a00001 	mov	r0, r1
d00216fc:	e1a01002 	mov	r1, r2
d0021700:	e1a02003 	mov	r2, r3
d0021704:	ebfffc67 	bl	d00208a8 <lcd_draw_pixel>
d0021708:	e51b3008 	ldr	r3, [fp, #-8]
d002170c:	e3530000 	cmp	r3, #0
d0021710:	da000006 	ble	d0021730 <glib_line+0x20c>
d0021714:	e51b301c 	ldr	r3, [fp, #-28]
d0021718:	e2433001 	sub	r3, r3, #1
d002171c:	e50b301c 	str	r3, [fp, #-28]
d0021720:	e51b2008 	ldr	r2, [fp, #-8]
d0021724:	e51b3010 	ldr	r3, [fp, #-16]
d0021728:	e0633002 	rsb	r3, r3, r2
d002172c:	e50b3008 	str	r3, [fp, #-8]
d0021730:	e51b3018 	ldr	r3, [fp, #-24]
d0021734:	e2833001 	add	r3, r3, #1
d0021738:	e50b3018 	str	r3, [fp, #-24]
d002173c:	e51b2008 	ldr	r2, [fp, #-8]
d0021740:	e51b300c 	ldr	r3, [fp, #-12]
d0021744:	e0823003 	add	r3, r2, r3
d0021748:	e50b3008 	str	r3, [fp, #-8]
d002174c:	e51b2018 	ldr	r2, [fp, #-24]
d0021750:	e51b3020 	ldr	r3, [fp, #-32]
d0021754:	e1520003 	cmp	r2, r3
d0021758:	9affffe3 	bls	d00216ec <glib_line+0x1c8>
d002175c:	ea0000c8 	b	d0021a84 <glib_line+0x560>
d0021760:	e51b300c 	ldr	r3, [fp, #-12]
d0021764:	e1a02fa3 	lsr	r2, r3, #31
d0021768:	e0823003 	add	r3, r2, r3
d002176c:	e1a030c3 	asr	r3, r3, #1
d0021770:	e51b2010 	ldr	r2, [fp, #-16]
d0021774:	e0633002 	rsb	r3, r3, r2
d0021778:	e50b3008 	str	r3, [fp, #-8]
d002177c:	ea000017 	b	d00217e0 <glib_line+0x2bc>
d0021780:	e51b1018 	ldr	r1, [fp, #-24]
d0021784:	e51b201c 	ldr	r2, [fp, #-28]
d0021788:	e59b3004 	ldr	r3, [fp, #4]
d002178c:	e1a00001 	mov	r0, r1
d0021790:	e1a01002 	mov	r1, r2
d0021794:	e1a02003 	mov	r2, r3
d0021798:	ebfffc42 	bl	d00208a8 <lcd_draw_pixel>
d002179c:	e51b3008 	ldr	r3, [fp, #-8]
d00217a0:	e3530000 	cmp	r3, #0
d00217a4:	da000006 	ble	d00217c4 <glib_line+0x2a0>
d00217a8:	e51b3018 	ldr	r3, [fp, #-24]
d00217ac:	e2833001 	add	r3, r3, #1
d00217b0:	e50b3018 	str	r3, [fp, #-24]
d00217b4:	e51b2008 	ldr	r2, [fp, #-8]
d00217b8:	e51b300c 	ldr	r3, [fp, #-12]
d00217bc:	e0633002 	rsb	r3, r3, r2
d00217c0:	e50b3008 	str	r3, [fp, #-8]
d00217c4:	e51b301c 	ldr	r3, [fp, #-28]
d00217c8:	e2433001 	sub	r3, r3, #1
d00217cc:	e50b301c 	str	r3, [fp, #-28]
d00217d0:	e51b2008 	ldr	r2, [fp, #-8]
d00217d4:	e51b3010 	ldr	r3, [fp, #-16]
d00217d8:	e0823003 	add	r3, r2, r3
d00217dc:	e50b3008 	str	r3, [fp, #-8]
d00217e0:	e51b201c 	ldr	r2, [fp, #-28]
d00217e4:	e51b3024 	ldr	r3, [fp, #-36]	; 0x24
d00217e8:	e1520003 	cmp	r2, r3
d00217ec:	2affffe3 	bcs	d0021780 <glib_line+0x25c>
d00217f0:	ea0000a3 	b	d0021a84 <glib_line+0x560>
d00217f4:	e51b3010 	ldr	r3, [fp, #-16]
d00217f8:	e2633000 	rsb	r3, r3, #0
d00217fc:	e50b3010 	str	r3, [fp, #-16]
d0021800:	e51b300c 	ldr	r3, [fp, #-12]
d0021804:	e3530000 	cmp	r3, #0
d0021808:	ba00004d 	blt	d0021944 <glib_line+0x420>
d002180c:	e51b2010 	ldr	r2, [fp, #-16]
d0021810:	e51b300c 	ldr	r3, [fp, #-12]
d0021814:	e1520003 	cmp	r2, r3
d0021818:	ba000024 	blt	d00218b0 <glib_line+0x38c>
d002181c:	e51b3010 	ldr	r3, [fp, #-16]
d0021820:	e1a02fa3 	lsr	r2, r3, #31
d0021824:	e0823003 	add	r3, r2, r3
d0021828:	e1a030c3 	asr	r3, r3, #1
d002182c:	e51b200c 	ldr	r2, [fp, #-12]
d0021830:	e0633002 	rsb	r3, r3, r2
d0021834:	e50b3008 	str	r3, [fp, #-8]
d0021838:	ea000017 	b	d002189c <glib_line+0x378>
d002183c:	e51b1018 	ldr	r1, [fp, #-24]
d0021840:	e51b201c 	ldr	r2, [fp, #-28]
d0021844:	e59b3004 	ldr	r3, [fp, #4]
d0021848:	e1a00001 	mov	r0, r1
d002184c:	e1a01002 	mov	r1, r2
d0021850:	e1a02003 	mov	r2, r3
d0021854:	ebfffc13 	bl	d00208a8 <lcd_draw_pixel>
d0021858:	e51b3008 	ldr	r3, [fp, #-8]
d002185c:	e3530000 	cmp	r3, #0
d0021860:	da000006 	ble	d0021880 <glib_line+0x35c>
d0021864:	e51b301c 	ldr	r3, [fp, #-28]
d0021868:	e2833001 	add	r3, r3, #1
d002186c:	e50b301c 	str	r3, [fp, #-28]
d0021870:	e51b2008 	ldr	r2, [fp, #-8]
d0021874:	e51b3010 	ldr	r3, [fp, #-16]
d0021878:	e0633002 	rsb	r3, r3, r2
d002187c:	e50b3008 	str	r3, [fp, #-8]
d0021880:	e51b3018 	ldr	r3, [fp, #-24]
d0021884:	e2433001 	sub	r3, r3, #1
d0021888:	e50b3018 	str	r3, [fp, #-24]
d002188c:	e51b2008 	ldr	r2, [fp, #-8]
d0021890:	e51b300c 	ldr	r3, [fp, #-12]
d0021894:	e0823003 	add	r3, r2, r3
d0021898:	e50b3008 	str	r3, [fp, #-8]
d002189c:	e51b2018 	ldr	r2, [fp, #-24]
d00218a0:	e51b3020 	ldr	r3, [fp, #-32]
d00218a4:	e1520003 	cmp	r2, r3
d00218a8:	2affffe3 	bcs	d002183c <glib_line+0x318>
d00218ac:	ea000074 	b	d0021a84 <glib_line+0x560>
d00218b0:	e51b300c 	ldr	r3, [fp, #-12]
d00218b4:	e1a02fa3 	lsr	r2, r3, #31
d00218b8:	e0823003 	add	r3, r2, r3
d00218bc:	e1a030c3 	asr	r3, r3, #1
d00218c0:	e51b2010 	ldr	r2, [fp, #-16]
d00218c4:	e0633002 	rsb	r3, r3, r2
d00218c8:	e50b3008 	str	r3, [fp, #-8]
d00218cc:	ea000017 	b	d0021930 <glib_line+0x40c>
d00218d0:	e51b1018 	ldr	r1, [fp, #-24]
d00218d4:	e51b201c 	ldr	r2, [fp, #-28]
d00218d8:	e59b3004 	ldr	r3, [fp, #4]
d00218dc:	e1a00001 	mov	r0, r1
d00218e0:	e1a01002 	mov	r1, r2
d00218e4:	e1a02003 	mov	r2, r3
d00218e8:	ebfffbee 	bl	d00208a8 <lcd_draw_pixel>
d00218ec:	e51b3008 	ldr	r3, [fp, #-8]
d00218f0:	e3530000 	cmp	r3, #0
d00218f4:	da000006 	ble	d0021914 <glib_line+0x3f0>
d00218f8:	e51b3018 	ldr	r3, [fp, #-24]
d00218fc:	e2433001 	sub	r3, r3, #1
d0021900:	e50b3018 	str	r3, [fp, #-24]
d0021904:	e51b2008 	ldr	r2, [fp, #-8]
d0021908:	e51b300c 	ldr	r3, [fp, #-12]
d002190c:	e0633002 	rsb	r3, r3, r2
d0021910:	e50b3008 	str	r3, [fp, #-8]
d0021914:	e51b301c 	ldr	r3, [fp, #-28]
d0021918:	e2833001 	add	r3, r3, #1
d002191c:	e50b301c 	str	r3, [fp, #-28]
d0021920:	e51b2008 	ldr	r2, [fp, #-8]
d0021924:	e51b3010 	ldr	r3, [fp, #-16]
d0021928:	e0823003 	add	r3, r2, r3
d002192c:	e50b3008 	str	r3, [fp, #-8]
d0021930:	e51b201c 	ldr	r2, [fp, #-28]
d0021934:	e51b3024 	ldr	r3, [fp, #-36]	; 0x24
d0021938:	e1520003 	cmp	r2, r3
d002193c:	9affffe3 	bls	d00218d0 <glib_line+0x3ac>
d0021940:	ea00004f 	b	d0021a84 <glib_line+0x560>
d0021944:	e51b300c 	ldr	r3, [fp, #-12]
d0021948:	e2633000 	rsb	r3, r3, #0
d002194c:	e50b300c 	str	r3, [fp, #-12]
d0021950:	e51b2010 	ldr	r2, [fp, #-16]
d0021954:	e51b300c 	ldr	r3, [fp, #-12]
d0021958:	e1520003 	cmp	r2, r3
d002195c:	ba000024 	blt	d00219f4 <glib_line+0x4d0>
d0021960:	e51b3010 	ldr	r3, [fp, #-16]
d0021964:	e1a02fa3 	lsr	r2, r3, #31
d0021968:	e0823003 	add	r3, r2, r3
d002196c:	e1a030c3 	asr	r3, r3, #1
d0021970:	e51b200c 	ldr	r2, [fp, #-12]
d0021974:	e0633002 	rsb	r3, r3, r2
d0021978:	e50b3008 	str	r3, [fp, #-8]
d002197c:	ea000017 	b	d00219e0 <glib_line+0x4bc>
d0021980:	e51b1018 	ldr	r1, [fp, #-24]
d0021984:	e51b201c 	ldr	r2, [fp, #-28]
d0021988:	e59b3004 	ldr	r3, [fp, #4]
d002198c:	e1a00001 	mov	r0, r1
d0021990:	e1a01002 	mov	r1, r2
d0021994:	e1a02003 	mov	r2, r3
d0021998:	ebfffbc2 	bl	d00208a8 <lcd_draw_pixel>
d002199c:	e51b3008 	ldr	r3, [fp, #-8]
d00219a0:	e3530000 	cmp	r3, #0
d00219a4:	da000006 	ble	d00219c4 <glib_line+0x4a0>
d00219a8:	e51b301c 	ldr	r3, [fp, #-28]
d00219ac:	e2433001 	sub	r3, r3, #1
d00219b0:	e50b301c 	str	r3, [fp, #-28]
d00219b4:	e51b2008 	ldr	r2, [fp, #-8]
d00219b8:	e51b3010 	ldr	r3, [fp, #-16]
d00219bc:	e0633002 	rsb	r3, r3, r2
d00219c0:	e50b3008 	str	r3, [fp, #-8]
d00219c4:	e51b3018 	ldr	r3, [fp, #-24]
d00219c8:	e2433001 	sub	r3, r3, #1
d00219cc:	e50b3018 	str	r3, [fp, #-24]
d00219d0:	e51b2008 	ldr	r2, [fp, #-8]
d00219d4:	e51b300c 	ldr	r3, [fp, #-12]
d00219d8:	e0823003 	add	r3, r2, r3
d00219dc:	e50b3008 	str	r3, [fp, #-8]
d00219e0:	e51b2018 	ldr	r2, [fp, #-24]
d00219e4:	e51b3020 	ldr	r3, [fp, #-32]
d00219e8:	e1520003 	cmp	r2, r3
d00219ec:	2affffe3 	bcs	d0021980 <glib_line+0x45c>
d00219f0:	ea000023 	b	d0021a84 <glib_line+0x560>
d00219f4:	e51b300c 	ldr	r3, [fp, #-12]
d00219f8:	e1a02fa3 	lsr	r2, r3, #31
d00219fc:	e0823003 	add	r3, r2, r3
d0021a00:	e1a030c3 	asr	r3, r3, #1
d0021a04:	e51b2010 	ldr	r2, [fp, #-16]
d0021a08:	e0633002 	rsb	r3, r3, r2
d0021a0c:	e50b3008 	str	r3, [fp, #-8]
d0021a10:	ea000017 	b	d0021a74 <glib_line+0x550>
d0021a14:	e51b1018 	ldr	r1, [fp, #-24]
d0021a18:	e51b201c 	ldr	r2, [fp, #-28]
d0021a1c:	e59b3004 	ldr	r3, [fp, #4]
d0021a20:	e1a00001 	mov	r0, r1
d0021a24:	e1a01002 	mov	r1, r2
d0021a28:	e1a02003 	mov	r2, r3
d0021a2c:	ebfffb9d 	bl	d00208a8 <lcd_draw_pixel>
d0021a30:	e51b3008 	ldr	r3, [fp, #-8]
d0021a34:	e3530000 	cmp	r3, #0
d0021a38:	da000006 	ble	d0021a58 <glib_line+0x534>
d0021a3c:	e51b3018 	ldr	r3, [fp, #-24]
d0021a40:	e2433001 	sub	r3, r3, #1
d0021a44:	e50b3018 	str	r3, [fp, #-24]
d0021a48:	e51b2008 	ldr	r2, [fp, #-8]
d0021a4c:	e51b300c 	ldr	r3, [fp, #-12]
d0021a50:	e0633002 	rsb	r3, r3, r2
d0021a54:	e50b3008 	str	r3, [fp, #-8]
d0021a58:	e51b301c 	ldr	r3, [fp, #-28]
d0021a5c:	e2433001 	sub	r3, r3, #1
d0021a60:	e50b301c 	str	r3, [fp, #-28]
d0021a64:	e51b2008 	ldr	r2, [fp, #-8]
d0021a68:	e51b3010 	ldr	r3, [fp, #-16]
d0021a6c:	e0823003 	add	r3, r2, r3
d0021a70:	e50b3008 	str	r3, [fp, #-8]
d0021a74:	e51b201c 	ldr	r2, [fp, #-28]
d0021a78:	e51b3024 	ldr	r3, [fp, #-36]	; 0x24
d0021a7c:	e1520003 	cmp	r2, r3
d0021a80:	2affffe3 	bcs	d0021a14 <glib_line+0x4f0>
d0021a84:	e24bd004 	sub	sp, fp, #4
d0021a88:	e8bd8800 	pop	{fp, pc}

d0021a8c <draw_triangle>:
d0021a8c:	e92d4800 	push	{fp, lr}
d0021a90:	e28db004 	add	fp, sp, #4
d0021a94:	e24dd018 	sub	sp, sp, #24
d0021a98:	e50b0010 	str	r0, [fp, #-16]
d0021a9c:	e50b1014 	str	r1, [fp, #-20]
d0021aa0:	e50b2018 	str	r2, [fp, #-24]
d0021aa4:	e50b301c 	str	r3, [fp, #-28]
d0021aa8:	e3a03000 	mov	r3, #0
d0021aac:	e50b300c 	str	r3, [fp, #-12]
d0021ab0:	ea000050 	b	d0021bf8 <draw_triangle+0x16c>
d0021ab4:	e3a03000 	mov	r3, #0
d0021ab8:	e50b3008 	str	r3, [fp, #-8]
d0021abc:	ea000047 	b	d0021be0 <draw_triangle+0x154>
d0021ac0:	e51b2018 	ldr	r2, [fp, #-24]
d0021ac4:	e51b3010 	ldr	r3, [fp, #-16]
d0021ac8:	e0633002 	rsb	r3, r3, r2
d0021acc:	e51b1008 	ldr	r1, [fp, #-8]
d0021ad0:	e51b2014 	ldr	r2, [fp, #-20]
d0021ad4:	e0622001 	rsb	r2, r2, r1
d0021ad8:	e0020293 	mul	r2, r3, r2
d0021adc:	e51b101c 	ldr	r1, [fp, #-28]
d0021ae0:	e51b3014 	ldr	r3, [fp, #-20]
d0021ae4:	e0633001 	rsb	r3, r3, r1
d0021ae8:	e51b0010 	ldr	r0, [fp, #-16]
d0021aec:	e51b100c 	ldr	r1, [fp, #-12]
d0021af0:	e0611000 	rsb	r1, r1, r0
d0021af4:	e0030391 	mul	r3, r1, r3
d0021af8:	e0822003 	add	r2, r2, r3
d0021afc:	e59b1004 	ldr	r1, [fp, #4]
d0021b00:	e51b3018 	ldr	r3, [fp, #-24]
d0021b04:	e0633001 	rsb	r3, r3, r1
d0021b08:	e51b0008 	ldr	r0, [fp, #-8]
d0021b0c:	e51b101c 	ldr	r1, [fp, #-28]
d0021b10:	e0611000 	rsb	r1, r1, r0
d0021b14:	e0010193 	mul	r1, r3, r1
d0021b18:	e59b0008 	ldr	r0, [fp, #8]
d0021b1c:	e51b301c 	ldr	r3, [fp, #-28]
d0021b20:	e0633000 	rsb	r3, r3, r0
d0021b24:	e51bc018 	ldr	ip, [fp, #-24]
d0021b28:	e51b000c 	ldr	r0, [fp, #-12]
d0021b2c:	e060000c 	rsb	r0, r0, ip
d0021b30:	e0030390 	mul	r3, r0, r3
d0021b34:	e0813003 	add	r3, r1, r3
d0021b38:	e0822003 	add	r2, r2, r3
d0021b3c:	e59b1004 	ldr	r1, [fp, #4]
d0021b40:	e51b3010 	ldr	r3, [fp, #-16]
d0021b44:	e0633001 	rsb	r3, r3, r1
d0021b48:	e51b0008 	ldr	r0, [fp, #-8]
d0021b4c:	e51b1014 	ldr	r1, [fp, #-20]
d0021b50:	e0611000 	rsb	r1, r1, r0
d0021b54:	e0010193 	mul	r1, r3, r1
d0021b58:	e59b0008 	ldr	r0, [fp, #8]
d0021b5c:	e51b3014 	ldr	r3, [fp, #-20]
d0021b60:	e0633000 	rsb	r3, r3, r0
d0021b64:	e51bc010 	ldr	ip, [fp, #-16]
d0021b68:	e51b000c 	ldr	r0, [fp, #-12]
d0021b6c:	e060000c 	rsb	r0, r0, ip
d0021b70:	e0030390 	mul	r3, r0, r3
d0021b74:	e0813003 	add	r3, r1, r3
d0021b78:	e0822003 	add	r2, r2, r3
d0021b7c:	e51b1018 	ldr	r1, [fp, #-24]
d0021b80:	e51b3010 	ldr	r3, [fp, #-16]
d0021b84:	e0633001 	rsb	r3, r3, r1
d0021b88:	e59b0008 	ldr	r0, [fp, #8]
d0021b8c:	e51b1014 	ldr	r1, [fp, #-20]
d0021b90:	e0611000 	rsb	r1, r1, r0
d0021b94:	e0010193 	mul	r1, r3, r1
d0021b98:	e51b001c 	ldr	r0, [fp, #-28]
d0021b9c:	e51b3014 	ldr	r3, [fp, #-20]
d0021ba0:	e0633000 	rsb	r3, r3, r0
d0021ba4:	e51bc010 	ldr	ip, [fp, #-16]
d0021ba8:	e59b0004 	ldr	r0, [fp, #4]
d0021bac:	e060000c 	rsb	r0, r0, ip
d0021bb0:	e0030390 	mul	r3, r0, r3
d0021bb4:	e0813003 	add	r3, r1, r3
d0021bb8:	e1520003 	cmp	r2, r3
d0021bbc:	ca000004 	bgt	d0021bd4 <draw_triangle+0x148>
d0021bc0:	e59b300c 	ldr	r3, [fp, #12]
d0021bc4:	e51b000c 	ldr	r0, [fp, #-12]
d0021bc8:	e51b1008 	ldr	r1, [fp, #-8]
d0021bcc:	e1a02003 	mov	r2, r3
d0021bd0:	ebfffb34 	bl	d00208a8 <lcd_draw_pixel>
d0021bd4:	e51b3008 	ldr	r3, [fp, #-8]
d0021bd8:	e2833001 	add	r3, r3, #1
d0021bdc:	e50b3008 	str	r3, [fp, #-8]
d0021be0:	e51b3008 	ldr	r3, [fp, #-8]
d0021be4:	e3530f96 	cmp	r3, #600	; 0x258
d0021be8:	daffffb4 	ble	d0021ac0 <draw_triangle+0x34>
d0021bec:	e51b300c 	ldr	r3, [fp, #-12]
d0021bf0:	e2833001 	add	r3, r3, #1
d0021bf4:	e50b300c 	str	r3, [fp, #-12]
d0021bf8:	e51b300c 	ldr	r3, [fp, #-12]
d0021bfc:	e3530b01 	cmp	r3, #1024	; 0x400
d0021c00:	daffffab 	ble	d0021ab4 <draw_triangle+0x28>
d0021c04:	e24bd004 	sub	sp, fp, #4
d0021c08:	e8bd8800 	pop	{fp, pc}

d0021c0c <lcd_test>:
d0021c0c:	e92d4800 	push	{fp, lr}
d0021c10:	e28db004 	add	fp, sp, #4
d0021c14:	e24dd010 	sub	sp, sp, #16
d0021c18:	e3a03000 	mov	r3, #0
d0021c1c:	e50b300c 	str	r3, [fp, #-12]
d0021c20:	ebfffaa5 	bl	d00206bc <lcd_init>
d0021c24:	e3a00000 	mov	r0, #0
d0021c28:	ebfffb33 	bl	d00208fc <lcd_draw_background>
d0021c2c:	e3a03000 	mov	r3, #0
d0021c30:	e50b3008 	str	r3, [fp, #-8]
d0021c34:	ea000010 	b	d0021c7c <lcd_test+0x70>
d0021c38:	e1a00000 	nop			; (mov r0, r0)
d0021c3c:	ea00000e 	b	d0021c7c <lcd_test+0x70>
d0021c40:	e1a00000 	nop			; (mov r0, r0)
d0021c44:	ea00000c 	b	d0021c7c <lcd_test+0x70>
d0021c48:	e1a00000 	nop			; (mov r0, r0)
d0021c4c:	ea00000a 	b	d0021c7c <lcd_test+0x70>
d0021c50:	e1a00000 	nop			; (mov r0, r0)
d0021c54:	ea000008 	b	d0021c7c <lcd_test+0x70>
d0021c58:	e1a00000 	nop			; (mov r0, r0)
d0021c5c:	ea000006 	b	d0021c7c <lcd_test+0x70>
d0021c60:	e1a00000 	nop			; (mov r0, r0)
d0021c64:	ea000004 	b	d0021c7c <lcd_test+0x70>
d0021c68:	e1a00000 	nop			; (mov r0, r0)
d0021c6c:	ea000002 	b	d0021c7c <lcd_test+0x70>
d0021c70:	e1a00000 	nop			; (mov r0, r0)
d0021c74:	ea000000 	b	d0021c7c <lcd_test+0x70>
d0021c78:	e1a00000 	nop			; (mov r0, r0)
d0021c7c:	e59f34a8 	ldr	r3, [pc, #1192]	; d002212c <lcd_test+0x520>
d0021c80:	e5933000 	ldr	r3, [r3]
d0021c84:	e2033004 	and	r3, r3, #4
d0021c88:	e3530000 	cmp	r3, #0
d0021c8c:	1a000014 	bne	d0021ce4 <lcd_test+0xd8>
d0021c90:	ebfffa6f 	bl	d0020654 <delay20ms>
d0021c94:	e59f3490 	ldr	r3, [pc, #1168]	; d002212c <lcd_test+0x520>
d0021c98:	e5933000 	ldr	r3, [r3]
d0021c9c:	e2033004 	and	r3, r3, #4
d0021ca0:	e3530000 	cmp	r3, #0
d0021ca4:	1affffe3 	bne	d0021c38 <lcd_test+0x2c>
d0021ca8:	e51b300c 	ldr	r3, [fp, #-12]
d0021cac:	e3530001 	cmp	r3, #1
d0021cb0:	1affffe2 	bne	d0021c40 <lcd_test+0x34>
d0021cb4:	e3e004ff 	mvn	r0, #-16777216	; 0xff000000
d0021cb8:	ebfffb0f 	bl	d00208fc <lcd_draw_background>
d0021cbc:	e59f346c 	ldr	r3, [pc, #1132]	; d0022130 <lcd_test+0x524>
d0021cc0:	e58d3000 	str	r3, [sp]
d0021cc4:	e3a00e12 	mov	r0, #288	; 0x120
d0021cc8:	e3a010a4 	mov	r1, #164	; 0xa4
d0021ccc:	e3a02d07 	mov	r2, #448	; 0x1c0
d0021cd0:	e3a03e11 	mov	r3, #272	; 0x110
d0021cd4:	ebfffc6d 	bl	d0020e90 <lcd_draw_pictures>
d0021cd8:	e3a03001 	mov	r3, #1
d0021cdc:	e50b3008 	str	r3, [fp, #-8]
d0021ce0:	eaffffe5 	b	d0021c7c <lcd_test+0x70>
d0021ce4:	e59f3448 	ldr	r3, [pc, #1096]	; d0022134 <lcd_test+0x528>
d0021ce8:	e5933000 	ldr	r3, [r3]
d0021cec:	e2033002 	and	r3, r3, #2
d0021cf0:	e3530000 	cmp	r3, #0
d0021cf4:	1a000054 	bne	d0021e4c <lcd_test+0x240>
d0021cf8:	ebfffa55 	bl	d0020654 <delay20ms>
d0021cfc:	e59f3430 	ldr	r3, [pc, #1072]	; d0022134 <lcd_test+0x528>
d0021d00:	e5933000 	ldr	r3, [r3]
d0021d04:	e2033002 	and	r3, r3, #2
d0021d08:	e3530000 	cmp	r3, #0
d0021d0c:	1affffcd 	bne	d0021c48 <lcd_test+0x3c>
d0021d10:	e51b300c 	ldr	r3, [fp, #-12]
d0021d14:	e3530001 	cmp	r3, #1
d0021d18:	1a000048 	bne	d0021e40 <lcd_test+0x234>
d0021d1c:	e3e004ff 	mvn	r0, #-16777216	; 0xff000000
d0021d20:	ebfffaf5 	bl	d00208fc <lcd_draw_background>
d0021d24:	ebfffa26 	bl	d00205c4 <delay>
d0021d28:	e3a030ff 	mov	r3, #255	; 0xff
d0021d2c:	e58d3000 	str	r3, [sp]
d0021d30:	e3a00faf 	mov	r0, #700	; 0x2bc
d0021d34:	e3a010c8 	mov	r1, #200	; 0xc8
d0021d38:	e3a02ffa 	mov	r2, #1000	; 0x3e8
d0021d3c:	e3a03e19 	mov	r3, #400	; 0x190
d0021d40:	ebfffd37 	bl	d0021224 <draw_rectangle>
d0021d44:	ebfffa1e 	bl	d00205c4 <delay>
d0021d48:	e3a030ff 	mov	r3, #255	; 0xff
d0021d4c:	e58d3000 	str	r3, [sp]
d0021d50:	e3a00e19 	mov	r0, #400	; 0x190
d0021d54:	e3a01e19 	mov	r1, #400	; 0x190
d0021d58:	e3a02f7d 	mov	r2, #500	; 0x1f4
d0021d5c:	e3a030c8 	mov	r3, #200	; 0xc8
d0021d60:	ebfffd7f 	bl	d0021364 <draw_line>
d0021d64:	e3a030ff 	mov	r3, #255	; 0xff
d0021d68:	e58d3000 	str	r3, [sp]
d0021d6c:	e3a00f96 	mov	r0, #600	; 0x258
d0021d70:	e3a01e19 	mov	r1, #400	; 0x190
d0021d74:	e3a02f7d 	mov	r2, #500	; 0x1f4
d0021d78:	e3a030c8 	mov	r3, #200	; 0xc8
d0021d7c:	ebfffd78 	bl	d0021364 <draw_line>
d0021d80:	e3a030ff 	mov	r3, #255	; 0xff
d0021d84:	e58d3000 	str	r3, [sp]
d0021d88:	e3a00f96 	mov	r0, #600	; 0x258
d0021d8c:	e3a01e19 	mov	r1, #400	; 0x190
d0021d90:	e3a02e19 	mov	r2, #400	; 0x190
d0021d94:	e3a03e19 	mov	r3, #400	; 0x190
d0021d98:	ebfffd71 	bl	d0021364 <draw_line>
d0021d9c:	e3a030ff 	mov	r3, #255	; 0xff
d0021da0:	e58d3000 	str	r3, [sp]
d0021da4:	e3a00000 	mov	r0, #0
d0021da8:	e3a010f5 	mov	r1, #245	; 0xf5
d0021dac:	e3a02f41 	mov	r2, #260	; 0x104
d0021db0:	e3a030f5 	mov	r3, #245	; 0xf5
d0021db4:	ebfffdda 	bl	d0021524 <glib_line>
d0021db8:	e3a030ff 	mov	r3, #255	; 0xff
d0021dbc:	e58d3000 	str	r3, [sp]
d0021dc0:	e3a00082 	mov	r0, #130	; 0x82
d0021dc4:	e3a01096 	mov	r1, #150	; 0x96
d0021dc8:	e3a020d2 	mov	r2, #210	; 0xd2
d0021dcc:	e59f3364 	ldr	r3, [pc, #868]	; d0022138 <lcd_test+0x52c>
d0021dd0:	ebfffdd3 	bl	d0021524 <glib_line>
d0021dd4:	e3a030ff 	mov	r3, #255	; 0xff
d0021dd8:	e58d3000 	str	r3, [sp]
d0021ddc:	e3a00032 	mov	r0, #50	; 0x32
d0021de0:	e59f1350 	ldr	r1, [pc, #848]	; d0022138 <lcd_test+0x52c>
d0021de4:	e3a02f41 	mov	r2, #260	; 0x104
d0021de8:	e3a030f5 	mov	r3, #245	; 0xf5
d0021dec:	ebfffdcc 	bl	d0021524 <glib_line>
d0021df0:	e3a030ff 	mov	r3, #255	; 0xff
d0021df4:	e58d3000 	str	r3, [sp]
d0021df8:	e3a00000 	mov	r0, #0
d0021dfc:	e3a010f5 	mov	r1, #245	; 0xf5
d0021e00:	e3a020d2 	mov	r2, #210	; 0xd2
d0021e04:	e59f332c 	ldr	r3, [pc, #812]	; d0022138 <lcd_test+0x52c>
d0021e08:	ebfffdc5 	bl	d0021524 <glib_line>
d0021e0c:	e3a030ff 	mov	r3, #255	; 0xff
d0021e10:	e58d3000 	str	r3, [sp]
d0021e14:	e3a00032 	mov	r0, #50	; 0x32
d0021e18:	e59f1318 	ldr	r1, [pc, #792]	; d0022138 <lcd_test+0x52c>
d0021e1c:	e3a02082 	mov	r2, #130	; 0x82
d0021e20:	e3a03096 	mov	r3, #150	; 0x96
d0021e24:	ebfffdbe 	bl	d0021524 <glib_line>
d0021e28:	ebfff9e5 	bl	d00205c4 <delay>
d0021e2c:	e59f0308 	ldr	r0, [pc, #776]	; d002213c <lcd_test+0x530>
d0021e30:	e3a010ef 	mov	r1, #239	; 0xef
d0021e34:	e3a02032 	mov	r2, #50	; 0x32
d0021e38:	e3a030ff 	mov	r3, #255	; 0xff
d0021e3c:	ebfffba9 	bl	d0020ce8 <draw_circular>
d0021e40:	e3a03000 	mov	r3, #0
d0021e44:	e50b300c 	str	r3, [fp, #-12]
d0021e48:	eaffff8b 	b	d0021c7c <lcd_test+0x70>
d0021e4c:	e59f32d8 	ldr	r3, [pc, #728]	; d002212c <lcd_test+0x520>
d0021e50:	e5933000 	ldr	r3, [r3]
d0021e54:	e2033008 	and	r3, r3, #8
d0021e58:	e3530000 	cmp	r3, #0
d0021e5c:	1a000042 	bne	d0021f6c <lcd_test+0x360>
d0021e60:	ebfff9fb 	bl	d0020654 <delay20ms>
d0021e64:	e59f32c0 	ldr	r3, [pc, #704]	; d002212c <lcd_test+0x520>
d0021e68:	e5933000 	ldr	r3, [r3]
d0021e6c:	e2033008 	and	r3, r3, #8
d0021e70:	e3530000 	cmp	r3, #0
d0021e74:	1affff75 	bne	d0021c50 <lcd_test+0x44>
d0021e78:	e51b300c 	ldr	r3, [fp, #-12]
d0021e7c:	e3530001 	cmp	r3, #1
d0021e80:	1affff74 	bne	d0021c58 <lcd_test+0x4c>
d0021e84:	e51b3008 	ldr	r3, [fp, #-8]
d0021e88:	e3530001 	cmp	r3, #1
d0021e8c:	0a000003 	beq	d0021ea0 <lcd_test+0x294>
d0021e90:	e3e004ff 	mvn	r0, #-16777216	; 0xff000000
d0021e94:	ebfffa98 	bl	d00208fc <lcd_draw_background>
d0021e98:	e3a03000 	mov	r3, #0
d0021e9c:	e50b3008 	str	r3, [fp, #-8]
d0021ea0:	e3a00e16 	mov	r0, #352	; 0x160
d0021ea4:	e3a01096 	mov	r1, #150	; 0x96
d0021ea8:	e3a028ff 	mov	r2, #16711680	; 0xff0000
d0021eac:	e59f328c 	ldr	r3, [pc, #652]	; d0022140 <lcd_test+0x534>
d0021eb0:	ebfffbc4 	bl	d0020dc8 <draw_ascii_ok32>
d0021eb4:	e3a00e12 	mov	r0, #288	; 0x120
d0021eb8:	e59f1284 	ldr	r1, [pc, #644]	; d0022144 <lcd_test+0x538>
d0021ebc:	e3a020ff 	mov	r2, #255	; 0xff
d0021ec0:	e59f3280 	ldr	r3, [pc, #640]	; d0022148 <lcd_test+0x53c>
d0021ec4:	ebfffc72 	bl	d0021094 <draw_ascii_ok16>
d0021ec8:	e3a00e12 	mov	r0, #288	; 0x120
d0021ecc:	e3a01e1e 	mov	r1, #480	; 0x1e0
d0021ed0:	e3a020ff 	mov	r2, #255	; 0xff
d0021ed4:	e59f3270 	ldr	r3, [pc, #624]	; d002214c <lcd_test+0x540>
d0021ed8:	ebfffc9f 	bl	d002115c <draw_ascii_ok8>
d0021edc:	e3a00e12 	mov	r0, #288	; 0x120
d0021ee0:	e3a01f7d 	mov	r1, #500	; 0x1f4
d0021ee4:	e3a020ff 	mov	r2, #255	; 0xff
d0021ee8:	e59f3260 	ldr	r3, [pc, #608]	; d0022150 <lcd_test+0x544>
d0021eec:	ebfffc9a 	bl	d002115c <draw_ascii_ok8>
d0021ef0:	e3a00e23 	mov	r0, #560	; 0x230
d0021ef4:	e59f1248 	ldr	r1, [pc, #584]	; d0022144 <lcd_test+0x538>
d0021ef8:	e59f2254 	ldr	r2, [pc, #596]	; d0022154 <lcd_test+0x548>
d0021efc:	e59f3254 	ldr	r3, [pc, #596]	; d0022158 <lcd_test+0x54c>
d0021f00:	ebfffc63 	bl	d0021094 <draw_ascii_ok16>
d0021f04:	e3a00e23 	mov	r0, #560	; 0x230
d0021f08:	e3a01e1e 	mov	r1, #480	; 0x1e0
d0021f0c:	e3a020ff 	mov	r2, #255	; 0xff
d0021f10:	e59f3244 	ldr	r3, [pc, #580]	; d002215c <lcd_test+0x550>
d0021f14:	ebfffc90 	bl	d002115c <draw_ascii_ok8>
d0021f18:	e3a00e23 	mov	r0, #560	; 0x230
d0021f1c:	e3a01f7d 	mov	r1, #500	; 0x1f4
d0021f20:	e3a020ff 	mov	r2, #255	; 0xff
d0021f24:	e59f3234 	ldr	r3, [pc, #564]	; d0022160 <lcd_test+0x554>
d0021f28:	ebfffc8b 	bl	d002115c <draw_ascii_ok8>
d0021f2c:	e3a00f69 	mov	r0, #420	; 0x1a4
d0021f30:	e59f120c 	ldr	r1, [pc, #524]	; d0022144 <lcd_test+0x538>
d0021f34:	e3a020ff 	mov	r2, #255	; 0xff
d0021f38:	e59f3224 	ldr	r3, [pc, #548]	; d0022164 <lcd_test+0x558>
d0021f3c:	ebfffc54 	bl	d0021094 <draw_ascii_ok16>
d0021f40:	e3a00f69 	mov	r0, #420	; 0x1a4
d0021f44:	e3a01e1e 	mov	r1, #480	; 0x1e0
d0021f48:	e3a020ff 	mov	r2, #255	; 0xff
d0021f4c:	e59f3214 	ldr	r3, [pc, #532]	; d0022168 <lcd_test+0x55c>
d0021f50:	ebfffc81 	bl	d002115c <draw_ascii_ok8>
d0021f54:	e3a00f69 	mov	r0, #420	; 0x1a4
d0021f58:	e3a01f7d 	mov	r1, #500	; 0x1f4
d0021f5c:	e3a020ff 	mov	r2, #255	; 0xff
d0021f60:	e59f3204 	ldr	r3, [pc, #516]	; d002216c <lcd_test+0x560>
d0021f64:	ebfffc7c 	bl	d002115c <draw_ascii_ok8>
d0021f68:	eaffff43 	b	d0021c7c <lcd_test+0x70>
d0021f6c:	e59f31c0 	ldr	r3, [pc, #448]	; d0022134 <lcd_test+0x528>
d0021f70:	e5933000 	ldr	r3, [r3]
d0021f74:	e2033001 	and	r3, r3, #1
d0021f78:	e3530000 	cmp	r3, #0
d0021f7c:	1a000031 	bne	d0022048 <lcd_test+0x43c>
d0021f80:	ebfff9b3 	bl	d0020654 <delay20ms>
d0021f84:	e59f31a8 	ldr	r3, [pc, #424]	; d0022134 <lcd_test+0x528>
d0021f88:	e5933000 	ldr	r3, [r3]
d0021f8c:	e2033001 	and	r3, r3, #1
d0021f90:	e3530000 	cmp	r3, #0
d0021f94:	1affff31 	bne	d0021c60 <lcd_test+0x54>
d0021f98:	e51b300c 	ldr	r3, [fp, #-12]
d0021f9c:	e3530001 	cmp	r3, #1
d0021fa0:	1a000025 	bne	d002203c <lcd_test+0x430>
d0021fa4:	e3a008ff 	mov	r0, #16711680	; 0xff0000
d0021fa8:	ebfffa53 	bl	d00208fc <lcd_draw_background>
d0021fac:	ebfff984 	bl	d00205c4 <delay>
d0021fb0:	e3a00cff 	mov	r0, #65280	; 0xff00
d0021fb4:	ebfffa50 	bl	d00208fc <lcd_draw_background>
d0021fb8:	ebfff981 	bl	d00205c4 <delay>
d0021fbc:	e3a000ff 	mov	r0, #255	; 0xff
d0021fc0:	ebfffa4d 	bl	d00208fc <lcd_draw_background>
d0021fc4:	ebfff97e 	bl	d00205c4 <delay>
d0021fc8:	e3a00000 	mov	r0, #0
d0021fcc:	ebfffa4a 	bl	d00208fc <lcd_draw_background>
d0021fd0:	ebfff97b 	bl	d00205c4 <delay>
d0021fd4:	e3e004ff 	mvn	r0, #-16777216	; 0xff000000
d0021fd8:	ebfffa47 	bl	d00208fc <lcd_draw_background>
d0021fdc:	ebfff978 	bl	d00205c4 <delay>
d0021fe0:	e59f0188 	ldr	r0, [pc, #392]	; d0022170 <lcd_test+0x564>
d0021fe4:	ebfffa44 	bl	d00208fc <lcd_draw_background>
d0021fe8:	ebfff975 	bl	d00205c4 <delay>
d0021fec:	e59f0180 	ldr	r0, [pc, #384]	; d0022174 <lcd_test+0x568>
d0021ff0:	ebfffa41 	bl	d00208fc <lcd_draw_background>
d0021ff4:	ebfff972 	bl	d00205c4 <delay>
d0021ff8:	e59f0178 	ldr	r0, [pc, #376]	; d0022178 <lcd_test+0x56c>
d0021ffc:	ebfffa3e 	bl	d00208fc <lcd_draw_background>
d0022000:	ebfff96f 	bl	d00205c4 <delay>
d0022004:	e59f0170 	ldr	r0, [pc, #368]	; d002217c <lcd_test+0x570>
d0022008:	ebfffa3b 	bl	d00208fc <lcd_draw_background>
d002200c:	ebfff96c 	bl	d00205c4 <delay>
d0022010:	e59f0168 	ldr	r0, [pc, #360]	; d0022180 <lcd_test+0x574>
d0022014:	ebfffa38 	bl	d00208fc <lcd_draw_background>
d0022018:	ebfff969 	bl	d00205c4 <delay>
d002201c:	e59f0160 	ldr	r0, [pc, #352]	; d0022184 <lcd_test+0x578>
d0022020:	ebfffa35 	bl	d00208fc <lcd_draw_background>
d0022024:	ebfff966 	bl	d00205c4 <delay>
d0022028:	e59f0158 	ldr	r0, [pc, #344]	; d0022188 <lcd_test+0x57c>
d002202c:	ebfffa32 	bl	d00208fc <lcd_draw_background>
d0022030:	ebfff963 	bl	d00205c4 <delay>
d0022034:	e3a00000 	mov	r0, #0
d0022038:	ebfffa2f 	bl	d00208fc <lcd_draw_background>
d002203c:	e3a03000 	mov	r3, #0
d0022040:	e50b300c 	str	r3, [fp, #-12]
d0022044:	eaffff0c 	b	d0021c7c <lcd_test+0x70>
d0022048:	e59f30e4 	ldr	r3, [pc, #228]	; d0022134 <lcd_test+0x528>
d002204c:	e5933000 	ldr	r3, [r3]
d0022050:	e2033008 	and	r3, r3, #8
d0022054:	e3530000 	cmp	r3, #0
d0022058:	1a000023 	bne	d00220ec <lcd_test+0x4e0>
d002205c:	ebfff97c 	bl	d0020654 <delay20ms>
d0022060:	e59f30cc 	ldr	r3, [pc, #204]	; d0022134 <lcd_test+0x528>
d0022064:	e5933000 	ldr	r3, [r3]
d0022068:	e2033008 	and	r3, r3, #8
d002206c:	e3530000 	cmp	r3, #0
d0022070:	1afffefc 	bne	d0021c68 <lcd_test+0x5c>
d0022074:	e3a03001 	mov	r3, #1
d0022078:	e50b300c 	str	r3, [fp, #-12]
d002207c:	e3e004ff 	mvn	r0, #-16777216	; 0xff000000
d0022080:	ebfffa1d 	bl	d00208fc <lcd_draw_background>
d0022084:	e59f0100 	ldr	r0, [pc, #256]	; d002218c <lcd_test+0x580>
d0022088:	e3a010fa 	mov	r1, #250	; 0xfa
d002208c:	e3a020ff 	mov	r2, #255	; 0xff
d0022090:	e59f30f8 	ldr	r3, [pc, #248]	; d0022190 <lcd_test+0x584>
d0022094:	ebfffc30 	bl	d002115c <draw_ascii_ok8>
d0022098:	e59f00ec 	ldr	r0, [pc, #236]	; d002218c <lcd_test+0x580>
d002209c:	e59f10f0 	ldr	r1, [pc, #240]	; d0022194 <lcd_test+0x588>
d00220a0:	e3a020ff 	mov	r2, #255	; 0xff
d00220a4:	e59f30ec 	ldr	r3, [pc, #236]	; d0022198 <lcd_test+0x58c>
d00220a8:	ebfffc2b 	bl	d002115c <draw_ascii_ok8>
d00220ac:	e59f00d8 	ldr	r0, [pc, #216]	; d002218c <lcd_test+0x580>
d00220b0:	e3a01f4b 	mov	r1, #300	; 0x12c
d00220b4:	e3a020ff 	mov	r2, #255	; 0xff
d00220b8:	e59f30dc 	ldr	r3, [pc, #220]	; d002219c <lcd_test+0x590>
d00220bc:	ebfffc26 	bl	d002115c <draw_ascii_ok8>
d00220c0:	e59f00c4 	ldr	r0, [pc, #196]	; d002218c <lcd_test+0x580>
d00220c4:	e59f10d4 	ldr	r1, [pc, #212]	; d00221a0 <lcd_test+0x594>
d00220c8:	e3a020ff 	mov	r2, #255	; 0xff
d00220cc:	e59f30d0 	ldr	r3, [pc, #208]	; d00221a4 <lcd_test+0x598>
d00220d0:	ebfffc21 	bl	d002115c <draw_ascii_ok8>
d00220d4:	e59f00b0 	ldr	r0, [pc, #176]	; d002218c <lcd_test+0x580>
d00220d8:	e59f10c8 	ldr	r1, [pc, #200]	; d00221a8 <lcd_test+0x59c>
d00220dc:	e3a020ff 	mov	r2, #255	; 0xff
d00220e0:	e59f30c4 	ldr	r3, [pc, #196]	; d00221ac <lcd_test+0x5a0>
d00220e4:	ebfffc1c 	bl	d002115c <draw_ascii_ok8>
d00220e8:	eafffee3 	b	d0021c7c <lcd_test+0x70>
d00220ec:	e59f3040 	ldr	r3, [pc, #64]	; d0022134 <lcd_test+0x528>
d00220f0:	e5933000 	ldr	r3, [r3]
d00220f4:	e2033004 	and	r3, r3, #4
d00220f8:	e3530000 	cmp	r3, #0
d00220fc:	1afffedb 	bne	d0021c70 <lcd_test+0x64>
d0022100:	ebfff953 	bl	d0020654 <delay20ms>
d0022104:	e59f3028 	ldr	r3, [pc, #40]	; d0022134 <lcd_test+0x528>
d0022108:	e5933000 	ldr	r3, [r3]
d002210c:	e2033004 	and	r3, r3, #4
d0022110:	e3530000 	cmp	r3, #0
d0022114:	1afffed7 	bne	d0021c78 <lcd_test+0x6c>
d0022118:	e3a00000 	mov	r0, #0
d002211c:	ebfff9f6 	bl	d00208fc <lcd_draw_background>
d0022120:	e3a03000 	mov	r3, #0
d0022124:	e50b300c 	str	r3, [fp, #-12]
d0022128:	eafffed3 	b	d0021c7c <lcd_test+0x70>
d002212c:	e0200c04 	eor	r0, r0, r4, lsl #24
d0022130:	d0022dd8 	ldrdle	r2, [r2], -r8
d0022134:	e0200c44 	eor	r0, r0, r4, asr #24
d0022138:	00000186 	andeq	r0, r0, r6, lsl #3
d002213c:	0000018f 	andeq	r0, r0, pc, lsl #3
d0022140:	d0026958 	andle	r6, r2, r8, asr r9
d0022144:	000001c2 	andeq	r0, r0, r2, asr #3
d0022148:	d0026964 	andle	r6, r2, r4, ror #18
d002214c:	d0026968 	andle	r6, r2, r8, ror #18
d0022150:	d0026978 	andle	r6, r2, r8, ror r9
d0022154:	00f19ec2 	rscseq	r9, r1, r2, asr #29
d0022158:	d0026988 	andle	r6, r2, r8, lsl #19
d002215c:	d002698c 	andle	r6, r2, ip, lsl #19
d0022160:	d0026998 	mulle	r2, r8, r9
d0022164:	d00269a8 	andle	r6, r2, r8, lsr #19
d0022168:	d00269ac 	andle	r6, r2, ip, lsr #19
d002216c:	d00269b8 	strhle	r6, [r2], -r8
d0022170:	00e0e0e0 	rsceq	lr, r0, r0, ror #1
d0022174:	00c0c0c0 	sbceq	ip, r0, r0, asr #1
d0022178:	00a0a0a0 	adceq	sl, r0, r0, lsr #1
d002217c:	00808080 	addeq	r8, r0, r0, lsl #1
d0022180:	00606060 	rsbeq	r6, r0, r0, rrx
d0022184:	00404040 	subeq	r4, r0, r0, asr #32
d0022188:	00202020 	eoreq	r2, r0, r0, lsr #32
d002218c:	000001ab 	andeq	r0, r0, fp, lsr #3
d0022190:	d00269c8 	andle	r6, r2, r8, asr #19
d0022194:	00000113 	andeq	r0, r0, r3, lsl r1
d0022198:	d00269d0 	ldrdle	r6, [r2], -r0
d002219c:	d00269e4 	andle	r6, r2, r4, ror #19
d00221a0:	00000145 	andeq	r0, r0, r5, asr #2
d00221a4:	d00269f8 	strdle	r6, [r2], -r8
d00221a8:	0000015e 	andeq	r0, r0, lr, asr r1
d00221ac:	d0026a0c 	andle	r6, r2, ip, lsl #20

d00221b0 <main>:
d00221b0:	e92d4800 	push	{fp, lr}
d00221b4:	e28db004 	add	fp, sp, #4
d00221b8:	ebfffe93 	bl	d0021c0c <lcd_test>
d00221bc:	e3a03000 	mov	r3, #0
d00221c0:	e1a00003 	mov	r0, r3
d00221c4:	e8bd8800 	pop	{fp, pc}

Disassembly of section .rodata:

d00221c8 <ascii_8_16>:
	...
d00221d8:	08000000 	stmdaeq	r0, {}
d00221dc:	08080808 	stmdaeq	r8, {r3, fp}
d00221e0:	00000808 	andeq	r0, r0, r8, lsl #16
d00221e4:	00001818 	andeq	r1, r0, r8, lsl r8
d00221e8:	246c4800 	strbtcs	r4, [ip], #-2048	; 0x800
d00221ec:	00000012 	andeq	r0, r0, r2, lsl r0
	...
d00221f8:	24000000 	strcs	r0, [r0]
d00221fc:	127f2424 	rsbsne	r2, pc, #603979776	; 0x24000000
d0022200:	127f1212 	rsbsne	r1, pc, #536870913	; 0x20000001
d0022204:	00001212 	andeq	r1, r0, r2, lsl r2
d0022208:	1c080000 	stcne	0, cr0, [r8], {0}
d002220c:	0c0a2a2a 	stceq	10, cr2, [sl], {42}	; 0x2a
d0022210:	2a282818 	bcs	d0a2c278 <bss_end+0xa05850>
d0022214:	08081c2a 	stmdaeq	r8, {r1, r3, r5, sl, fp, ip}
d0022218:	22000000 	andcs	r0, r0, #0
d002221c:	15151525 	ldrne	r1, [r5, #-1317]	; 0x525
d0022220:	5454582a 	ldrbpl	r5, [r4], #-2090	; 0x82a
d0022224:	00002254 	andeq	r2, r0, r4, asr r2
d0022228:	0c000000 	stceq	0, cr0, [r0], {0}
d002222c:	0a121212 	beq	d04a6a7c <bss_end+0x480054>
d0022230:	11292576 	teqne	r9, r6, ror r5
d0022234:	00006e91 	muleq	r0, r1, lr
d0022238:	04060600 	streq	r0, [r6], #-1536	; 0x600
d002223c:	00000003 	andeq	r0, r0, r3
	...
d0022248:	10204000 	eorne	r4, r0, r0
d002224c:	08080810 	stmdaeq	r8, {r4, fp}
d0022250:	10080808 	andne	r0, r8, r8, lsl #16
d0022254:	00402010 	subeq	r2, r0, r0, lsl r0
d0022258:	08040200 	stmdaeq	r4, {r9}
d002225c:	10101008 	andsne	r1, r0, r8
d0022260:	08101010 	ldmdaeq	r0, {r4, ip}
d0022264:	00020408 	andeq	r0, r2, r8, lsl #8
d0022268:	00000000 	andeq	r0, r0, r0
d002226c:	1c6b0808 	stclne	8, cr0, [fp], #-32	; 0xffffffe0
d0022270:	08086b1c 	stmdaeq	r8, {r2, r3, r4, r8, r9, fp, sp, lr}
	...
d002227c:	08080808 	stmdaeq	r8, {r3, fp}
d0022280:	0808087f 	stmdaeq	r8, {r0, r1, r2, r3, r4, r5, r6, fp}
d0022284:	00000008 	andeq	r0, r0, r8
	...
d0022294:	03040606 	movweq	r0, #17926	; 0x4606
	...
d00222a0:	000000fe 	strdeq	r0, [r0], -lr
	...
d00222b4:	00000606 	andeq	r0, r0, r6, lsl #12
d00222b8:	40800000 	addmi	r0, r0, r0
d00222bc:	10202040 	eorne	r2, r0, r0, asr #32
d00222c0:	04080810 	streq	r0, [r8], #-2064	; 0x810
d00222c4:	00020204 	andeq	r0, r2, r4, lsl #4
d00222c8:	18000000 	stmdane	r0, {}
d00222cc:	42424224 	submi	r4, r2, #1073741826	; 0x40000002
d00222d0:	42424242 	submi	r4, r2, #536870916	; 0x20000004
d00222d4:	00001824 	andeq	r1, r0, r4, lsr #16
d00222d8:	08000000 	stmdaeq	r0, {}
d00222dc:	0808080e 	stmdaeq	r8, {r1, r2, r3, fp}
d00222e0:	08080808 	stmdaeq	r8, {r3, fp}
d00222e4:	00003e08 	andeq	r3, r0, r8, lsl #28
d00222e8:	3c000000 	stccc	0, cr0, [r0], {0}
d00222ec:	20424242 	subcs	r4, r2, r2, asr #4
d00222f0:	04081020 	streq	r1, [r8], #-32
d00222f4:	00007e42 	andeq	r7, r0, r2, asr #28
d00222f8:	3c000000 	stccc	0, cr0, [r0], {0}
d00222fc:	18204242 	stmdane	r0!, {r1, r6, r9, lr}
d0022300:	42404020 	submi	r4, r0, #32
d0022304:	00001c22 	andeq	r1, r0, r2, lsr #24
d0022308:	20000000 	andcs	r0, r0, r0
d002230c:	24242830 	strtcs	r2, [r4], #-2096	; 0x830
d0022310:	207e2222 	rsbscs	r2, lr, r2, lsr #4
d0022314:	00007820 	andeq	r7, r0, r0, lsr #16
d0022318:	7e000000 	cdpvc	0, 0, cr0, cr0, cr0, {0}
d002231c:	1a020202 	bne	d00a2b2c <bss_end+0x7c104>
d0022320:	42404026 	submi	r4, r0, #38	; 0x26
d0022324:	00001c22 	andeq	r1, r0, r2, lsr #24
d0022328:	38000000 	stmdacc	r0, {}
d002232c:	1a020224 	bne	d00a2bc4 <bss_end+0x7c19c>
d0022330:	42424226 	submi	r4, r2, #1610612738	; 0x60000002
d0022334:	00001824 	andeq	r1, r0, r4, lsr #16
d0022338:	7e000000 	cdpvc	0, 0, cr0, cr0, cr0, {0}
d002233c:	10102222 	andsne	r2, r0, r2, lsr #4
d0022340:	08080808 	stmdaeq	r8, {r3, fp}
d0022344:	00000808 	andeq	r0, r0, r8, lsl #16
d0022348:	3c000000 	stccc	0, cr0, [r0], {0}
d002234c:	24424242 	strbcs	r4, [r2], #-578	; 0x242
d0022350:	42422418 	submi	r2, r2, #402653184	; 0x18000000
d0022354:	00003c42 	andeq	r3, r0, r2, asr #24
d0022358:	18000000 	stmdane	r0, {}
d002235c:	42424224 	submi	r4, r2, #1073741826	; 0x40000002
d0022360:	40405864 	submi	r5, r0, r4, ror #16
d0022364:	00001c24 	andeq	r1, r0, r4, lsr #24
d0022368:	00000000 	andeq	r0, r0, r0
d002236c:	18180000 	ldmdane	r8, {}
d0022370:	00000000 	andeq	r0, r0, r0
d0022374:	00001818 	andeq	r1, r0, r8, lsl r8
d0022378:	00000000 	andeq	r0, r0, r0
d002237c:	08000000 	stmdaeq	r0, {}
d0022380:	00000000 	andeq	r0, r0, r0
d0022384:	04080800 	streq	r0, [r8], #-2048	; 0x800
d0022388:	40000000 	andmi	r0, r0, r0
d002238c:	04081020 	streq	r1, [r8], #-32
d0022390:	10080402 	andne	r0, r8, r2, lsl #8
d0022394:	00004020 	andeq	r4, r0, r0, lsr #32
d0022398:	00000000 	andeq	r0, r0, r0
d002239c:	007f0000 	rsbseq	r0, pc, r0
d00223a0:	007f0000 	rsbseq	r0, pc, r0
d00223a4:	00000000 	andeq	r0, r0, r0
d00223a8:	02000000 	andeq	r0, r0, #0
d00223ac:	20100804 	andscs	r0, r0, r4, lsl #16
d00223b0:	08102040 	ldmdaeq	r0, {r6, sp}
d00223b4:	00000204 	andeq	r0, r0, r4, lsl #4
d00223b8:	3c000000 	stccc	0, cr0, [r0], {0}
d00223bc:	40464242 	submi	r4, r6, r2, asr #4
d00223c0:	00101020 	andseq	r1, r0, r0, lsr #32
d00223c4:	00001818 	andeq	r1, r0, r8, lsl r8
d00223c8:	1c000000 	stcne	0, cr0, [r0], {0}
d00223cc:	55555a22 	ldrbpl	r5, [r5, #-2594]	; 0xa22
d00223d0:	422d5555 	eormi	r5, sp, #356515840	; 0x15400000
d00223d4:	00001c22 	andeq	r1, r0, r2, lsr #24
d00223d8:	08000000 	stmdaeq	r0, {}
d00223dc:	14141808 	ldrne	r1, [r4], #-2056	; 0x808
d00223e0:	42223c24 	eormi	r3, r2, #9216	; 0x2400
d00223e4:	0000e742 	andeq	lr, r0, r2, asr #14
d00223e8:	1f000000 	svcne	0x00000000
d00223ec:	1e222222 	cdpne	2, 2, cr2, cr2, cr2, {1}
d00223f0:	42424222 	submi	r4, r2, #536870914	; 0x20000002
d00223f4:	00001f22 	andeq	r1, r0, r2, lsr #30
d00223f8:	7c000000 	stcvc	0, cr0, [r0], {0}
d00223fc:	01014242 	tsteq	r1, r2, asr #4
d0022400:	42010101 	andmi	r0, r1, #1073741824	; 0x40000000
d0022404:	00001c22 	andeq	r1, r0, r2, lsr #24
d0022408:	1f000000 	svcne	0x00000000
d002240c:	42424222 	submi	r4, r2, #536870914	; 0x20000002
d0022410:	42424242 	submi	r4, r2, #536870916	; 0x20000004
d0022414:	00001f22 	andeq	r1, r0, r2, lsr #30
d0022418:	3f000000 	svccc	0x00000000
d002241c:	1e121242 	cdpne	2, 1, cr1, cr2, cr2, {2}
d0022420:	42021212 	andmi	r1, r2, #536870913	; 0x20000001
d0022424:	00003f42 	andeq	r3, r0, r2, asr #30
d0022428:	3f000000 	svccc	0x00000000
d002242c:	1e121242 	cdpne	2, 1, cr1, cr2, cr2, {2}
d0022430:	02021212 	andeq	r1, r2, #536870913	; 0x20000001
d0022434:	00000702 	andeq	r0, r0, r2, lsl #14
d0022438:	3c000000 	stccc	0, cr0, [r0], {0}
d002243c:	01012222 	tsteq	r1, r2, lsr #4
d0022440:	22217101 	eorcs	r7, r1, #1073741824	; 0x40000000
d0022444:	00001c22 	andeq	r1, r0, r2, lsr #24
d0022448:	e7000000 	str	r0, [r0, -r0]
d002244c:	42424242 	submi	r4, r2, #536870916	; 0x20000004
d0022450:	4242427e 	submi	r4, r2, #-536870905	; 0xe0000007
d0022454:	0000e742 	andeq	lr, r0, r2, asr #14
d0022458:	3e000000 	cdpcc	0, 0, cr0, cr0, cr0, {0}
d002245c:	08080808 	stmdaeq	r8, {r3, fp}
d0022460:	08080808 	stmdaeq	r8, {r3, fp}
d0022464:	00003e08 	andeq	r3, r0, r8, lsl #28
d0022468:	7c000000 	stcvc	0, cr0, [r0], {0}
d002246c:	10101010 	andsne	r1, r0, r0, lsl r0
d0022470:	10101010 	andsne	r1, r0, r0, lsl r0
d0022474:	0f111010 	svceq	0x00111010
d0022478:	77000000 	strvc	r0, [r0, -r0]
d002247c:	0e0a1222 	cdpeq	2, 0, cr1, cr10, cr2, {1}
d0022480:	2212120a 	andscs	r1, r2, #-1610612736	; 0xa0000000
d0022484:	00007722 	andeq	r7, r0, r2, lsr #14
d0022488:	07000000 	streq	r0, [r0, -r0]
d002248c:	02020202 	andeq	r0, r2, #536870912	; 0x20000000
d0022490:	02020202 	andeq	r0, r2, #536870912	; 0x20000000
d0022494:	00007f42 	andeq	r7, r0, r2, asr #30
d0022498:	77000000 	strvc	r0, [r0, -r0]
d002249c:	36363636 	undefined instruction 0x36363636
d00224a0:	2a2a2a2a 	bcs	d0aacd50 <bss_end+0xa86328>
d00224a4:	00006b2a 	andeq	r6, r0, sl, lsr #22
d00224a8:	e3000000 	movw	r0, #0
d00224ac:	4a4a4646 	bmi	d12b3dcc <bss_end+0x128d3a4>
d00224b0:	62525252 	subsvs	r5, r2, #536870917	; 0x20000005
d00224b4:	00004762 	andeq	r4, r0, r2, ror #14
d00224b8:	1c000000 	stcne	0, cr0, [r0], {0}
d00224bc:	41414122 	cmpmi	r1, r2, lsr #2
d00224c0:	41414141 	cmpmi	r1, r1, asr #2
d00224c4:	00001c22 	andeq	r1, r0, r2, lsr #24
d00224c8:	3f000000 	svccc	0x00000000
d00224cc:	42424242 	submi	r4, r2, #536870916	; 0x20000004
d00224d0:	0202023e 	andeq	r0, r2, #-536870909	; 0xe0000003
d00224d4:	00000702 	andeq	r0, r0, r2, lsl #14
d00224d8:	1c000000 	stcne	0, cr0, [r0], {0}
d00224dc:	41414122 	cmpmi	r1, r2, lsr #2
d00224e0:	534d4141 	movtpl	r4, #53569	; 0xd141
d00224e4:	00601c32 	rsbeq	r1, r0, r2, lsr ip
d00224e8:	3f000000 	svccc	0x00000000
d00224ec:	3e424242 	cdpcc	2, 4, cr4, cr2, cr2, {2}
d00224f0:	22221212 	eorcs	r1, r2, #536870913	; 0x20000001
d00224f4:	0000c742 	andeq	ip, r0, r2, asr #14
d00224f8:	7c000000 	stcvc	0, cr0, [r0], {0}
d00224fc:	04024242 	streq	r4, [r2], #-578	; 0x242
d0022500:	42402018 	submi	r2, r0, #24
d0022504:	00003e42 	andeq	r3, r0, r2, asr #28
d0022508:	7f000000 	svcvc	0x00000000
d002250c:	08080849 	stmdaeq	r8, {r0, r3, r6, fp}
d0022510:	08080808 	stmdaeq	r8, {r3, fp}
d0022514:	00001c08 	andeq	r1, r0, r8, lsl #24
d0022518:	e7000000 	str	r0, [r0, -r0]
d002251c:	42424242 	submi	r4, r2, #536870916	; 0x20000004
d0022520:	42424242 	submi	r4, r2, #536870916	; 0x20000004
d0022524:	00003c42 	andeq	r3, r0, r2, asr #24
d0022528:	e7000000 	str	r0, [r0, -r0]
d002252c:	24224242 	strtcs	r4, [r2], #-578	; 0x242
d0022530:	18141424 	ldmdane	r4, {r2, r5, sl, ip}
d0022534:	00000808 	andeq	r0, r0, r8, lsl #16
d0022538:	6b000000 	blvs	d0022540 <ascii_8_16+0x378>
d002253c:	49494949 	stmdbmi	r9, {r0, r3, r6, r8, fp, lr}^
d0022540:	22365555 	eorscs	r5, r6, #356515840	; 0x15400000
d0022544:	00002222 	andeq	r2, r0, r2, lsr #4
d0022548:	e7000000 	str	r0, [r0, -r0]
d002254c:	18242442 	stmdane	r4!, {r1, r6, sl, sp}
d0022550:	24241818 	strtcs	r1, [r4], #-2072	; 0x818
d0022554:	0000e742 	andeq	lr, r0, r2, asr #14
d0022558:	77000000 	strvc	r0, [r0, -r0]
d002255c:	14142222 	ldrne	r2, [r4], #-546	; 0x222
d0022560:	08080808 	stmdaeq	r8, {r3, fp}
d0022564:	00001c08 	andeq	r1, r0, r8, lsl #24
d0022568:	7e000000 	cdpvc	0, 0, cr0, cr0, cr0, {0}
d002256c:	10102021 	andsne	r2, r0, r1, lsr #32
d0022570:	42040408 	andmi	r0, r4, #134217728	; 0x8000000
d0022574:	00003f42 	andeq	r3, r0, r2, asr #30
d0022578:	08087800 	stmdaeq	r8, {fp, ip, sp, lr}
d002257c:	08080808 	stmdaeq	r8, {r3, fp}
d0022580:	08080808 	stmdaeq	r8, {r3, fp}
d0022584:	00780808 	rsbseq	r0, r8, r8, lsl #16
d0022588:	02020000 	andeq	r0, r2, #0
d002258c:	08080404 	stmdaeq	r8, {r2, sl}
d0022590:	20101008 	andscs	r1, r0, r8
d0022594:	40402020 	submi	r2, r0, r0, lsr #32
d0022598:	10101e00 	andsne	r1, r0, r0, lsl #28
d002259c:	10101010 	andsne	r1, r0, r0, lsl r0
d00225a0:	10101010 	andsne	r1, r0, r0, lsl r0
d00225a4:	001e1010 	andseq	r1, lr, r0, lsl r0
d00225a8:	00443800 	subeq	r3, r4, r0, lsl #16
	...
d00225c4:	ff000000 	undefined instruction 0xff000000
d00225c8:	00080600 	andeq	r0, r8, r0, lsl #12
	...
d00225dc:	3c000000 	stccc	0, cr0, [r0], {0}
d00225e0:	42447842 	submi	r7, r4, #4325376	; 0x420000
d00225e4:	0000fc42 	andeq	pc, r0, r2, asr #24
d00225e8:	03000000 	movweq	r0, #0
d00225ec:	1a020202 	bne	d00a2dfc <bss_end+0x7c3d4>
d00225f0:	42424226 	submi	r4, r2, #1610612738	; 0x60000002
d00225f4:	00001a26 	andeq	r1, r0, r6, lsr #20
d00225f8:	00000000 	andeq	r0, r0, r0
d00225fc:	38000000 	stmdacc	r0, {}
d0022600:	02020244 	andeq	r0, r2, #1073741828	; 0x40000004
d0022604:	00003844 	andeq	r3, r0, r4, asr #16
d0022608:	60000000 	andvs	r0, r0, r0
d002260c:	78404040 	stmdavc	r0, {r6, lr}^
d0022610:	42424244 	submi	r4, r2, #1073741828	; 0x40000004
d0022614:	0000d864 	andeq	sp, r0, r4, ror #16
d0022618:	00000000 	andeq	r0, r0, r0
d002261c:	3c000000 	stccc	0, cr0, [r0], {0}
d0022620:	02027e42 	andeq	r7, r2, #1056	; 0x420
d0022624:	00003c42 	andeq	r3, r0, r2, asr #24
d0022628:	f0000000 	undefined instruction 0xf0000000
d002262c:	7e080888 	cdpvc	8, 0, cr0, cr8, cr8, {4}
d0022630:	08080808 	stmdaeq	r8, {r3, fp}
d0022634:	00003e08 	andeq	r3, r0, r8, lsl #28
d0022638:	00000000 	andeq	r0, r0, r0
d002263c:	7c000000 	stcvc	0, cr0, [r0], {0}
d0022640:	021c2222 	andseq	r2, ip, #536870914	; 0x20000002
d0022644:	3c42423c 	sfmcc	f4, 2, [r2], {60}	; (stclcc 2, cr4, [r2], {60})	; 0x3c
d0022648:	03000000 	movweq	r0, #0
d002264c:	3a020202 	bcc	d00a2e5c <bss_end+0x7c434>
d0022650:	42424246 	submi	r4, r2, #1610612740	; 0x60000004
d0022654:	0000e742 	andeq	lr, r0, r2, asr #14
d0022658:	0c000000 	stceq	0, cr0, [r0], {0}
d002265c:	0e00000c 	cdpeq	0, 0, cr0, cr0, cr12, {0}
d0022660:	08080808 	stmdaeq	r8, {r3, fp}
d0022664:	00003e08 	andeq	r3, r0, r8, lsl #28
d0022668:	30000000 	andcc	r0, r0, r0
d002266c:	38000030 	stmdacc	r0, {r4, r5}
d0022670:	20202020 	eorcs	r2, r0, r0, lsr #32
d0022674:	1e222020 	cdpne	0, 2, cr2, cr2, cr0, {1}
d0022678:	03000000 	movweq	r0, #0
d002267c:	72020202 	andvc	r0, r2, #536870912	; 0x20000000
d0022680:	12160a12 	andsne	r0, r6, #73728	; 0x12000
d0022684:	00007722 	andeq	r7, r0, r2, lsr #14
d0022688:	0e000000 	cdpeq	0, 0, cr0, cr0, cr0, {0}
d002268c:	08080808 	stmdaeq	r8, {r3, fp}
d0022690:	08080808 	stmdaeq	r8, {r3, fp}
d0022694:	00003e08 	andeq	r3, r0, r8, lsl #28
d0022698:	00000000 	andeq	r0, r0, r0
d002269c:	7f000000 	svcvc	0x00000000
d00226a0:	92929292 	addsls	r9, r2, #536870921	; 0x20000009
d00226a4:	0000b792 	muleq	r0, r2, r7
d00226a8:	00000000 	andeq	r0, r0, r0
d00226ac:	3b000000 	blcc	d00226b4 <ascii_8_16+0x4ec>
d00226b0:	42424246 	submi	r4, r2, #1610612740	; 0x60000004
d00226b4:	0000e742 	andeq	lr, r0, r2, asr #14
d00226b8:	00000000 	andeq	r0, r0, r0
d00226bc:	3c000000 	stccc	0, cr0, [r0], {0}
d00226c0:	42424242 	submi	r4, r2, #536870916	; 0x20000004
d00226c4:	00003c42 	andeq	r3, r0, r2, asr #24
d00226c8:	00000000 	andeq	r0, r0, r0
d00226cc:	1b000000 	blne	d00226d4 <ascii_8_16+0x50c>
d00226d0:	42424226 	submi	r4, r2, #1610612738	; 0x60000002
d00226d4:	07021e22 	streq	r1, [r2, -r2, lsr #28]
d00226d8:	00000000 	andeq	r0, r0, r0
d00226dc:	78000000 	stmdavc	r0, {}
d00226e0:	42424244 	submi	r4, r2, #1073741828	; 0x40000004
d00226e4:	e0407844 	sub	r7, r0, r4, asr #16
d00226e8:	00000000 	andeq	r0, r0, r0
d00226ec:	77000000 	strvc	r0, [r0, -r0]
d00226f0:	0404044c 	streq	r0, [r4], #-1100	; 0x44c
d00226f4:	00001f04 	andeq	r1, r0, r4, lsl #30
d00226f8:	00000000 	andeq	r0, r0, r0
d00226fc:	7c000000 	stcvc	0, cr0, [r0], {0}
d0022700:	403c0242 	eorsmi	r0, ip, r2, asr #4
d0022704:	00003e42 	andeq	r3, r0, r2, asr #28
d0022708:	00000000 	andeq	r0, r0, r0
d002270c:	3e080800 	cdpcc	8, 0, cr0, cr8, cr0, {0}
d0022710:	08080808 	stmdaeq	r8, {r3, fp}
d0022714:	00003008 	andeq	r3, r0, r8
d0022718:	00000000 	andeq	r0, r0, r0
d002271c:	63000000 	movwvs	r0, #0
d0022720:	42424242 	submi	r4, r2, #536870916	; 0x20000004
d0022724:	0000dc62 	andeq	sp, r0, r2, ror #24
d0022728:	00000000 	andeq	r0, r0, r0
d002272c:	e7000000 	str	r0, [r0, -r0]
d0022730:	14242442 	strtne	r2, [r4], #-1090	; 0x442
d0022734:	00000808 	andeq	r0, r0, r8, lsl #16
d0022738:	00000000 	andeq	r0, r0, r0
d002273c:	eb000000 	bl	d0022744 <ascii_8_16+0x57c>
d0022740:	55554949 	ldrbpl	r4, [r5, #-2377]	; 0x949
d0022744:	00002222 	andeq	r2, r0, r2, lsr #4
d0022748:	00000000 	andeq	r0, r0, r0
d002274c:	76000000 	strvc	r0, [r0], -r0
d0022750:	18181824 	ldmdane	r8, {r2, r5, fp, ip}
d0022754:	00006e24 	andeq	r6, r0, r4, lsr #28
d0022758:	00000000 	andeq	r0, r0, r0
d002275c:	e7000000 	str	r0, [r0, -r0]
d0022760:	14242442 	strtne	r2, [r4], #-1090	; 0x442
d0022764:	07080818 	smladeq	r8, r8, r8, r0
d0022768:	00000000 	andeq	r0, r0, r0
d002276c:	7e000000 	cdpvc	0, 0, cr0, cr0, cr0, {0}
d0022770:	08081022 	stmdaeq	r8, {r1, r5, ip}
d0022774:	00007e44 	andeq	r7, r0, r4, asr #28
d0022778:	2020c000 	eorcs	ip, r0, r0
d002277c:	10202020 	eorne	r2, r0, r0, lsr #32
d0022780:	20202020 	eorcs	r2, r0, r0, lsr #32
d0022784:	00c02020 	sbceq	r2, r0, r0, lsr #32
d0022788:	10101010 	andsne	r1, r0, r0, lsl r0
d002278c:	10101010 	andsne	r1, r0, r0, lsl r0
d0022790:	10101010 	andsne	r1, r0, r0, lsl r0
d0022794:	10101010 	andsne	r1, r0, r0, lsl r0
d0022798:	08080600 	stmdaeq	r8, {r9, sl}
d002279c:	10080808 	andne	r0, r8, r8, lsl #16
d00227a0:	08080808 	stmdaeq	r8, {r3, fp}
d00227a4:	00060808 	andeq	r0, r6, r8, lsl #16
d00227a8:	00c2320c 	sbceq	r3, r2, ip, lsl #4
	...

d00227b8 <ascii_16_16>:
d00227b8:	01100090 	ldrbeq	r0, [r0, r0]
d00227bc:	010c3ff8 	strdeq	r3, [ip, -r8]
d00227c0:	01091ffa 	strdeq	r1, [r9, -sl]
d00227c4:	01081ff8 	strdeq	r1, [r8, -r8]
d00227c8:	00883ff8 	strdeq	r3, [r8], r8
d00227cc:	02a07fff 	adceq	r7, r0, #1020	; 0x3fc
d00227d0:	188c0490 	stmne	ip, {r4, r7, sl}
d00227d4:	00806083 	addeq	r6, r0, r3, lsl #1
d00227d8:	02200410 	eoreq	r0, r0, #268435456	; 0x10000000
d00227dc:	00803ffe 	strdeq	r3, [r0], lr
d00227e0:	1ffc0080 	svcne	0x00fc0080
d00227e4:	00800080 	addeq	r0, r0, r0, lsl #1
d00227e8:	00807fff 	strdeq	r7, [r0], pc
d00227ec:	3ffe0080 	svccc	0x00fe0080
d00227f0:	02200140 	eoreq	r0, r0, #16
d00227f4:	70070c18 	andvc	r0, r7, r8, lsl ip
d00227f8:	00800080 	addeq	r0, r0, r0, lsl #1
d00227fc:	00800080 	addeq	r0, r0, r0, lsl #1
d0022800:	7fff0080 	svcvc	0x00ff0080
d0022804:	00800080 	addeq	r0, r0, r0, lsl #1
d0022808:	01400140 	cmpeq	r0, r0, asr #2
d002280c:	02200220 	eoreq	r0, r0, #2
d0022810:	08080410 	stmdaeq	r8, {r4, sl}
d0022814:	60031004 	andvs	r1, r3, r4
d0022818:	10881044 	addne	r1, r8, r4, asr #32
d002281c:	04000888 	streq	r0, [r0], #-2184	; 0x888
d0022820:	40027ffe 	strdmi	r7, [r2], -lr
d0022824:	07f82001 	ldrbeq	r2, [r8, r1]!
d0022828:	01800200 	orreq	r0, r0, r0, lsl #4
d002282c:	00807fff 	strdeq	r7, [r0], pc
d0022830:	00800080 	addeq	r0, r0, r0, lsl #1
d0022834:	004000a0 	subeq	r0, r0, r0, lsr #1
d0022838:	24021400 	strcs	r1, [r2], #-1024	; 0x400
d002283c:	7fe40404 	svcvc	0x00e40404
d0022840:	04200420 	strteq	r0, [r0], #-1056	; 0x420
d0022844:	25e42427 	strbcs	r2, [r4, #1063]!	; 0x427
d0022848:	15242524 	strne	r2, [r4, #-1316]!	; 0x524
d002284c:	09341524 	ldmdbeq	r4!, {r2, r5, r8, sl, ip}
d0022850:	5494496c 	ldrpl	r4, [r4], #2412	; 0x96c
d0022854:	41086210 	tstmi	r8, r0, lsl r2
d0022858:	1e100008 	cdpne	0, 1, cr0, cr0, cr8, {0}
d002285c:	124412fe 	subne	r1, r4, #-536870897	; 0xe000000f
d0022860:	61ff1228 	mvnsvs	r1, r8, lsr #4
d0022864:	3f940008 	svccc	0x00940008
d0022868:	22282273 	eorcs	r2, r8, #805306375	; 0x30000007
d002286c:	14b31464 	ldrtne	r1, [r3], #1124	; 0x464
d0022870:	142408a8 	strtne	r0, [r4], #-2216	; 0x8a8
d0022874:	4190222b 	orrsmi	r2, r0, fp, lsr #4
d0022878:	10881044 	addne	r1, r8, r4, asr #32
d002287c:	04000888 	streq	r0, [r0], #-2184	; 0x888
d0022880:	40027ffe 	strdmi	r7, [r2], -lr
d0022884:	07f82001 	ldrbeq	r2, [r8, r1]!
d0022888:	01800200 	orreq	r0, r0, r0, lsl #4
d002288c:	00807fff 	strdeq	r7, [r0], pc
d0022890:	00800080 	addeq	r0, r0, r0, lsl #1
d0022894:	004000a0 	subeq	r0, r0, r0, lsr #1
d0022898:	041e0200 	ldreq	r0, [lr], #-512	; 0x200
d002289c:	404a7fd2 	ldrdmi	r7, [sl], #-242	; 0xffffff0e
d00228a0:	1f86202a 	svcne	0x0086202a
d00228a4:	0012000a 	andseq	r0, r2, sl
d00228a8:	09127fd2 	ldmdbeq	r2, {r1, r4, r6, r7, r8, r9, sl, fp, ip, sp, lr}
d00228ac:	090a0916 	stmdbeq	sl, {r1, r2, r4, r8, fp}
d00228b0:	48824882 	stmmi	r2, {r1, r7, fp, lr}
d00228b4:	00227042 	eoreq	r7, r2, r2, asr #32
d00228b8:	021e0200 	andseq	r0, lr, #0
d00228bc:	7fea0212 	svcvc	0x00ea0212
d00228c0:	0486010a 	streq	r0, [r6], #266	; 0x10a
d00228c4:	0452048a 	ldrbeq	r0, [r2], #-1162	; 0x48a
d00228c8:	04123fd2 	ldreq	r3, [r2], #-4050	; 0xfd2
d00228cc:	248a1496 	strcs	r1, [sl], #1174	; 0x496
d00228d0:	44224442 	strtmi	r4, [r2], #-1090	; 0x442
d00228d4:	02020502 	andeq	r0, r2, #8388608	; 0x800000
d00228d8:	03ff0000 	mvnseq	r0, #0
d00228dc:	22000200 	andcs	r0, r0, #0
d00228e0:	0a001200 	beq	d00270e8 <bss_end+0x6c0>
d00228e4:	0a000600 	beq	d00240ec <gImage_pic+0x1314>
d00228e8:	22001200 	andcs	r1, r0, #0
d00228ec:	04000400 	streq	r0, [r0], #-1024	; 0x400
d00228f0:	50004800 	andpl	r4, r0, r0, lsl #16
d00228f4:	40006000 	andmi	r6, r0, r0
d00228f8:	08200420 	stmdaeq	r0!, {r5, sl}
d00228fc:	03ff7c40 	mvnseq	r7, #16384	; 0x4000
d0022900:	42000100 	andmi	r0, r0, #0
d0022904:	77f84c40 	ldrbvc	r4, [r8, r0, asr #24]!
d0022908:	06480428 	strbeq	r0, [r8], -r8, lsr #8
d002290c:	1ff80008 	svcne	0x00f80008
d0022910:	11fe1000 	mvnsne	r1, r0
d0022914:	08001400 	stmdaeq	r0, {sl, ip}
d0022918:	04080408 	streq	r0, [r8], #-1032	; 0x408
d002291c:	04080408 	streq	r0, [r8], #-1032	; 0x408
d0022920:	04087fbf 	streq	r7, [r8], #-4031	; 0xfbf
d0022924:	0e1c0e0c 	cdpeq	14, 1, cr0, cr12, cr12, {0}
d0022928:	150a152a 	strne	r1, [sl, #-1322]	; 0x52a
d002292c:	44482489 	strbmi	r2, [r8], #-1161	; 0x489
d0022930:	04080428 	streq	r0, [r8], #-1064	; 0x428
d0022934:	04080408 	streq	r0, [r8], #-1032	; 0x408
d0022938:	02080208 	andeq	r0, r8, #-2147483648	; 0x80000000
d002293c:	3f04013c 	svccc	0x0004013c
d0022940:	207d2082 	rsbscs	r2, sp, r2, lsl #1
d0022944:	22082108 	andcs	r2, r8, #2
d0022948:	2808223f 	stmdacs	r8, {r0, r1, r2, r3, r4, r5, r9, sp}
d002294c:	22082408 	andcs	r2, r8, #134217728	; 0x8000000
d0022950:	201821a8 	andscs	r2, r8, r8, lsr #3
d0022954:	08001408 	stmdaeq	r0, {r3, sl, ip}
d0022958:	02080208 	andeq	r0, r8, #-2147483648	; 0x80000000
d002295c:	20843f3c 	addcs	r3, r4, ip, lsr pc
d0022960:	0a3d1142 	beq	d0f66e70 <bss_end+0xf40448>
d0022964:	02080408 	andeq	r0, r8, #134217728	; 0x8000000
d0022968:	3f88013f 	svccc	0x0088013f
d002296c:	21082148 	tstcs	r8, r8, asr #2
d0022970:	21182128 	tstcs	r8, r8, lsr #2
d0022974:	21003f08 	tstcs	r0, r8, lsl #30
d0022978:	0ff80000 	svceq	0x00f80000
d002297c:	08080808 	stmdaeq	r8, {r3, fp}
d0022980:	00000ff8 	strdeq	r0, [r0], -r8
d0022984:	1ffc0000 	svcne	0x00fc0000
d0022988:	00800080 	addeq	r0, r0, r0, lsl #1
d002298c:	01407fff 	strdeq	r7, [r0, #-255]	; 0xffffff01
d0022990:	04100220 	ldreq	r0, [r0], #-544	; 0x220
d0022994:	6003180c 	andvs	r1, r3, ip, lsl #16
d0022998:	3fc80008 	svccc	0x00c80008
d002299c:	00480048 	subeq	r0, r8, r8, asr #32
d00229a0:	00481f7f 	subeq	r1, r8, pc, ror pc
d00229a4:	3fe80048 	svccc	0x00e80048
d00229a8:	254c0558 	strbcs	r0, [ip, #-1368]	; 0x558
d00229ac:	0948154b 	stmdbeq	r8, {r0, r1, r3, r6, r8, sl, ip}^
d00229b0:	11280948 	teqne	r8, r8, asr #18
d00229b4:	4314252a 	tstmi	r4, #176160768	; 0xa800000
d00229b8:	04040208 	streq	r0, [r4], #-520	; 0x208
d00229bc:	3fa2003e 	svccc	0x00a2003e
d00229c0:	002a0026 	eoreq	r0, sl, r6, lsr #32
d00229c4:	093f0f2a 	ldmdbeq	pc!, {r1, r3, r5, r8, r9, sl, fp}
d00229c8:	09260922 	stmdbeq	r6!, {r1, r5, r8, fp}
d00229cc:	492a092a 	stmdbmi	sl!, {r1, r3, r5, r8, fp}
d00229d0:	48a24922 	stmiami	r2!, {r1, r5, r8, fp, lr}
d00229d4:	005170aa 	subseq	r7, r1, sl, lsr #1

d00229d8 <jmu_32_32>:
	...
d00229ec:	00208000 	eoreq	r8, r0, r0
d00229f0:	0070e000 	rsbseq	lr, r0, r0
d00229f4:	00303000 	eorseq	r3, r0, r0
d00229f8:	00081000 	andeq	r1, r8, r0
d00229fc:	01e40800 	mvneq	r0, r0, lsl #16
d0022a00:	00fe0400 	rscseq	r0, lr, r0, lsl #8
d0022a04:	007f1e00 	rsbseq	r1, pc, r0, lsl #28
d0022a08:	00f99f00 	rscseq	r9, r9, r0, lsl #30
d0022a0c:	007e0b00 	rsbseq	r0, lr, r0, lsl #22
d0022a10:	003f0900 	eorseq	r0, pc, r0, lsl #18
d0022a14:	00f80c00 	rscseq	r0, r8, r0, lsl #24
d0022a18:	003e0c00 	eorseq	r0, lr, r0, lsl #24
d0022a1c:	01db8c00 	bicseq	r8, fp, r0, lsl #24
d0022a20:	00fc0c00 	rscseq	r0, ip, r0, lsl #24
d0022a24:	000f8800 	andeq	r8, pc, r0, lsl #16
d0022a28:	030c0800 	movweq	r0, #51200	; 0xc800
d0022a2c:	07fc0800 	ldrbeq	r0, [ip, r0, lsl #16]!
d0022a30:	007ff000 	rsbseq	pc, pc, r0
d0022a34:	00183f80 	andseq	r3, r8, r0, lsl #31
d0022a38:	031801c0 	tsteq	r8, #48	; 0x30
d0022a3c:	03980040 	orrseq	r0, r8, #64	; 0x40
d0022a40:	03883800 	orreq	r3, r8, #0
d0022a44:	000c7c00 	andeq	r7, ip, r0, lsl #24
d0022a48:	00078400 	andeq	r8, r7, r0, lsl #8
d0022a4c:	00010000 	andeq	r0, r1, r0
	...
d0022a70:	00e00000 	rsceq	r0, r0, r0
d0022a74:	00e03000 	rsceq	r3, r0, r0
d0022a78:	00307800 	eorseq	r7, r0, r0, lsl #16
d0022a7c:	000c3800 	andeq	r3, ip, r0, lsl #16
d0022a80:	00230000 	eoreq	r0, r3, r0
d0022a84:	007e8000 	rsbseq	r8, lr, r0
d0022a88:	003ff000 	eorseq	pc, pc, r0
d0022a8c:	0007f800 	andeq	pc, r7, r0, lsl #16
d0022a90:	00278000 	eoreq	r8, r7, r0
d0022a94:	007f6000 	rsbseq	r6, pc, r0
d0022a98:	003ff800 	eorseq	pc, pc, r0, lsl #16
d0022a9c:	0003f800 	andeq	pc, r3, r0, lsl #16
d0022aa0:	007f0000 	rsbseq	r0, pc, r0
d0022aa4:	00fff800 	rscseq	pc, pc, r0, lsl #16
d0022aa8:	007ffc00 	rsbseq	pc, pc, r0, lsl #24
d0022aac:	00030000 	andeq	r0, r3, r0
d0022ab0:	00038000 	andeq	r8, r3, r0
d0022ab4:	07ffe000 	ldrbeq	lr, [pc, r0]!
d0022ab8:	07ffffc0 	ldrbeq	pc, [pc, r0, asr #31]!
d0022abc:	0007ffc0 	andeq	pc, r7, r0, asr #31
d0022ac0:	0000e000 	andeq	lr, r0, r0
d0022ac4:	00f07000 	rscseq	r7, r0, r0
d0022ac8:	00f03000 	rscseq	r3, r0, r0
d0022acc:	00e00800 	rsceq	r0, r0, r0, lsl #16
d0022ad0:	00000400 	andeq	r0, r0, r0, lsl #8
	...
d0022af4:	000e0000 	andeq	r0, lr, r0
d0022af8:	000e0000 	andeq	r0, lr, r0
d0022afc:	00070000 	andeq	r0, r7, r0
d0022b00:	00070000 	andeq	r0, r7, r0
d0022b04:	00030000 	andeq	r0, r3, r0
d0022b08:	00030000 	andeq	r0, r3, r0
d0022b0c:	00030000 	andeq	r0, r3, r0
d0022b10:	00370000 	eorseq	r0, r7, r0
d0022b14:	00ff8000 	rscseq	r8, pc, r0
d0022b18:	007ff800 	rsbseq	pc, pc, r0, lsl #16
d0022b1c:	0007fe00 	andeq	pc, r7, r0, lsl #28
d0022b20:	0001fe00 	andeq	pc, r1, r0, lsl #28
d0022b24:	0001c000 	andeq	ip, r1, r0
d0022b28:	0000c000 	andeq	ip, r0, r0
d0022b2c:	0000e000 	andeq	lr, r0, r0
d0022b30:	00006000 	andeq	r6, r0, r0
d0022b34:	00033000 	andeq	r3, r3, r0
d0022b38:	00071800 	andeq	r1, r7, r0, lsl #16
d0022b3c:	003e0c00 	eorseq	r0, lr, r0, lsl #24
d0022b40:	03fc0600 	mvnseq	r0, #0
d0022b44:	3ff00300 	svccc	0x00f00300
d0022b48:	0f000080 	svceq	0x00000080
d0022b4c:	00000040 	andeq	r0, r0, r0, asr #32
d0022b50:	00000020 	andeq	r0, r0, r0, lsr #32
	...
d0022b70:	00c00000 	sbceq	r0, r0, r0
d0022b74:	00e03000 	rsceq	r3, r0, r0
d0022b78:	00e3f000 	rsceq	pc, r3, r0
d0022b7c:	0011d800 	andseq	sp, r1, r0, lsl #16
d0022b80:	00080800 	andeq	r0, r8, r0, lsl #16
d0022b84:	00000000 	andeq	r0, r0, r0
d0022b88:	03f00000 	mvnseq	r0, #0
d0022b8c:	07ffc600 	ldrbeq	ip, [pc, r0, lsl #12]!
d0022b90:	031ffe00 	tstpeq	pc, #0
d0022b94:	03807f00 	orreq	r7, r0, #0
d0022b98:	00180380 	andseq	r0, r8, r0, lsl #7
d0022b9c:	007f8380 	rsbseq	r8, pc, r0, lsl #7
d0022ba0:	0037e180 	eorseq	lr, r7, r0, lsl #3
d0022ba4:	00383180 	eorseq	r3, r8, r0, lsl #3
d0022ba8:	001c3000 	andseq	r3, ip, r0
d0022bac:	000e0000 	andeq	r0, lr, r0
d0022bb0:	00fe0000 	rscseq	r0, lr, r0
d0022bb4:	00ffc000 	rscseq	ip, pc, r0
d0022bb8:	00fff000 	rscseq	pc, pc, r0
d0022bbc:	003ff000 	eorseq	pc, pc, r0
d0022bc0:	00100000 	andseq	r0, r0, r0
d0022bc4:	00080000 	andeq	r0, r8, r0
d0022bc8:	00040000 	andeq	r0, r4, r0
d0022bcc:	0003c000 	andeq	ip, r3, r0
d0022bd0:	0001c000 	andeq	ip, r1, r0
	...
d0022bec:	00100000 	andseq	r0, r0, r0
d0022bf0:	00300000 	eorseq	r0, r0, r0
d0022bf4:	02301800 	eorseq	r1, r0, #0
d0022bf8:	07301c00 	ldreq	r1, [r0, -r0, lsl #24]!
d0022bfc:	07b01e00 	ldreq	r1, [r0, r0, lsl #28]!
d0022c00:	03200600 	teqeq	r0, #0
d0022c04:	00600000 	rsbeq	r0, r0, r0
d0022c08:	01608000 	cmneq	r0, r0
d0022c0c:	01fcc000 	mvnseq	ip, r0
d0022c10:	004f4000 	subeq	r4, pc, r0
d0022c14:	00615800 	rsbeq	r5, r1, r0, lsl #16
d0022c18:	06d8ef00 	ldrbeq	lr, [r8], r0, lsl #30
d0022c1c:	07c463f8 	undefined instruction 0x07c463f8
d0022c20:	0682613c 	undefined instruction 0x0682613c
d0022c24:	07bf208c 	ldreq	r2, [pc, ip, lsl #1]!
d0022c28:	07bff0c0 	ldreq	pc, [pc, r0, asr #1]!
d0022c2c:	0331e8c0 	teqeq	r1, #12582912	; 0xc00000
d0022c30:	03302d80 	teqeq	r0, #8192	; 0x2000
d0022c34:	03902780 	orrseq	r2, r0, #33554432	; 0x2000000
d0022c38:	028c2380 	addeq	r2, ip, #2
d0022c3c:	06462180 	strbeq	r2, [r6], -r0, lsl #3
d0022c40:	042021c0 	strteq	r2, [r0], #-448	; 0x1c0
d0022c44:	0c1800c0 	ldceq	0, cr0, [r8], {192}	; 0xc0
d0022c48:	38040040 	stmdacc	r4, {r6}
d0022c4c:	10020000 	andne	r0, r2, r0
	...
d0022c70:	00002000 	andeq	r2, r0, r0
d0022c74:	00003000 	andeq	r3, r0, r0
d0022c78:	03003000 	movweq	r3, #0
d0022c7c:	03980000 	orrseq	r0, r8, #0
d0022c80:	02f86000 	rscseq	r6, r8, #0
d0022c84:	03387e00 	teqeq	r8, #0
d0022c88:	01083f80 	smlabbeq	r8, r0, pc, r3
d0022c8c:	0f0c7dc0 	svceq	0x000c7dc0
d0022c90:	0f046e40 	svceq	0x00046e40
d0022c94:	03043b00 	movweq	r3, #19200	; 0x4b00
d0022c98:	01867d00 	orreq	r7, r6, r0, lsl #26
d0022c9c:	00427f00 	subeq	r7, r2, r0, lsl #30
d0022ca0:	07b01fc0 	ldreq	r1, [r0, r0, asr #31]!
d0022ca4:	07f80fe0 	ldrbeq	r0, [r8, r0, ror #31]!
d0022ca8:	07fc6f00 	ldrbeq	r6, [ip, r0, lsl #30]!
d0022cac:	07fc1980 	ldrbeq	r1, [ip, r0, lsl #19]!
d0022cb0:	031c33c0 	tsteq	ip, #3
d0022cb4:	038077c0 	orreq	r7, r0, #50331648	; 0x3000000
d0022cb8:	01cf33e0 	biceq	r3, pc, r0, ror #7
d0022cbc:	00fe33e0 	rscseq	r3, lr, r0, ror #7
d0022cc0:	0ffc1180 	svceq	0x00fc1180
d0022cc4:	7fff1840 	svcvc	0x00ff1840
d0022cc8:	1e01fe20 	cdpne	14, 0, cr15, cr1, cr0, {1}
d0022ccc:	00000200 	andeq	r0, r0, r0, lsl #4
	...
d0022cf0:	00c00000 	sbceq	r0, r0, r0
d0022cf4:	00e03000 	rsceq	r3, r0, r0
d0022cf8:	00e3f000 	rsceq	pc, r3, r0
d0022cfc:	0011d800 	andseq	sp, r1, r0, lsl #16
d0022d00:	00080800 	andeq	r0, r8, r0, lsl #16
d0022d04:	00000000 	andeq	r0, r0, r0
d0022d08:	03f00000 	mvnseq	r0, #0
d0022d0c:	07ffc600 	ldrbeq	ip, [pc, r0, lsl #12]!
d0022d10:	031ffe00 	tstpeq	pc, #0
d0022d14:	03807f00 	orreq	r7, r0, #0
d0022d18:	00180380 	andseq	r0, r8, r0, lsl #7
d0022d1c:	007f8380 	rsbseq	r8, pc, r0, lsl #7
d0022d20:	0037e180 	eorseq	lr, r7, r0, lsl #3
d0022d24:	00383180 	eorseq	r3, r8, r0, lsl #3
d0022d28:	001c3000 	andseq	r3, ip, r0
d0022d2c:	000e0000 	andeq	r0, lr, r0
d0022d30:	00fe0000 	rscseq	r0, lr, r0
d0022d34:	00ffc000 	rscseq	ip, pc, r0
d0022d38:	00fff000 	rscseq	pc, pc, r0
d0022d3c:	003ff000 	eorseq	pc, pc, r0
d0022d40:	00100000 	andseq	r0, r0, r0
d0022d44:	00080000 	andeq	r0, r8, r0
d0022d48:	00040000 	andeq	r0, r4, r0
d0022d4c:	0003c000 	andeq	ip, r3, r0
d0022d50:	0001c000 	andeq	ip, r1, r0
	...
d0022d70:	00400000 	subeq	r0, r0, r0
d0022d74:	00f00000 	rscseq	r0, r0, r0
d0022d78:	00701800 	rsbseq	r1, r0, r0, lsl #16
d0022d7c:	00083f80 	andeq	r3, r8, r0, lsl #31
d0022d80:	00003fc0 	andeq	r3, r0, r0, asr #31
d0022d84:	07e233c0 	strbeq	r3, [r2, r0, asr #7]!
d0022d88:	07ff1800 	ldrbeq	r1, [pc, r0, lsl #16]!
d0022d8c:	061f8d00 	ldreq	r8, [pc], -r0, lsl #26
d0022d90:	03038f80 	movweq	r8, #16256	; 0x3f80
d0022d94:	0000dec0 	andeq	sp, r0, r0, asr #29
d0022d98:	0038dcc0 	eorseq	sp, r8, r0, asr #25
d0022d9c:	00381840 	eorseq	r1, r8, r0, asr #16
d0022da0:	00041860 	andeq	r1, r4, r0, ror #16
d0022da4:	00e20860 	rsceq	r0, r2, r0, ror #16
d0022da8:	007d0e20 	rsbseq	r0, sp, r0, lsr #28
d0022dac:	002f0760 	eoreq	r0, pc, r0, ror #14
d0022db0:	0411c060 	ldreq	ip, [r1], #-96	; 0x60
d0022db4:	04084060 	streq	r4, [r8], #-96	; 0x60
d0022db8:	181c0060 	ldmdane	ip, {r5, r6}
d0022dbc:	183e0040 	ldmdane	lr!, {r6}
d0022dc0:	0c3f8040 	ldceq	0, cr8, [pc], #-256	; 0xffffff00
d0022dc4:	07f180c0 	ldrbeq	r8, [r1, r0, asr #1]!
d0022dc8:	00000080 	andeq	r0, r0, r0, lsl #1
	...

d0022dd8 <gImage_pic>:
	...
d0022de0:	ababab8a 	blge	ceb0dc10 <_start-0x1512400>
d0022de4:	aaaabbab 	bge	cead1c98 <_start-0x154e378>
d0022de8:	aaaaaaaa 	bge	ceacd898 <_start-0x1552778>
d0022dec:	00000080 	andeq	r0, r0, r0, lsl #1
d0022df0:	00000000 	andeq	r0, r0, r0
d0022df4:	abaaaa8a 	blge	ceacd824 <_start-0x15527ec>
d0022df8:	0000abab 	andeq	sl, r0, fp, lsr #23
d0022dfc:	00000000 	andeq	r0, r0, r0
d0022e00:	5f010000 	svcpl	0x00010000
d0022e04:	ffffffff 	undefined instruction 0xffffffff
d0022e08:	ffffffff 	undefined instruction 0xffffffff
d0022e0c:	000055ff 	strdeq	r5, [r0], -pc
d0022e10:	00000000 	andeq	r0, r0, r0
d0022e14:	ff010000 	undefined instruction 0xff010000
d0022e18:	ffffffff 	undefined instruction 0xffffffff
	...
d0022e24:	aaaaaa0a 	bge	ceacd654 <_start-0x15529bc>
d0022e28:	aaaaaaae 	bge	ceacd8e8 <_start-0x1552728>
d0022e2c:	aaaaaaaa 	bge	ceacd8dc <_start-0x1552734>
d0022e30:	000000a0 	andeq	r0, r0, r0, lsr #1
d0022e34:	00000000 	andeq	r0, r0, r0
d0022e38:	aaaaaa2a 	bge	ceacd6e8 <_start-0x1552928>
d0022e3c:	0000aaaa 	andeq	sl, r0, sl, lsr #21
d0022e40:	00000000 	andeq	r0, r0, r0
d0022e44:	ff050000 	undefined instruction 0xff050000
d0022e48:	ffffffff 	undefined instruction 0xffffffff
d0022e4c:	dfffdfff 	svcle	0x00ffdfff
d0022e50:	00c0ddff 	strdeq	sp, [r0], #223	; 0xdf
d0022e54:	00000000 	andeq	r0, r0, r0
d0022e58:	df050000 	svcle	0x00050000
d0022e5c:	ffffffff 	undefined instruction 0xffffffff
d0022e60:	00000000 	andeq	r0, r0, r0
d0022e64:	08000000 	stmdaeq	r0, {}
d0022e68:	bbbbbaaa 	bllt	cef11918 <_start-0x110e6f8>
d0022e6c:	aababbbb 	bge	ceed1d60 <_start-0x114e2b0>
d0022e70:	aaaaaaaa 	bge	ceacd920 <_start-0x15526f0>
d0022e74:	000080aa 	andeq	r8, r0, sl, lsr #1
d0022e78:	00000000 	andeq	r0, r0, r0
d0022e7c:	baaaaaaa 	blt	ceacd92c <_start-0x15526e4>
d0022e80:	0000aaba 	strheq	sl, [r0], -sl
d0022e84:	00000000 	andeq	r0, r0, r0
d0022e88:	ff170000 	undefined instruction 0xff170000
d0022e8c:	ffffffff 	undefined instruction 0xffffffff
d0022e90:	ffffffff 	undefined instruction 0xffffffff
d0022e94:	00fdfdff 	ldrshteq	pc, [sp], #223	; 0xdf
d0022e98:	00000000 	andeq	r0, r0, r0
d0022e9c:	7f150000 	svcvc	0x00150000
d0022ea0:	ffffffff 	undefined instruction 0xffffffff
	...
d0022eac:	aaaaaaaa 	bge	ceacd95c <_start-0x15526b4>
d0022eb0:	aaeaaaaa 	bge	cfacd960 <_start-0x5526b0>
d0022eb4:	aaaaaaaa 	bge	ceacd964 <_start-0x15526ac>
d0022eb8:	0000a0aa 	andeq	sl, r0, sl, lsr #1
d0022ebc:	00000000 	andeq	r0, r0, r0
d0022ec0:	aaaaaa2a 	bge	ceacd770 <_start-0x15528a0>
d0022ec4:	0000aaaa 	andeq	sl, r0, sl, lsr #21
d0022ec8:	00000000 	andeq	r0, r0, r0
d0022ecc:	ff5f0000 	undefined instruction 0xff5f0000
d0022ed0:	ffffffff 	undefined instruction 0xffffffff
d0022ed4:	ffddfdfd 	undefined instruction 0xffddfdfd
d0022ed8:	c0fffdff 	ldrshtgt	pc, [pc, #223]	; d0022fbf <gImage_pic+0x1e7>
d0022edc:	00000000 	andeq	r0, r0, r0
d0022ee0:	dd050000 	stcle	0, cr0, [r5]
d0022ee4:	ffffffff 	undefined instruction 0xffffffff
d0022ee8:	00000000 	andeq	r0, r0, r0
d0022eec:	8a000000 	bhi	d0022ef4 <gImage_pic+0x11c>
d0022ef0:	bbababab 	bllt	ceb0dda4 <_start-0x151226c>
d0022ef4:	aababbbb 	bge	ceed1de8 <_start-0x114e228>
d0022ef8:	aaabaaaa 	bge	ceb0d9a8 <_start-0x1512668>
d0022efc:	0000a8bb 	strheq	sl, [r0], -fp
d0022f00:	00000000 	andeq	r0, r0, r0
d0022f04:	ababaaaa 	blge	ceb0d9b4 <_start-0x151265c>
d0022f08:	0000aaab 	andeq	sl, r0, fp, lsr #21
d0022f0c:	00000000 	andeq	r0, r0, r0
d0022f10:	ff7f0100 	undefined instruction 0xff7f0100
d0022f14:	ffffffff 	undefined instruction 0xffffffff
d0022f18:	ffffffff 	undefined instruction 0xffffffff
d0022f1c:	f07fffff 	undefined instruction 0xf07fffff
d0022f20:	00000000 	andeq	r0, r0, r0
d0022f24:	ff170000 	undefined instruction 0xff170000
d0022f28:	ffffffff 	undefined instruction 0xffffffff
d0022f2c:	00000000 	andeq	r0, r0, r0
d0022f30:	2a000000 	bcs	d0022f38 <gImage_pic+0x160>
d0022f34:	aaaeaaaa 	bge	cebcd9e4 <_start-0x145262c>
d0022f38:	aaaaaeae 	bge	ceace9f8 <_start-0x1551618>
d0022f3c:	aaaaaaaa 	bge	ceacd9ec <_start-0x1552624>
d0022f40:	0000aaae 	andeq	sl, r0, lr, lsr #21
d0022f44:	02000000 	andeq	r0, r0, #0
d0022f48:	aaaaaaaa 	bge	ceacd9f8 <_start-0x1552618>
d0022f4c:	0000aaaa 	andeq	sl, r0, sl, lsr #21
d0022f50:	00000000 	andeq	r0, r0, r0
d0022f54:	ffff0500 	undefined instruction 0xffff0500
d0022f58:	ffffffff 	undefined instruction 0xffffffff
d0022f5c:	ffdfffff 	undefined instruction 0xffdfffff
d0022f60:	fcdfffff 	ldc2l	15, cr15, [pc], {255}	; 0xff
d0022f64:	00000000 	andeq	r0, r0, r0
d0022f68:	df5d0000 	svcle	0x005d0000
d0022f6c:	ffffffff 	undefined instruction 0xffffffff
d0022f70:	00000000 	andeq	r0, r0, r0
d0022f74:	aa080000 	bge	d0222f7c <bss_end+0x1fc554>
d0022f78:	bbbbbbbb 	bllt	cef11e6c <_start-0x110e1a4>
d0022f7c:	aababbbb 	bge	ceed1e70 <_start-0x114e1a0>
d0022f80:	baabaaaa 	blt	ceb0da30 <_start-0x15125e0>
d0022f84:	0080baab 	addeq	fp, r0, fp, lsr #21
d0022f88:	0a000000 	beq	d0022f90 <gImage_pic+0x1b8>
d0022f8c:	babbaaaa 	blt	cef0da3c <_start-0x11125d4>
d0022f90:	0000aaba 	strheq	sl, [r0], -sl
d0022f94:	00000000 	andeq	r0, r0, r0
d0022f98:	ffff1700 	undefined instruction 0xffff1700
d0022f9c:	ffffffff 	undefined instruction 0xffffffff
d0022fa0:	ffffffff 	undefined instruction 0xffffffff
d0022fa4:	fdffffff 	ldc2l	15, cr15, [pc, #1020]!	; 0x3fc
d0022fa8:	00000000 	andeq	r0, r0, r0
d0022fac:	ff570100 	undefined instruction 0xff570100
d0022fb0:	ffffffff 	undefined instruction 0xffffffff
d0022fb4:	00000000 	andeq	r0, r0, r0
d0022fb8:	aa000000 	bge	d0022fc0 <gImage_pic+0x1e8>
d0022fbc:	aaaaaaaa 	bge	ceacda6c <_start-0x15525a4>
d0022fc0:	aaeaeaea 	bge	cfaddb70 <_start-0x5424a0>
d0022fc4:	aaaaaaaa 	bge	ceacda74 <_start-0x155259c>
d0022fc8:	00a0eaaa 	adceq	lr, r0, sl, lsr #21
d0022fcc:	2a000000 	bcs	d0022fd4 <gImage_pic+0x1fc>
d0022fd0:	aaaaaaaa 	bge	ceacda80 <_start-0x1552590>
d0022fd4:	0000aaaa 	andeq	sl, r0, sl, lsr #21
d0022fd8:	00000000 	andeq	r0, r0, r0
d0022fdc:	ffff5d00 	undefined instruction 0xffff5d00
d0022fe0:	ffffffff 	undefined instruction 0xffffffff
d0022fe4:	ffffddff 	undefined instruction 0xffffddff
d0022fe8:	ffffffff 	undefined instruction 0xffffffff
d0022fec:	000000c0 	andeq	r0, r0, r0, asr #1
d0022ff0:	df5d0400 	svcle	0x005d0400
d0022ff4:	ffffffff 	undefined instruction 0xffffffff
d0022ff8:	00000000 	andeq	r0, r0, r0
d0022ffc:	ab8a0000 	blge	ce2a3004 <_start-0x1d7d00c>
d0023000:	bbababab 	bllt	ceb0deb4 <_start-0x151215c>
d0023004:	abaabbbb 	blge	cead1ef8 <_start-0x154e118>
d0023008:	abbbbbab 	blge	cef11ebc <_start-0x110e154>
d002300c:	80a8fbab 	adchi	pc, r8, fp, lsr #23
d0023010:	aa000000 	bge	d0023018 <gImage_pic+0x240>
d0023014:	abababaa 	blge	ceb0dec4 <_start-0x151214c>
d0023018:	0000abab 	andeq	sl, r0, fp, lsr #23
d002301c:	00000000 	andeq	r0, r0, r0
d0023020:	ffff7f01 	undefined instruction 0xffff7f01
d0023024:	ffffffff 	undefined instruction 0xffffffff
d0023028:	ffffffff 	undefined instruction 0xffffffff
d002302c:	ffffffff 	undefined instruction 0xffffffff
d0023030:	000000f1 	strdeq	r0, [r0], -r1
d0023034:	ff571501 	undefined instruction 0xff571501
d0023038:	ffffffff 	undefined instruction 0xffffffff
d002303c:	00000000 	andeq	r0, r0, r0
d0023040:	aa0a0000 	bge	d02a3048 <bss_end+0x27c620>
d0023044:	aeaaaaaa 	vfmage.f32	s20, s21, s21
d0023048:	aaaaaeae 	bge	ceaceb08 <_start-0x1551508>
d002304c:	aaaeaaaa 	bge	cebcdafc <_start-0x1452514>
d0023050:	a0aaeeaa 	adcge	lr, sl, sl, lsr #29
d0023054:	aa0a0000 	bge	d02a305c <bss_end+0x27c634>
d0023058:	aaaaaaaa 	bge	ceacdb08 <_start-0x1552508>
d002305c:	0000aaaa 	andeq	sl, r0, sl, lsr #21
d0023060:	00000000 	andeq	r0, r0, r0
d0023064:	ffffff05 	undefined instruction 0xffffff05
d0023068:	ffffffff 	undefined instruction 0xffffffff
d002306c:	ffffffff 	undefined instruction 0xffffffff
d0023070:	fffdffff 	undefined instruction 0xfffdffff
d0023074:	0000c0ff 	strdeq	ip, [r0], -pc
d0023078:	ffdf4500 	undefined instruction 0xffdf4500
d002307c:	ffffffff 	undefined instruction 0xffffffff
d0023080:	00000000 	andeq	r0, r0, r0
d0023084:	aa8a0000 	bge	ce2a308c <_start-0x1d7cf84>
d0023088:	bbbbbbaa 	bllt	cef11f38 <_start-0x110e0d8>
d002308c:	aabbbbbb 	bge	cef11f80 <_start-0x110e090>
d0023090:	aabbbbaa 	bge	cef11f40 <_start-0x110e0d0>
d0023094:	aababbaa 	bge	ceed1f44 <_start-0x114e0cc>
d0023098:	aaaa08a8 	bge	ceaa5340 <_start-0x157acd0>
d002309c:	baaabaaa 	blt	cead1b4c <_start-0x154e4c4>
d00230a0:	0000aaaa 	andeq	sl, r0, sl, lsr #21
d00230a4:	00000000 	andeq	r0, r0, r0
d00230a8:	ffffff17 	undefined instruction 0xffffff17
d00230ac:	ffffffff 	undefined instruction 0xffffffff
d00230b0:	ffffffff 	undefined instruction 0xffffffff
d00230b4:	5fffffff 	svcpl	0x00ffffff
d00230b8:	0050fdff 	ldrsheq	pc, [r0], #-223	; 0xffffff21
d00230bc:	ff7f5511 	undefined instruction 0xff7f5511
d00230c0:	ffffffff 	undefined instruction 0xffffffff
d00230c4:	00000000 	andeq	r0, r0, r0
d00230c8:	aa2a0000 	bge	d0aa30d0 <bss_end+0xa7c6a8>
d00230cc:	aaaaaaaa 	bge	ceacdb7c <_start-0x1552494>
d00230d0:	eaaaeaea 	b	ceaddc80 <_start-0x1542390>
d00230d4:	aaaaaaaa 	bge	ceacdb84 <_start-0x155248c>
d00230d8:	eaaeaaaa 	b	cebcdb88 <_start-0x1452488>
d00230dc:	aaaa2aaa 	bge	ceaadb8c <_start-0x1572484>
d00230e0:	aaaaaaaa 	bge	ceacdb90 <_start-0x1552480>
d00230e4:	0000aaaa 	andeq	sl, r0, sl, lsr #21
d00230e8:	00000000 	andeq	r0, r0, r0
d00230ec:	ffffff05 	undefined instruction 0xffffff05
d00230f0:	ffffffff 	undefined instruction 0xffffffff
d00230f4:	fdddfdff 	ldc2l	13, cr15, [sp, #1020]	; 0x3fc
d00230f8:	c4fdffff 	ldrbtgt	pc, [sp], #4095	; 0xfff
d00230fc:	00c0fd5d 	sbceq	pc, r0, sp, asr sp
d0023100:	ffffdd04 	undefined instruction 0xffffdd04
d0023104:	ffffffff 	undefined instruction 0xffffffff
d0023108:	00000000 	andeq	r0, r0, r0
d002310c:	aaaa0000 	bge	ceaa3114 <_start-0x157cefc>
d0023110:	bbbbabab 	bllt	cef0dfc4 <_start-0x111204c>
d0023114:	aabbbbbb 	bge	cef12008 <_start-0x110e008>
d0023118:	ababaaaa 	blge	ceb0dbc8 <_start-0x1512448>
d002311c:	aaaaaaaa 	bge	ceacdbcc <_start-0x1552444>
d0023120:	aaaaaaa8 	bge	ceacdbc8 <_start-0x1552448>
d0023124:	abababab 	blge	ceb0dfd8 <_start-0x1512038>
d0023128:	0000aaab 	andeq	sl, r0, fp, lsr #21
d002312c:	00000000 	andeq	r0, r0, r0
d0023130:	ffffff17 	undefined instruction 0xffffff17
d0023134:	ffffffff 	undefined instruction 0xffffffff
d0023138:	ffffffff 	undefined instruction 0xffffffff
d002313c:	d1ffffff 	ldrshle	pc, [pc, #255]	; d0023243 <gImage_pic+0x46b>
d0023140:	11015511 	tstne	r1, r1, lsl r5
d0023144:	ffffff57 	undefined instruction 0xffffff57
d0023148:	ffffffff 	undefined instruction 0xffffffff
d002314c:	00000000 	andeq	r0, r0, r0
d0023150:	aaaa0200 	bge	ceaa3958 <_start-0x157c6b8>
d0023154:	aeaeaaaa 	vfmage.f32	s20, s29, s21
d0023158:	aaaeaeae 	bge	cebcec18 <_start-0x14513f8>
d002315c:	aaaaaaaa 	bge	ceacdc0c <_start-0x1552404>
d0023160:	aaaaaaaa 	bge	ceacdc10 <_start-0x1552400>
d0023164:	aaaaaaaa 	bge	ceacdc14 <_start-0x15523fc>
d0023168:	aaaaaaaa 	bge	ceacdc18 <_start-0x15523f8>
d002316c:	0000aaaa 	andeq	sl, r0, sl, lsr #21
d0023170:	00000000 	andeq	r0, r0, r0
d0023174:	ffffdf5d 	undefined instruction 0xffffdf5d
d0023178:	ffffffff 	undefined instruction 0xffffffff
d002317c:	dfdfffff 	svcle	0x00dfffff
d0023180:	ddffffdf 	ldclle	15, cr15, [pc, #892]!	; 0x37c
d0023184:	5d455555 	cfstr64pl	mvdx5, [r5, #-340]	; 0xfffffeac
d0023188:	ffffffdf 	undefined instruction 0xffffffdf
d002318c:	ffffffff 	undefined instruction 0xffffffff
d0023190:	00000000 	andeq	r0, r0, r0
d0023194:	aaaa0800 	bge	ceaa519c <_start-0x157ae74>
d0023198:	bbbbbbab 	bllt	cef1204c <_start-0x110dfc4>
d002319c:	babbbbbb 	blt	cef12090 <_start-0x110df80>
d00231a0:	aaaaaaaa 	bge	ceacdc50 <_start-0x15523c0>
d00231a4:	aaaaaaaa 	bge	ceacdc54 <_start-0x15523bc>
d00231a8:	aaaaaaaa 	bge	ceacdc58 <_start-0x15523b8>
d00231ac:	aabababa 	bge	ceed1c9c <_start-0x114e374>
d00231b0:	0000aaaa 	andeq	sl, r0, sl, lsr #21
d00231b4:	01000000 	tsteq	r0, r0
d00231b8:	ffffff57 	undefined instruction 0xffffff57
d00231bc:	ffffffff 	undefined instruction 0xffffffff
d00231c0:	ffffffff 	undefined instruction 0xffffffff
d00231c4:	ffffffff 	undefined instruction 0xffffffff
d00231c8:	ff777775 	undefined instruction 0xff777775
d00231cc:	ffffffff 	undefined instruction 0xffffffff
d00231d0:	ffffffff 	undefined instruction 0xffffffff
d00231d4:	00000000 	andeq	r0, r0, r0
d00231d8:	aaaa0200 	bge	ceaa39e0 <_start-0x157c630>
d00231dc:	eaaaaaaa 	b	ceacdc8c <_start-0x1552384>
d00231e0:	aaeeeaea 	bge	cfbddd90 <_start-0x442280>
d00231e4:	aaaaaaaa 	bge	ceacdc94 <_start-0x155237c>
d00231e8:	aaaaaaaa 	bge	ceacdc98 <_start-0x1552378>
d00231ec:	aaaaaaaa 	bge	ceacdc9c <_start-0x1552374>
d00231f0:	aaaaaaaa 	bge	ceacdca0 <_start-0x1552370>
d00231f4:	0000aaaa 	andeq	sl, r0, sl, lsr #21
d00231f8:	00000000 	andeq	r0, r0, r0
d00231fc:	ffffff5d 	undefined instruction 0xffffff5d
d0023200:	ffffffff 	undefined instruction 0xffffffff
d0023204:	ddddfdff 	ldclle	13, cr15, [sp, #1020]	; 0x3fc
d0023208:	ddfdffdd 	ldclle	15, cr15, [sp, #884]!	; 0x374
d002320c:	fffddddd 	undefined instruction 0xfffddddd
d0023210:	ffffffff 	undefined instruction 0xffffffff
d0023214:	ffffffff 	undefined instruction 0xffffffff
d0023218:	00000000 	andeq	r0, r0, r0
d002321c:	abaa0a00 	blge	ceaa5a24 <_start-0x157a5ec>
d0023220:	bbbbbbab 	bllt	cef120d4 <_start-0x110df3c>
d0023224:	bbbbbbbb 	bllt	cef12118 <_start-0x110def8>
d0023228:	abaaaaaa 	blge	ceacdcd8 <_start-0x1552338>
d002322c:	aaaaaaaa 	bge	ceacdcdc <_start-0x1552334>
d0023230:	abababaa 	blge	ceb0e0e0 <_start-0x1511f30>
d0023234:	abababab 	blge	ceb0e0e8 <_start-0x1511f28>
d0023238:	0000aaaa 	andeq	sl, r0, sl, lsr #21
d002323c:	01000000 	tsteq	r0, r0
d0023240:	ffffff7f 	undefined instruction 0xffffff7f
d0023244:	ffffffff 	undefined instruction 0xffffffff
d0023248:	ffffffff 	undefined instruction 0xffffffff
d002324c:	15f1ffff 	ldrbne	pc, [r1, #4095]!	; 0xfff
d0023250:	ffffff77 	undefined instruction 0xffffff77
d0023254:	ffffffff 	undefined instruction 0xffffffff
d0023258:	ffffffff 	undefined instruction 0xffffffff
d002325c:	00000000 	andeq	r0, r0, r0
d0023260:	aaaa0a00 	bge	ceaa5a68 <_start-0x157a5a8>
d0023264:	aeaeaeaa 	cdpge	14, 10, cr10, cr14, cr10, {5}
d0023268:	eeaeaeae 	cdp	14, 10, cr10, cr14, cr14, {5}
d002326c:	aaaaaaaa 	bge	ceacdd1c <_start-0x15522f4>
d0023270:	aaaaaaaa 	bge	ceacdd20 <_start-0x15522f0>
d0023274:	aaaaaaaa 	bge	ceacdd24 <_start-0x15522ec>
d0023278:	aaaaaaaa 	bge	ceacdd28 <_start-0x15522e8>
d002327c:	0000aaaa 	andeq	sl, r0, sl, lsr #21
d0023280:	01000000 	tsteq	r0, r0
d0023284:	ffffffdf 	undefined instruction 0xffffffdf
d0023288:	ffffffff 	undefined instruction 0xffffffff
d002328c:	ddffffff 	ldclle	15, cr15, [pc, #1020]!	; 0x3fc
d0023290:	00dcdfdd 	ldrsbeq	sp, [ip], #253	; 0xfd
d0023294:	ffffdf45 	undefined instruction 0xffffdf45
d0023298:	ffffffff 	undefined instruction 0xffffffff
d002329c:	ffffffff 	undefined instruction 0xffffffff
d00232a0:	00000000 	andeq	r0, r0, r0
d00232a4:	aaaa0a00 	bge	ceaa5aac <_start-0x157a564>
d00232a8:	bbbbbbbb 	bllt	cef1219c <_start-0x110de74>
d00232ac:	bbbbbbbb 	bllt	cef121a0 <_start-0x110de70>
d00232b0:	aaaaaaba 	bge	ceacdda0 <_start-0x1552270>
d00232b4:	aaaaaaaa 	bge	ceacdd64 <_start-0x15522ac>
d00232b8:	baaabaaa 	blt	cead1d68 <_start-0x154e2a8>
d00232bc:	aaaabaaa 	bge	cead1d6c <_start-0x154e2a4>
d00232c0:	0000aaaa 	andeq	sl, r0, sl, lsr #21
d00232c4:	01000000 	tsteq	r0, r0
d00232c8:	ffffff7f 	undefined instruction 0xffffff7f
d00232cc:	ffffffff 	undefined instruction 0xffffffff
d00232d0:	ffffffff 	undefined instruction 0xffffffff
d00232d4:	10f5ffff 	ldrshtne	pc, [r5], #255	; 0xff
d00232d8:	ffff7f01 	undefined instruction 0xffff7f01
d00232dc:	ffffffff 	undefined instruction 0xffffffff
d00232e0:	ffffffff 	undefined instruction 0xffffffff
d00232e4:	00000000 	andeq	r0, r0, r0
d00232e8:	aaaa0a00 	bge	ceaa5af0 <_start-0x157a520>
d00232ec:	eaaaaaaa 	b	ceacdd9c <_start-0x1552274>
d00232f0:	eaeaaaaa 	b	cfacdda0 <_start-0x552270>
d00232f4:	aaaaaaea 	bge	ceacdea4 <_start-0x155216c>
d00232f8:	aaaaaaaa 	bge	ceacdda8 <_start-0x1552268>
d00232fc:	aaaaaaaa 	bge	ceacddac <_start-0x1552264>
d0023300:	aaaaaaaa 	bge	ceacddb0 <_start-0x1552260>
d0023304:	0000aaaa 	andeq	sl, r0, sl, lsr #21
d0023308:	05000000 	streq	r0, [r0]
d002330c:	ffffffdd 	undefined instruction 0xffffffdd
d0023310:	ffffffff 	undefined instruction 0xffffffff
d0023314:	fdffffff 	ldc2l	15, cr15, [pc, #1020]!	; 0x3fc
d0023318:	c4dddddd 	ldrbgt	sp, [sp], #3549	; 0xddd
d002331c:	ffff5d00 	undefined instruction 0xffff5d00
d0023320:	ffffffff 	undefined instruction 0xffffffff
d0023324:	fffdffff 	undefined instruction 0xfffdffff
d0023328:	00000000 	andeq	r0, r0, r0
d002332c:	abaa0a00 	blge	ceaa5b34 <_start-0x157a4dc>
d0023330:	bbbbbbab 	bllt	cef121e4 <_start-0x110de2c>
d0023334:	bbbbbbbb 	bllt	cef12228 <_start-0x110dde8>
d0023338:	aaaaaaba 	bge	ceacde28 <_start-0x15521e8>
d002333c:	aaa8aaaa 	bge	cea4ddec <_start-0x15d2224>
d0023340:	abababab 	blge	ceb0e1f4 <_start-0x1511e1c>
d0023344:	aaabaaab 	bge	ceb0ddf8 <_start-0x1512218>
d0023348:	0000abaa 	andeq	sl, r0, sl, lsr #23
d002334c:	01000000 	tsteq	r0, r0
d0023350:	ffffffff 	undefined instruction 0xffffffff
d0023354:	ffffffff 	undefined instruction 0xffffffff
d0023358:	ffffffff 	undefined instruction 0xffffffff
d002335c:	55f7ffff 	ldrbpl	pc, [r7, #4095]!	; 0xfff
d0023360:	ffff1751 	undefined instruction 0xffff1751
d0023364:	ffffffff 	undefined instruction 0xffffffff
d0023368:	ffffffff 	undefined instruction 0xffffffff
d002336c:	00000000 	andeq	r0, r0, r0
d0023370:	aaaa0a00 	bge	ceaa5b78 <_start-0x157a498>
d0023374:	aeaeaaaa 	vfmage.f32	s20, s29, s21
d0023378:	eeaeaeae 	cdp	14, 10, cr10, cr14, cr14, {5}
d002337c:	aaaaaaaa 	bge	ceacde2c <_start-0x15521e4>
d0023380:	aaaaaaaa 	bge	ceacde30 <_start-0x15521e0>
d0023384:	aaaaaaaa 	bge	ceacde34 <_start-0x15521dc>
d0023388:	aaaaaaaa 	bge	ceacde38 <_start-0x15521d8>
d002338c:	0000aaaa 	andeq	sl, r0, sl, lsr #21
d0023390:	05000000 	streq	r0, [r0]
d0023394:	ffffffdf 	undefined instruction 0xffffffdf
d0023398:	ffffffff 	undefined instruction 0xffffffff
d002339c:	ddffffff 	ldclle	15, cr15, [pc, #1020]!	; 0x3fc
d00233a0:	dddddddd 	ldclle	13, cr13, [sp, #884]	; 0x374
d00233a4:	ffff0544 	undefined instruction 0xffff0544
d00233a8:	ffffffff 	undefined instruction 0xffffffff
d00233ac:	ffffffff 	undefined instruction 0xffffffff
d00233b0:	00000000 	andeq	r0, r0, r0
d00233b4:	aaaa0a00 	bge	ceaa5bbc <_start-0x157a454>
d00233b8:	bbbbbbbb 	bllt	cef122ac <_start-0x110dd64>
d00233bc:	bbbbbbbb 	bllt	cef122b0 <_start-0x110dd60>
d00233c0:	aaaaaaba 	bge	ceacdeb0 <_start-0x1552160>
d00233c4:	aaaaaaaa 	bge	ceacde74 <_start-0x155219c>
d00233c8:	aaaaaaaa 	bge	ceacde78 <_start-0x1552198>
d00233cc:	aaaaaaaa 	bge	ceacde7c <_start-0x1552194>
d00233d0:	0000aaaa 	andeq	sl, r0, sl, lsr #21
d00233d4:	01000000 	tsteq	r0, r0
d00233d8:	ffffff7f 	undefined instruction 0xffffff7f
d00233dc:	ffffffff 	undefined instruction 0xffffffff
d00233e0:	ffffffff 	undefined instruction 0xffffffff
d00233e4:	777fffff 	undefined instruction 0x777fffff
d00233e8:	ff7f5555 	undefined instruction 0xff7f5555
d00233ec:	ffffffff 	undefined instruction 0xffffffff
d00233f0:	ffffffff 	undefined instruction 0xffffffff
d00233f4:	00000000 	andeq	r0, r0, r0
d00233f8:	aaaa0200 	bge	ceaa3c00 <_start-0x157c410>
d00233fc:	aaaaaaaa 	bge	ceacdeac <_start-0x1552164>
d0023400:	aaaaaaaa 	bge	ceacdeb0 <_start-0x1552160>
d0023404:	aaaaaaaa 	bge	ceacdeb4 <_start-0x155215c>
d0023408:	aaaaaaaa 	bge	ceacdeb8 <_start-0x1552158>
d002340c:	aaaaaaaa 	bge	ceacdebc <_start-0x1552154>
d0023410:	aaaaaaaa 	bge	ceacdec0 <_start-0x1552150>
d0023414:	0000aaaa 	andeq	sl, r0, sl, lsr #21
d0023418:	01000000 	tsteq	r0, r0
d002341c:	ffffffdd 	undefined instruction 0xffffffdd
d0023420:	ffffffff 	undefined instruction 0xffffffff
d0023424:	ddfdffff 	ldclle	15, cr15, [sp, #1020]!	; 0x3fc
d0023428:	dddddddd 	ldclle	13, cr13, [sp, #884]	; 0x374
d002342c:	ffdfd5dd 	undefined instruction 0xffdfd5dd
d0023430:	ffffffff 	undefined instruction 0xffffffff
d0023434:	fffdfdfd 	undefined instruction 0xfffdfdfd
d0023438:	00000000 	andeq	r0, r0, r0
d002343c:	abaa0a00 	blge	ceaa5c44 <_start-0x157a3cc>
d0023440:	bbbbbbab 	bllt	cef122f4 <_start-0x110dd1c>
d0023444:	abbbabbb 	blge	cef0e338 <_start-0x1111cd8>
d0023448:	aaaaaaaa 	bge	ceacdef8 <_start-0x1552118>
d002344c:	aaaaaaaa 	bge	ceacdefc <_start-0x1552114>
d0023450:	abaaabaa 	blge	ceace300 <_start-0x1551d10>
d0023454:	aaaaaaaa 	bge	ceacdf04 <_start-0x155210c>
d0023458:	0000abaa 	andeq	sl, r0, sl, lsr #23
d002345c:	01000000 	tsteq	r0, r0
d0023460:	ffffff7f 	undefined instruction 0xffffff7f
d0023464:	ffffffff 	undefined instruction 0xffffffff
d0023468:	f7ffffff 	undefined instruction 0xf7ffffff
d002346c:	f7f7f7f7 	undefined instruction 0xf7f7f7f7
d0023470:	ff7ff7f7 	undefined instruction 0xff7ff7f7
d0023474:	ffffffff 	undefined instruction 0xffffffff
d0023478:	ffffffff 	undefined instruction 0xffffffff
d002347c:	00000000 	andeq	r0, r0, r0
d0023480:	aaaa0200 	bge	ceaa3c88 <_start-0x157c388>
d0023484:	aeaaaeaa 	cdpge	14, 10, cr10, cr10, cr10, {5}
d0023488:	aaaaaaaa 	bge	ceacdf38 <_start-0x15520d8>
d002348c:	aaaaaaaa 	bge	ceacdf3c <_start-0x15520d4>
d0023490:	aaaaaaaa 	bge	ceacdf40 <_start-0x15520d0>
d0023494:	aaaaaaaa 	bge	ceacdf44 <_start-0x15520cc>
d0023498:	aaaaaaaa 	bge	ceacdf48 <_start-0x15520c8>
d002349c:	0000aeaa 	andeq	sl, r0, sl, lsr #29
d00234a0:	01000000 	tsteq	r0, r0
d00234a4:	ffffffdf 	undefined instruction 0xffffffdf
d00234a8:	dfffffff 	svcle	0x00ffffff
d00234ac:	dddddfff 	ldclle	15, cr13, [sp, #1020]	; 0x3fc
d00234b0:	dddddddd 	ldclle	13, cr13, [sp, #884]	; 0x374
d00234b4:	ffdfdfdd 	undefined instruction 0xffdfdfdd
d00234b8:	ffffffff 	undefined instruction 0xffffffff
d00234bc:	dfdddfff 	svcle	0x00dddfff
d00234c0:	00000000 	andeq	r0, r0, r0
d00234c4:	aaaa0a00 	bge	ceaa5ccc <_start-0x157a344>
d00234c8:	bbbbbbbb 	bllt	cef123bc <_start-0x110dc54>
d00234cc:	aabaaaaa 	bge	ceecdf7c <_start-0x1152094>
d00234d0:	aaaaaaaa 	bge	ceacdf80 <_start-0x1552090>
d00234d4:	aaaaaaaa 	bge	ceacdf84 <_start-0x155208c>
d00234d8:	aaaaaaaa 	bge	ceacdf88 <_start-0x1552088>
d00234dc:	aaaaaaaa 	bge	ceacdf8c <_start-0x1552084>
d00234e0:	0000aaaa 	andeq	sl, r0, sl, lsr #21
d00234e4:	01000000 	tsteq	r0, r0
d00234e8:	ffffff5f 	undefined instruction 0xffffff5f
d00234ec:	ffffffff 	undefined instruction 0xffffffff
d00234f0:	ffffffff 	undefined instruction 0xffffffff
d00234f4:	ffffffff 	undefined instruction 0xffffffff
d00234f8:	ffffffff 	undefined instruction 0xffffffff
d00234fc:	ffffffff 	undefined instruction 0xffffffff
d0023500:	ffffffff 	undefined instruction 0xffffffff
d0023504:	00000000 	andeq	r0, r0, r0
d0023508:	aaaa0200 	bge	ceaa3d10 <_start-0x157c300>
d002350c:	aaaaaaaa 	bge	ceacdfbc <_start-0x1552054>
d0023510:	aaeaaaaa 	bge	cfacdfc0 <_start-0x552050>
d0023514:	aaaaaaaa 	bge	ceacdfc4 <_start-0x155204c>
d0023518:	aaaaaaaa 	bge	ceacdfc8 <_start-0x1552048>
d002351c:	aaaaaaaa 	bge	ceacdfcc <_start-0x1552044>
d0023520:	aaaaaaaa 	bge	ceacdfd0 <_start-0x1552040>
d0023524:	0000aaaa 	andeq	sl, r0, sl, lsr #21
d0023528:	00000000 	andeq	r0, r0, r0
d002352c:	ffffff5d 	undefined instruction 0xffffff5d
d0023530:	ddfdffff 	ldclle	15, cr15, [sp, #1020]!	; 0x3fc
d0023534:	ddddfdfd 	ldclle	13, cr15, [sp, #1012]	; 0x3f4
d0023538:	dddddddd 	ldclle	13, cr13, [sp, #884]	; 0x374
d002353c:	ffddfddd 	undefined instruction 0xffddfddd
d0023540:	fdffffff 	ldc2l	15, cr15, [pc, #1020]!	; 0x3fc
d0023544:	ddddfdfd 	ldclle	13, cr15, [sp, #1012]	; 0x3f4
d0023548:	00000000 	andeq	r0, r0, r0
d002354c:	abaa0000 	blge	ceaa3554 <_start-0x157cabc>
d0023550:	baabbbab 	blt	ceb12404 <_start-0x150dc0c>
d0023554:	aaaaaaaa 	bge	ceace004 <_start-0x155200c>
d0023558:	aaaaaaaa 	bge	ceace008 <_start-0x1552008>
d002355c:	aaaaaaaa 	bge	ceace00c <_start-0x1552004>
d0023560:	ababaaaa 	blge	ceb0e010 <_start-0x1512000>
d0023564:	aaaaaaab 	bge	ceace018 <_start-0x1551ff8>
d0023568:	0000aaaa 	andeq	sl, r0, sl, lsr #21
d002356c:	00000000 	andeq	r0, r0, r0
d0023570:	ffffff57 	undefined instruction 0xffffff57
d0023574:	ffffffff 	undefined instruction 0xffffffff
d0023578:	f7ffffff 	undefined instruction 0xf7ffffff
d002357c:	fff7fff7 	undefined instruction 0xfff7fff7
d0023580:	ffffffff 	undefined instruction 0xffffffff
d0023584:	ffffffff 	undefined instruction 0xffffffff
d0023588:	f7ffffff 	undefined instruction 0xf7ffffff
d002358c:	00000000 	andeq	r0, r0, r0
d0023590:	aaaa0000 	bge	ceaa3598 <_start-0x157ca78>
d0023594:	aaaaaaaa 	bge	ceace044 <_start-0x1551fcc>
d0023598:	aaaaaaaa 	bge	ceace048 <_start-0x1551fc8>
d002359c:	aaaaaaaa 	bge	ceace04c <_start-0x1551fc4>
d00235a0:	aaaaaaaa 	bge	ceace050 <_start-0x1551fc0>
d00235a4:	aaaaaaaa 	bge	ceace054 <_start-0x1551fbc>
d00235a8:	aaaaaaaa 	bge	ceace058 <_start-0x1551fb8>
d00235ac:	0000aaaa 	andeq	sl, r0, sl, lsr #21
d00235b0:	00000000 	andeq	r0, r0, r0
d00235b4:	ffffff1d 	undefined instruction 0xffffff1d
d00235b8:	dfdfffff 	svcle	0x00dfffff
d00235bc:	ddddddff 	ldclle	13, cr13, [sp, #1020]	; 0x3fc
d00235c0:	dddddddd 	ldclle	13, cr13, [sp, #884]	; 0x374
d00235c4:	ffffffdf 	undefined instruction 0xffffffdf
d00235c8:	ffffffff 	undefined instruction 0xffffffff
d00235cc:	ddddffff 	ldclle	15, cr15, [sp, #1020]	; 0x3fc
d00235d0:	00000000 	andeq	r0, r0, r0
d00235d4:	aaaa0000 	bge	ceaa35dc <_start-0x157ca34>
d00235d8:	aabbbbbb 	bge	cef124cc <_start-0x110db44>
d00235dc:	aaaaabaa 	bge	ceace48c <_start-0x1551b84>
d00235e0:	aaaaaaaa 	bge	ceace090 <_start-0x1551f80>
d00235e4:	aaaaaaaa 	bge	ceace094 <_start-0x1551f7c>
d00235e8:	aaaaaaaa 	bge	ceace098 <_start-0x1551f78>
d00235ec:	aaaaaaaa 	bge	ceace09c <_start-0x1551f74>
d00235f0:	0000aaaa 	andeq	sl, r0, sl, lsr #21
d00235f4:	00000000 	andeq	r0, r0, r0
d00235f8:	ffffff17 	undefined instruction 0xffffff17
d00235fc:	ffffffff 	undefined instruction 0xffffffff
d0023600:	ffffffff 	undefined instruction 0xffffffff
d0023604:	ffffffff 	undefined instruction 0xffffffff
d0023608:	ffffffff 	undefined instruction 0xffffffff
d002360c:	ffffffff 	undefined instruction 0xffffffff
d0023610:	75ffffff 	ldrbvc	pc, [pc, #4095]!	; d0024617 <gImage_pic+0x183f>
d0023614:	00000000 	andeq	r0, r0, r0
d0023618:	aa2a0000 	bge	d0aa3620 <bss_end+0xa7cbf8>
d002361c:	aaaaaaaa 	bge	ceace0cc <_start-0x1551f44>
d0023620:	aaaaaaaa 	bge	ceace0d0 <_start-0x1551f40>
d0023624:	aaaaaaaa 	bge	ceace0d4 <_start-0x1551f3c>
d0023628:	aaaaaaaa 	bge	ceace0d8 <_start-0x1551f38>
d002362c:	aaaaaaaa 	bge	ceace0dc <_start-0x1551f34>
d0023630:	aaaaaaaa 	bge	ceace0e0 <_start-0x1551f30>
d0023634:	0000aaaa 	andeq	sl, r0, sl, lsr #21
d0023638:	00000000 	andeq	r0, r0, r0
d002363c:	ffffdd1d 	undefined instruction 0xffffdd1d
d0023640:	dfddfdff 	svcle	0x00ddfdff
d0023644:	ddddddfd 	ldclle	13, cr13, [sp, #1012]	; 0x3f4
d0023648:	dddddddd 	ldclle	13, cr13, [sp, #884]	; 0x374
d002364c:	ddfddddd 	ldclle	13, cr13, [sp, #884]!	; 0x374
d0023650:	ffffffff 	undefined instruction 0xffffffff
d0023654:	ddddfdfd 	ldclle	13, cr15, [sp, #1012]	; 0x3f4
d0023658:	00000000 	andeq	r0, r0, r0
d002365c:	aaaa0000 	bge	ceaa3664 <_start-0x157c9ac>
d0023660:	aaababab 	bge	ceb0e514 <_start-0x1511afc>
d0023664:	aaaaabaa 	bge	ceace514 <_start-0x1551afc>
d0023668:	aaaaaaaa 	bge	ceace118 <_start-0x1551ef8>
d002366c:	aaaaaaaa 	bge	ceace11c <_start-0x1551ef4>
d0023670:	abaaaaaa 	blge	ceace120 <_start-0x1551ef0>
d0023674:	aaaaaaaa 	bge	ceace124 <_start-0x1551eec>
d0023678:	0000aaaa 	andeq	sl, r0, sl, lsr #21
d002367c:	00000000 	andeq	r0, r0, r0
d0023680:	ffffff17 	undefined instruction 0xffffff17
d0023684:	ffffffff 	undefined instruction 0xffffffff
d0023688:	f7ffffff 	undefined instruction 0xf7ffffff
d002368c:	fffff7ff 	undefined instruction 0xfffff7ff
d0023690:	ffffffff 	undefined instruction 0xffffffff
d0023694:	ffffffff 	undefined instruction 0xffffffff
d0023698:	55f7ffff 	ldrbpl	pc, [r7, #4095]!	; 0xfff
d002369c:	00000000 	andeq	r0, r0, r0
d00236a0:	aaaa0200 	bge	ceaa3ea8 <_start-0x157c168>
d00236a4:	aaaaaaaa 	bge	ceace154 <_start-0x1551ebc>
d00236a8:	aaaaaaaa 	bge	ceace158 <_start-0x1551eb8>
d00236ac:	aaaaaaaa 	bge	ceace15c <_start-0x1551eb4>
d00236b0:	aaaaaaaa 	bge	ceace160 <_start-0x1551eb0>
d00236b4:	aaaaaaaa 	bge	ceace164 <_start-0x1551eac>
d00236b8:	aaaaaaaa 	bge	ceace168 <_start-0x1551ea8>
d00236bc:	0000aaaa 	andeq	sl, r0, sl, lsr #21
d00236c0:	00000000 	andeq	r0, r0, r0
d00236c4:	ffffdf5d 	undefined instruction 0xffffdf5d
d00236c8:	dfdddfff 	svcle	0x00dddfff
d00236cc:	ddddddfd 	ldclle	13, cr13, [sp, #1012]	; 0x3f4
d00236d0:	dddddfdd 	ldclle	15, cr13, [sp, #884]	; 0x374
d00236d4:	dfffdfdd 	svcle	0x00ffdfdd
d00236d8:	ffffffdf 	undefined instruction 0xffffffdf
d00236dc:	55ddddff 	ldrbpl	sp, [sp, #3583]	; 0xdff
d00236e0:	00000000 	andeq	r0, r0, r0
d00236e4:	aaaa0000 	bge	ceaa36ec <_start-0x157c924>
d00236e8:	aaaaaaaa 	bge	ceace198 <_start-0x1551e78>
d00236ec:	aaaaabaa 	bge	ceace59c <_start-0x1551a74>
d00236f0:	aaaaaaaa 	bge	ceace1a0 <_start-0x1551e70>
d00236f4:	aaaaaaaa 	bge	ceace1a4 <_start-0x1551e6c>
d00236f8:	aaaaaaaa 	bge	ceace1a8 <_start-0x1551e68>
d00236fc:	aaaaaaaa 	bge	ceace1ac <_start-0x1551e64>
d0023700:	0000aaaa 	andeq	sl, r0, sl, lsr #21
d0023704:	00000000 	andeq	r0, r0, r0
d0023708:	ffffff57 	undefined instruction 0xffffff57
d002370c:	ffffffff 	undefined instruction 0xffffffff
d0023710:	ffffffff 	undefined instruction 0xffffffff
d0023714:	ffffffff 	undefined instruction 0xffffffff
d0023718:	ffffffff 	undefined instruction 0xffffffff
d002371c:	ffffffff 	undefined instruction 0xffffffff
d0023720:	555575ff 	ldrbpl	r7, [r5, #-1535]	; 0x5ff
d0023724:	00000000 	andeq	r0, r0, r0
d0023728:	aaaa0000 	bge	ceaa3730 <_start-0x157c8e0>
d002372c:	aaaaaaaa 	bge	ceace1dc <_start-0x1551e34>
d0023730:	aaaaaaaa 	bge	ceace1e0 <_start-0x1551e30>
d0023734:	aaaaaaaa 	bge	ceace1e4 <_start-0x1551e2c>
d0023738:	aaaaaaaa 	bge	ceace1e8 <_start-0x1551e28>
d002373c:	aaaaaaaa 	bge	ceace1ec <_start-0x1551e24>
d0023740:	aaaaaaaa 	bge	ceace1f0 <_start-0x1551e20>
d0023744:	0000aaaa 	andeq	sl, r0, sl, lsr #21
d0023748:	00000000 	andeq	r0, r0, r0
d002374c:	fdddfd5d 	ldc2l	13, cr15, [sp, #372]	; 0x174
d0023750:	ffddddfd 	undefined instruction 0xffddddfd
d0023754:	dddddddd 	ldclle	13, cr13, [sp, #884]	; 0x374
d0023758:	dddddddd 	ldclle	13, cr13, [sp, #884]	; 0x374
d002375c:	fdfddddd 	ldc2l	13, cr13, [sp, #884]!	; 0x374
d0023760:	fdffffdd 	ldc2l	15, cr15, [pc, #884]!	; 0x374
d0023764:	44d4dddd 	ldrbmi	sp, [r4], #3549	; 0xddd
d0023768:	00000000 	andeq	r0, r0, r0
d002376c:	aaaa0000 	bge	ceaa3774 <_start-0x157c89c>
d0023770:	aaaaaaaa 	bge	ceace220 <_start-0x1551df0>
d0023774:	aaaaabaa 	bge	ceace624 <_start-0x15519ec>
d0023778:	aaaaaaaa 	bge	ceace228 <_start-0x1551de8>
d002377c:	aaaaaaaa 	bge	ceace22c <_start-0x1551de4>
d0023780:	aaaaaaaa 	bge	ceace230 <_start-0x1551de0>
d0023784:	aaaaaaaa 	bge	ceace234 <_start-0x1551ddc>
d0023788:	0000aaaa 	andeq	sl, r0, sl, lsr #21
d002378c:	01000000 	tsteq	r0, r0
d0023790:	ffffff7f 	undefined instruction 0xffffff7f
d0023794:	ffffffff 	undefined instruction 0xffffffff
d0023798:	f7f7ffff 	undefined instruction 0xf7f7ffff
d002379c:	fffff7f7 	undefined instruction 0xfffff7f7
d00237a0:	fffffff7 	undefined instruction 0xfffffff7
d00237a4:	fffffff7 	undefined instruction 0xfffffff7
d00237a8:	115155f7 	ldrshne	r5, [r1, #-87]	; 0xffffffa9
d00237ac:	00000000 	andeq	r0, r0, r0
d00237b0:	aaaa2a00 	bge	ceaadfb8 <_start-0x1572058>
d00237b4:	aaaaaaaa 	bge	ceace264 <_start-0x1551dac>
d00237b8:	aaaaaaaa 	bge	ceace268 <_start-0x1551da8>
d00237bc:	aaaaaaaa 	bge	ceace26c <_start-0x1551da4>
d00237c0:	aaaaaaaa 	bge	ceace270 <_start-0x1551da0>
d00237c4:	aaaaaaaa 	bge	ceace274 <_start-0x1551d9c>
d00237c8:	aaaaaaaa 	bge	ceace278 <_start-0x1551d98>
d00237cc:	0000aaaa 	andeq	sl, r0, sl, lsr #21
d00237d0:	05000000 	streq	r0, [r0]
d00237d4:	dfdfffdf 	svcle	0x00dfffdf
d00237d8:	dfdfdddd 	svcle	0x00dfdddd
d00237dc:	dddddddd 	ldclle	13, cr13, [sp, #884]	; 0x374
d00237e0:	dddddddd 	ldclle	13, cr13, [sp, #884]	; 0x374
d00237e4:	ffdfdfdd 	undefined instruction 0xffdfdfdd
d00237e8:	dfffdfdd 	svcle	0x00ffdfdd
d00237ec:	040044dd 	streq	r4, [r0], #-1245	; 0x4dd
d00237f0:	00000000 	andeq	r0, r0, r0
d00237f4:	aaaaaa00 	bge	ceacdffc <_start-0x1552014>
d00237f8:	aaaaaaaa 	bge	ceace2a8 <_start-0x1551d68>
d00237fc:	aaaaabaa 	bge	ceace6ac <_start-0x1551964>
d0023800:	aaaaaaaa 	bge	ceace2b0 <_start-0x1551d60>
d0023804:	aaaaaaaa 	bge	ceace2b4 <_start-0x1551d5c>
d0023808:	aaaaaaaa 	bge	ceace2b8 <_start-0x1551d58>
d002380c:	aaaaaaaa 	bge	ceace2bc <_start-0x1551d54>
d0023810:	0000aaaa 	andeq	sl, r0, sl, lsr #21
d0023814:	17000000 	strne	r0, [r0, -r0]
d0023818:	ffffffff 	undefined instruction 0xffffffff
d002381c:	ffffffff 	undefined instruction 0xffffffff
d0023820:	7f7fffff 	svcvc	0x007fffff
d0023824:	ff7fff7f 	undefined instruction 0xff7fff7f
d0023828:	ffffffff 	undefined instruction 0xffffffff
d002382c:	ffff7fff 	undefined instruction 0xffff7fff
d0023830:	11001075 	tstne	r0, r5, ror r0
d0023834:	00000000 	andeq	r0, r0, r0
d0023838:	aaaaaa00 	bge	ceace040 <_start-0x1551fd0>
d002383c:	aaaaaaaa 	bge	ceace2ec <_start-0x1551d24>
d0023840:	aaaaaaaa 	bge	ceace2f0 <_start-0x1551d20>
d0023844:	aaaaaaaa 	bge	ceace2f4 <_start-0x1551d1c>
d0023848:	aaaaaaaa 	bge	ceace2f8 <_start-0x1551d18>
d002384c:	aaaaaaaa 	bge	ceace2fc <_start-0x1551d14>
d0023850:	aaaaaaaa 	bge	ceace300 <_start-0x1551d10>
d0023854:	0000aaaa 	andeq	sl, r0, sl, lsr #21
d0023858:	1d000000 	stcne	0, cr0, [r0]
d002385c:	ddddddfd 	ldclle	13, cr13, [sp, #1012]	; 0x3f4
d0023860:	dfdddddd 	svcle	0x00dddddd
d0023864:	dddddddd 	ldclle	13, cr13, [sp, #884]	; 0x374
d0023868:	dddddddd 	ldclle	13, cr13, [sp, #884]	; 0x374
d002386c:	fdffdddd 	ldc2l	13, cr13, [pc, #884]!	; 0x374
d0023870:	ddfddddd 	ldclle	13, cr13, [sp, #884]!	; 0x374
d0023874:	000000d0 	ldrdeq	r0, [r0], r0
d0023878:	00000000 	andeq	r0, r0, r0
d002387c:	aaaaaa08 	bge	ceace0a4 <_start-0x1551f6c>
d0023880:	aaaaaaaa 	bge	ceace330 <_start-0x1551ce0>
d0023884:	aaaaabaa 	bge	ceace734 <_start-0x15518dc>
d0023888:	aaaaaaaa 	bge	ceace338 <_start-0x1551cd8>
d002388c:	aaaaaaaa 	bge	ceace33c <_start-0x1551cd4>
d0023890:	aaaaaaaa 	bge	ceace340 <_start-0x1551cd0>
d0023894:	88aaaaaa 	stmiahi	sl!, {r1, r3, r5, r7, r9, fp, sp, pc}
d0023898:	00008888 	andeq	r8, r0, r8, lsl #17
d002389c:	57000000 	strpl	r0, [r0, -r0]
d00238a0:	77f7ffff 	undefined instruction 0x77f7ffff
d00238a4:	ffffffff 	undefined instruction 0xffffffff
d00238a8:	77f7f7ff 	undefined instruction 0x77f7f7ff
d00238ac:	f7f7f7f7 	undefined instruction 0xf7f7f7f7
d00238b0:	ffffffff 	undefined instruction 0xffffffff
d00238b4:	77f757f7 	undefined instruction 0x77f757f7
d00238b8:	00000050 	andeq	r0, r0, r0, asr r0
d00238bc:	00000000 	andeq	r0, r0, r0
d00238c0:	aaaaaa02 	bge	ceace0d0 <_start-0x1551f40>
d00238c4:	aaaaaaaa 	bge	ceace374 <_start-0x1551c9c>
d00238c8:	aaaaaaaa 	bge	ceace378 <_start-0x1551c98>
d00238cc:	aaaaaaaa 	bge	ceace37c <_start-0x1551c94>
d00238d0:	aaaaaaaa 	bge	ceace380 <_start-0x1551c90>
d00238d4:	aaaaaaaa 	bge	ceace384 <_start-0x1551c8c>
d00238d8:	a2aaaaaa 	adcge	sl, sl, #696320	; 0xaa000
d00238dc:	00002222 	andeq	r2, r0, r2, lsr #4
d00238e0:	5f000000 	svcpl	0x00000000
d00238e4:	5ddddddf 	ldclpl	13, cr13, [sp, #892]	; 0x37c
d00238e8:	dfdddddd 	svcle	0x00dddddd
d00238ec:	dddddddf 	ldclle	13, cr13, [sp, #892]	; 0x37c
d00238f0:	dddddddd 	ldclle	13, cr13, [sp, #884]	; 0x374
d00238f4:	ffffdfdd 	undefined instruction 0xffffdfdd
d00238f8:	d4dddddd 	ldrble	sp, [sp], #3549	; 0xddd
	...
d0023904:	aaaaaa0a 	bge	ceace134 <_start-0x1551edc>
d0023908:	aaaaaaaa 	bge	ceace3b8 <_start-0x1551c58>
d002390c:	aaaaaaaa 	bge	ceace3bc <_start-0x1551c54>
d0023910:	aaaaaaaa 	bge	ceace3c0 <_start-0x1551c50>
d0023914:	aaaaaaaa 	bge	ceace3c4 <_start-0x1551c4c>
d0023918:	aaaaaaaa 	bge	ceace3c8 <_start-0x1551c48>
d002391c:	8888aaaa 	stmhi	r8, {r1, r3, r5, r7, r9, fp, sp, pc}
d0023920:	00008888 	andeq	r8, r0, r8, lsl #17
d0023924:	5f010000 	svcpl	0x00010000
d0023928:	5575ff7f 	ldrbpl	pc, [r5, #-3967]!	; 0xf7f
d002392c:	ffffff77 	undefined instruction 0xffffff77
d0023930:	7555ffff 	ldrbvc	pc, [r5, #-4095]	; 0xfff
d0023934:	ff7f7777 	undefined instruction 0xff7f7777
d0023938:	ffffffff 	undefined instruction 0xffffffff
d002393c:	505555ff 	ldrshpl	r5, [r5], #-95	; 0xffffffa1
	...
d0023948:	aaaaaa0a 	bge	ceace178 <_start-0x1551e98>
d002394c:	aaaaaaaa 	bge	ceace3fc <_start-0x1551c14>
d0023950:	aaaaaaaa 	bge	ceace400 <_start-0x1551c10>
d0023954:	aaaaaaaa 	bge	ceace404 <_start-0x1551c0c>
d0023958:	aaaaaaaa 	bge	ceace408 <_start-0x1551c08>
d002395c:	aaaaaaaa 	bge	ceace40c <_start-0x1551c04>
d0023960:	2020aaaa 	eorcs	sl, r0, sl, lsr #21
d0023964:	00000000 	andeq	r0, r0, r0
d0023968:	5d040000 	stcpl	0, cr0, [r4]
d002396c:	45d5dddd 	ldrbmi	sp, [r5, #3549]	; 0xddd
d0023970:	dddddddd 	ldclle	13, cr13, [sp, #884]	; 0x374
d0023974:	ddd5fdff 	ldclle	13, cr15, [r5, #1020]	; 0x3fc
d0023978:	dddddddd 	ldclle	13, cr13, [sp, #884]	; 0x374
d002397c:	fffddddd 	undefined instruction 0xfffddddd
d0023980:	0054d5fd 	ldrsheq	sp, [r4], #-93	; 0xffffffa3
	...
d002398c:	aaaaaa8a 	bge	ceace3bc <_start-0x1551c54>
d0023990:	aaaaaaaa 	bge	ceace440 <_start-0x1551bd0>
d0023994:	aaaaaaaa 	bge	ceace444 <_start-0x1551bcc>
d0023998:	aaaaaaaa 	bge	ceace448 <_start-0x1551bc8>
d002399c:	aaaaaaaa 	bge	ceace44c <_start-0x1551bc4>
d00239a0:	aaaaaaaa 	bge	ceace450 <_start-0x1551bc0>
d00239a4:	8888a8aa 	stmhi	r8, {r1, r3, r5, r7, fp, sp, pc}
d00239a8:	00008080 	andeq	r8, r0, r0, lsl #1
d00239ac:	77010000 	strvc	r0, [r1, -r0]
d00239b0:	5555f777 	ldrbpl	pc, [r5, #-1911]	; 0x777
d00239b4:	fffff757 	undefined instruction 0xfffff757
d00239b8:	5555f7ff 	ldrbpl	pc, [r5, #-2047]	; 0x7ff
d00239bc:	f7777757 	undefined instruction 0xf7777757
d00239c0:	ffffffff 	undefined instruction 0xffffffff
d00239c4:	005155ff 	ldrsheq	r5, [r1], #-95	; 0xffffffa1
	...
d00239d0:	aaaaaa0a 	bge	ceace200 <_start-0x1551e10>
d00239d4:	aaaaaaaa 	bge	ceace484 <_start-0x1551b8c>
d00239d8:	aaaaaaaa 	bge	ceace488 <_start-0x1551b88>
d00239dc:	aaaaaaaa 	bge	ceace48c <_start-0x1551b84>
d00239e0:	aaaaaaaa 	bge	ceace490 <_start-0x1551b80>
d00239e4:	aaaaaaaa 	bge	ceace494 <_start-0x1551b7c>
d00239e8:	0000a2aa 	andeq	sl, r0, sl, lsr #5
d00239ec:	00000000 	andeq	r0, r0, r0
d00239f0:	dd050000 	stcle	0, cr0, [r5]
d00239f4:	4444dd5d 	strbmi	sp, [r4], #-3421	; 0xd5d
d00239f8:	dfdddd45 	svcle	0x00dddd45
d00239fc:	55d5dddf 	ldrbpl	sp, [r5, #3551]	; 0xddf
d0023a00:	dddddd5d 	ldclle	13, cr13, [sp, #372]	; 0x174
d0023a04:	ffdfdfdf 	undefined instruction 0xffdfdfdf
d0023a08:	0040c4fd 	strdeq	ip, [r0], #-77	; 0xffffffb3
	...
d0023a14:	aaaaaa8a 	bge	ceace444 <_start-0x1551bcc>
d0023a18:	aaaaaaaa 	bge	ceace4c8 <_start-0x1551b48>
d0023a1c:	aaaaaaaa 	bge	ceace4cc <_start-0x1551b44>
d0023a20:	aaaaaaaa 	bge	ceace4d0 <_start-0x1551b40>
d0023a24:	aaaaaaaa 	bge	ceace4d4 <_start-0x1551b3c>
d0023a28:	aaaaaaaa 	bge	ceace4d8 <_start-0x1551b38>
d0023a2c:	008888a8 	addeq	r8, r8, r8, lsr #17
d0023a30:	00000000 	andeq	r0, r0, r0
d0023a34:	55050000 	strpl	r0, [r5]
d0023a38:	5151fd5f 	cmpppl	r1, pc, asr sp
d0023a3c:	ff7f5515 	undefined instruction 0xff7f5515
d0023a40:	1551f5ff 	ldrbne	pc, [r1, #-1535]	; 0x5ff
d0023a44:	7f777555 	svcvc	0x00777555
d0023a48:	ffffffff 	undefined instruction 0xffffffff
d0023a4c:	000051ff 	strdeq	r5, [r0], -pc
	...
d0023a58:	aaaaaa2a 	bge	ceace308 <_start-0x1551d08>
d0023a5c:	aaaaaaaa 	bge	ceace50c <_start-0x1551b04>
d0023a60:	aaaaaaaa 	bge	ceace510 <_start-0x1551b00>
d0023a64:	aaaaaaaa 	bge	ceace514 <_start-0x1551afc>
d0023a68:	aaaaaaaa 	bge	ceace518 <_start-0x1551af8>
d0023a6c:	aaaaaaaa 	bge	ceace51c <_start-0x1551af4>
d0023a70:	000000a0 	andeq	r0, r0, r0, lsr #1
d0023a74:	00000000 	andeq	r0, r0, r0
d0023a78:	c4050000 	strgt	r0, [r5]
d0023a7c:	4040fd5d 	submi	pc, r0, sp, asr sp
d0023a80:	dddd4504 	cfldr64le	mvdx4, [sp, #16]
d0023a84:	0040dddd 	ldrdeq	sp, [r0], #-221	; 0xffffff23
d0023a88:	dddddd45 	ldclle	13, cr13, [sp, #276]	; 0x114
d0023a8c:	ffdddddd 	undefined instruction 0xffdddddd
d0023a90:	0000c0fd 	strdeq	ip, [r0], -sp
	...
d0023a9c:	aaaaaa8a 	bge	ceace4cc <_start-0x1551b44>
d0023aa0:	aaaaaaaa 	bge	ceace550 <_start-0x1551ac0>
d0023aa4:	aaaaaaaa 	bge	ceace554 <_start-0x1551abc>
d0023aa8:	aaaaaaaa 	bge	ceace558 <_start-0x1551ab8>
d0023aac:	aaaaaaaa 	bge	ceace55c <_start-0x1551ab4>
d0023ab0:	aaaaabaa 	bge	ceace960 <_start-0x15516b0>
d0023ab4:	80800080 	addhi	r0, r0, r0, lsl #1
d0023ab8:	00000000 	andeq	r0, r0, r0
d0023abc:	41010000 	tstmi	r1, r0
d0023ac0:	1141ff57 	cmppne	r1, r7, asr pc
d0023ac4:	55571101 	ldrbpl	r1, [r7, #-257]	; 0x101
d0023ac8:	01515555 	cmpeq	r1, r5, asr r5
d0023acc:	f7775715 	undefined instruction 0xf7775715
d0023ad0:	fffff7ff 	undefined instruction 0xfffff7ff
d0023ad4:	000050ff 	strdeq	r5, [r0], -pc
	...
d0023ae0:	aaaaaa2a 	bge	ceace390 <_start-0x1551c80>
d0023ae4:	aaaaaaa2 	bge	ceace574 <_start-0x1551a9c>
d0023ae8:	aaaaaaaa 	bge	ceace598 <_start-0x1551a78>
d0023aec:	aaaaaaaa 	bge	ceace59c <_start-0x1551a74>
d0023af0:	aaaaaaaa 	bge	ceace5a0 <_start-0x1551a70>
d0023af4:	aaaaaaaa 	bge	ceace5a4 <_start-0x1551a6c>
d0023af8:	02000000 	andeq	r0, r0, #0
d0023afc:	00000020 	andeq	r0, r0, r0, lsr #32
d0023b00:	44010000 	strmi	r0, [r1]
d0023b04:	00c0df5d 	sbceq	sp, r0, sp, asr pc
d0023b08:	c55d0000 	ldrbgt	r0, [sp]
d0023b0c:	00444444 	subeq	r4, r4, r4, asr #8
d0023b10:	dfdd5d04 	svcle	0x00dd5d04
d0023b14:	ffdfdddd 	undefined instruction 0xffdfdddd
d0023b18:	0000c0fd 	strdeq	ip, [r0], -sp
	...
d0023b24:	aaaaaa0a 	bge	ceace354 <_start-0x1551cbc>
d0023b28:	aaaaaaa8 	bge	ceace5d0 <_start-0x1551a40>
d0023b2c:	aaaaaaaa 	bge	ceace5dc <_start-0x1551a34>
d0023b30:	aaaa8aaa 	bge	ceac65e0 <_start-0x1559a30>
d0023b34:	aaaaaaaa 	bge	ceace5e4 <_start-0x1551a2c>
d0023b38:	a8aaaaaa 	stmiage	sl!, {r1, r3, r5, r7, r9, fp, sp, pc}
d0023b3c:	00880000 	addeq	r0, r8, r0
d0023b40:	00008888 	andeq	r8, r0, r8, lsl #17
d0023b44:	01010000 	tsteq	r1, r0
d0023b48:	00d0ff55 	sbcseq	pc, r0, r5, asr pc
d0023b4c:	51551111 	cmppl	r5, r1, lsl r1
d0023b50:	00155155 	andseq	r5, r5, r5, asr r1
d0023b54:	ff7f5511 	undefined instruction 0xff7f5511
d0023b58:	ffff7fff 	undefined instruction 0xffff7fff
d0023b5c:	000050ff 	strdeq	r5, [r0], -pc
	...
d0023b68:	aaaaaa02 	bge	ceace378 <_start-0x1551c98>
d0023b6c:	aaaa2aa8 	bge	ceaae614 <_start-0x15719fc>
d0023b70:	aaaaaaaa 	bge	ceace620 <_start-0x15519f0>
d0023b74:	aaaaaaaa 	bge	ceace624 <_start-0x15519ec>
d0023b78:	aaaaaaaa 	bge	ceace628 <_start-0x15519e8>
d0023b7c:	a8aaaaaa 	stmiage	sl!, {r1, r3, r5, r7, r9, fp, sp, pc}
	...
d0023b88:	41000000 	tstmi	r0, r0
d0023b8c:	00d0fdc5 	sbcseq	pc, r0, r5, asr #27
d0023b90:	44440000 	strbmi	r0, [r4]
d0023b94:	004044dd 	ldrdeq	r4, [r0], #-77	; 0xffffffb3
d0023b98:	fddd5500 	ldc2l	5, cr5, [sp]
d0023b9c:	ffdddddd 	undefined instruction 0xffdddddd
d0023ba0:	0000c0fd 	strdeq	ip, [r0], -sp
	...
d0023bac:	aaaaaa08 	bge	ceace3d4 <_start-0x1551c3c>
d0023bb0:	a88a88a8 	stmge	sl, {r3, r5, r7, fp, pc}
d0023bb4:	aaaaaaaa 	bge	ceace664 <_start-0x15519ac>
d0023bb8:	aaaaaaaa 	bge	ceace668 <_start-0x15519a8>
d0023bbc:	aaaaaaaa 	bge	ceace66c <_start-0x15519a4>
d0023bc0:	a8aaabaa 	stmiage	sl!, {r1, r3, r5, r7, r8, r9, fp, sp, pc}
d0023bc4:	80800000 	addhi	r0, r0, r0
d0023bc8:	00008080 	andeq	r8, r0, r0, lsl #1
d0023bcc:	41010000 	tstmi	r1, r0
d0023bd0:	00f0ff55 	rscseq	pc, r0, r5, asr pc
d0023bd4:	01110001 	tsteq	r1, r1
d0023bd8:	01110155 	tsteq	r1, r5, asr r1
d0023bdc:	ff775511 	undefined instruction 0xff775511
d0023be0:	fffffff7 	undefined instruction 0xfffffff7
d0023be4:	000050ff 	strdeq	r5, [r0], -pc
	...
d0023bf0:	aaaaa202 	bge	ceacc400 <_start-0x1553c10>
d0023bf4:	aaa202aa 	bge	ce8a46a4 <_start-0x177b96c>
d0023bf8:	aaaaaaaa 	bge	ceace6a8 <_start-0x1551968>
d0023bfc:	aaaaaaaa 	bge	ceace6ac <_start-0x1551964>
d0023c00:	aaaaaaaa 	bge	ceace6b0 <_start-0x1551960>
d0023c04:	a8aaaaaa 	stmiage	sl!, {r1, r3, r5, r7, r9, fp, sp, pc}
	...
d0023c10:	40000000 	andmi	r0, r0, r0
d0023c14:	00dcdf45 	sbcseq	sp, ip, r5, asr #30
d0023c18:	00000000 	andeq	r0, r0, r0
d0023c1c:	00040004 	andeq	r0, r4, r4
d0023c20:	dd5d4504 	cfldr64le	mvdx4, [sp, #-16]
d0023c24:	ffdfdddd 	undefined instruction 0xffdfdddd
d0023c28:	0000c0fd 	strdeq	ip, [r0], -sp
	...
d0023c34:	aaaaaa00 	bge	ceace43c <_start-0x1551bd4>
d0023c38:	aa8888aa 	bge	ce245ee8 <_start-0x1dda128>
d0023c3c:	8aaa88aa 	bhi	ceac5eec <_start-0x155a124>
d0023c40:	aaaaaaaa 	bge	ceace6f0 <_start-0x1551920>
d0023c44:	aaaaaaaa 	bge	ceace6f4 <_start-0x155191c>
d0023c48:	a8aaaaaa 	stmiage	sl!, {r1, r3, r5, r7, r9, fp, sp, pc}
d0023c4c:	00000000 	andeq	r0, r0, r0
d0023c50:	00000800 	andeq	r0, r0, r0, lsl #16
d0023c54:	51000000 	tstpl	r0, r0
d0023c58:	00fd7f11 	rscseq	r7, sp, r1, lsl pc
d0023c5c:	00100100 	andseq	r0, r0, r0, lsl #2
d0023c60:	11110001 	tstne	r1, r1
d0023c64:	7f575515 	svcvc	0x00575515
d0023c68:	ff7fff7f 	undefined instruction 0xff7fff7f
d0023c6c:	000050fd 	strdeq	r5, [r0], -sp
	...
d0023c78:	aaaaaa00 	bge	ceace480 <_start-0x1551b90>
d0023c7c:	2a20a0aa 	bcs	d084bf2c <bss_end+0x825504>
d0023c80:	aa2aa2aa 	bge	d0acc730 <bss_end+0xaa5d08>
d0023c84:	aaaaaaaa 	bge	ceace734 <_start-0x15518dc>
d0023c88:	aaaaaaaa 	bge	ceace738 <_start-0x15518d8>
d0023c8c:	a8aaaaaa 	stmiage	sl!, {r1, r3, r5, r7, r9, fp, sp, pc}
	...
d0023c98:	18000000 	stmdane	r0, {}
d0023c9c:	80fddd44 	rscshi	sp, sp, r4, asr #26
d0023ca0:	00040000 	andeq	r0, r4, r0
d0023ca4:	44040000 	strmi	r0, [r4]
d0023ca8:	dddddd5d 	ldclle	13, cr13, [sp, #372]	; 0x174
d0023cac:	dddddddd 	ldclle	13, cr13, [sp, #884]	; 0x374
d0023cb0:	000040dd 	ldrdeq	r4, [r0], -sp
	...
d0023cbc:	aaaaaa00 	bge	ceace4c4 <_start-0x1551b4c>
d0023cc0:	8888a8aa 	stmhi	r8, {r1, r3, r5, r7, fp, sp, pc}
d0023cc4:	888888aa 	stmhi	r8, {r1, r3, r5, r7, fp, pc}
d0023cc8:	aaaaaaaa 	bge	ceace778 <_start-0x1551898>
d0023ccc:	aaaaaaaa 	bge	ceace77c <_start-0x1551894>
d0023cd0:	a8aaaaaa 	stmiage	sl!, {r1, r3, r5, r7, r9, fp, sp, pc}
d0023cd4:	80800000 	addhi	r0, r0, r0
d0023cd8:	00000000 	andeq	r0, r0, r0
d0023cdc:	05000000 	streq	r0, [r0]
d0023ce0:	c0ff7f11 	rscsgt	r7, pc, r1, lsl pc
d0023ce4:	00110000 	andseq	r0, r1, r0
d0023ce8:	55150100 	ldrpl	r0, [r5, #-256]	; 0x100
d0023cec:	fff7ffff 	undefined instruction 0xfff7ffff
d0023cf0:	ff77f7f7 	undefined instruction 0xff77f7f7
d0023cf4:	000040f5 	strdeq	r4, [r0], -r5
	...
d0023d00:	aaaa0a00 	bge	ceaa6508 <_start-0x1579b08>
d0023d04:	0200a8aa 	andeq	sl, r0, #11141120	; 0xaa0000
d0023d08:	aa02a2aa 	bge	d00cc7b8 <bss_end+0xa5d90>
d0023d0c:	aaaaaaaa 	bge	ceace7bc <_start-0x1551854>
d0023d10:	aaaaaaaa 	bge	ceace7c0 <_start-0x1551850>
d0023d14:	a0aaaaaa 	adcge	sl, sl, sl, lsr #21
	...
d0023d20:	01000000 	tsteq	r0, r0
d0023d24:	d0df5f54 	sbcsle	r5, pc, r4, asr pc
d0023d28:	00040000 	andeq	r0, r4, r0
d0023d2c:	45450000 	strbmi	r0, [r5]
d0023d30:	ddddffff 	ldclle	15, cr15, [sp, #1020]	; 0x3fc
d0023d34:	dddddddf 	ldclle	13, cr13, [sp, #892]	; 0x37c
d0023d38:	000040dc 	ldrdeq	r4, [r0], -ip
	...
d0023d44:	aaaa0a00 	bge	ceaa654c <_start-0x1579ac4>
d0023d48:	8888a8aa 	stmhi	r8, {r1, r3, r5, r7, fp, sp, pc}
d0023d4c:	8a88a88a 	bhi	ce24df7c <_start-0x1dd2094>
d0023d50:	baaaaaaa 	blt	ceace800 <_start-0x1551810>
d0023d54:	aaaaaaaa 	bge	ceace804 <_start-0x155180c>
d0023d58:	a8aaaaaa 	stmiage	sl!, {r1, r3, r5, r7, r9, fp, sp, pc}
	...
d0023d68:	fcff1f55 	ldc2l	15, cr1, [pc], #340	; 0x154
d0023d6c:	00010000 	andeq	r0, r1, r0
d0023d70:	57150000 	ldrpl	r0, [r5, -r0]
d0023d74:	ffffffff 	undefined instruction 0xffffffff
d0023d78:	ff57fdff 	undefined instruction 0xff57fdff
d0023d7c:	00000055 	andeq	r0, r0, r5, asr r0
	...
d0023d88:	aa2a0000 	bge	d0aa3d90 <bss_end+0xa7d368>
d0023d8c:	0000aaaa 	andeq	sl, r0, sl, lsr #21
d0023d90:	2a20a82a 	bcs	d084de40 <bss_end+0x827418>
d0023d94:	aaaaaaaa 	bge	ceace844 <_start-0x15517cc>
d0023d98:	aaaaaaaa 	bge	ceace848 <_start-0x15517c8>
d0023d9c:	a0aaaaaa 	adcge	sl, sl, sl, lsr #21
	...
d0023dac:	fcdf5d05 	ldc2l	13, cr5, [pc], {5}
d0023db0:	00000000 	andeq	r0, r0, r0
d0023db4:	5d000000 	stcpl	0, cr0, [r0]
d0023db8:	dddddfdd 	ldclle	15, cr13, [sp, #884]	; 0x374
d0023dbc:	ddddddff 	ldclle	13, cr13, [sp, #1020]	; 0x3fc
d0023dc0:	000040d4 	ldrdeq	r4, [r0], -r4
	...
d0023dcc:	aa8a0000 	bge	ce2a3dd4 <_start-0x1d7c23c>
d0023dd0:	8888aaaa 	stmhi	r8, {r1, r3, r5, r7, r9, fp, sp, pc}
d0023dd4:	8888a888 	stmhi	r8, {r3, r7, fp, sp, pc}
d0023dd8:	aaaaaa8a 	bge	ceace808 <_start-0x1551808>
d0023ddc:	aabbaaaa 	bge	cef0e88c <_start-0x1111784>
d0023de0:	80aaaaaa 	adchi	sl, sl, sl, lsr #21
d0023de4:	80000000 	andhi	r0, r0, r0
d0023de8:	00008080 	andeq	r8, r0, r0, lsl #1
d0023dec:	00000000 	andeq	r0, r0, r0
d0023df0:	ff7f5705 	undefined instruction 0xff7f5705
d0023df4:	10000040 	andne	r0, r0, r0, asr #32
d0023df8:	7f010000 	svcvc	0x00010000
d0023dfc:	fff7f757 	undefined instruction 0xfff7f757
d0023e00:	5557f5ff 	ldrbpl	pc, [r7, #-1535]	; 0x5ff
d0023e04:	00000055 	andeq	r0, r0, r5, asr r0
	...
d0023e10:	aaaa0200 	bge	ceaa4618 <_start-0x157b9f8>
d0023e14:	00aaaaaa 	adceq	sl, sl, sl, lsr #21
d0023e18:	aaa2aa02 	bge	ce8ce628 <_start-0x17519e8>
d0023e1c:	aaaaaaaa 	bge	ceace8cc <_start-0x1551744>
d0023e20:	aaaaaaaa 	bge	ceace8d0 <_start-0x1551740>
d0023e24:	80aaaaaa 	adchi	sl, sl, sl, lsr #21
	...
d0023e34:	ffdfdd5d 	undefined instruction 0xffdfdd5d
d0023e38:	000000d4 	ldrdeq	r0, [r0], -r4
d0023e3c:	df050040 	svcle	0x00050040
d0023e40:	dddddfdd 	ldclle	15, cr13, [sp, #884]	; 0x374
d0023e44:	ddddd5ff 	cfldr64le	mvdx13, [sp, #1020]	; 0x3fc
d0023e48:	00000044 	andeq	r0, r0, r4, asr #32
	...
d0023e54:	aaaa0a00 	bge	ceaa665c <_start-0x15799b4>
d0023e58:	88aaaaaa 	stmiahi	sl!, {r1, r3, r5, r7, r9, fp, sp, pc}
d0023e5c:	aaaaaa88 	bge	ceace884 <_start-0x155178c>
d0023e60:	aaaaaa8a 	bge	ceace890 <_start-0x1551780>
d0023e64:	aabaaaaa 	bge	ceece914 <_start-0x11516fc>
d0023e68:	80aaaaaa 	adchi	sl, sl, sl, lsr #21
d0023e6c:	00880800 	addeq	r0, r8, r0, lsl #16
d0023e70:	00000000 	andeq	r0, r0, r0
d0023e74:	01000000 	tsteq	r0, r0
d0023e78:	ffffffff 	undefined instruction 0xffffffff
d0023e7c:	0100007d 	tsteq	r0, sp, ror r0
d0023e80:	7f011115 	svcvc	0x00011115
d0023e84:	77f57f55 	ubfxvc	r7, r5, #30, #22
d0023e88:	5555d5ff 	ldrbpl	sp, [r5, #-1535]	; 0x5ff
d0023e8c:	00000050 	andeq	r0, r0, r0, asr r0
	...
d0023e98:	eaaa2a00 	b	ceaae6a0 <_start-0x1571970>
d0023e9c:	aaaaaaaa 	bge	ceace94c <_start-0x15516c4>
d0023ea0:	aaaaaa02 	bge	ceace6b0 <_start-0x1551960>
d0023ea4:	aaaaaaaa 	bge	ceace954 <_start-0x15516bc>
d0023ea8:	aaaaaaaa 	bge	ceace958 <_start-0x15516b8>
d0023eac:	00aaaaaa 	adceq	sl, sl, sl, lsr #21
d0023eb0:	00a02a00 	adceq	r2, r0, r0, lsl #20
d0023eb4:	00000000 	andeq	r0, r0, r0
d0023eb8:	05000000 	streq	r0, [r0]
d0023ebc:	ddffffff 	ldclle	15, cr15, [pc, #1020]!	; 0x3fc
d0023ec0:	0000dcff 	strdeq	sp, [r0], -pc
d0023ec4:	5d004440 	cfstrspl	mvf4, [r0, #-256]	; 0xffffff00
d0023ec8:	dfddfdd5 	svcle	0x00ddfdd5
d0023ecc:	44d5d5fd 	ldrbmi	sp, [r5], #1533	; 0x5fd
	...
d0023edc:	bbbbab00 	bllt	cef0eae4 <_start-0x111152c>
d0023ee0:	aaaaaabb 	bge	ceace9d4 <_start-0x155163c>
d0023ee4:	aaaaaa88 	bge	ceace90c <_start-0x1551704>
d0023ee8:	aaaaaaa8 	bge	ceace990 <_start-0x1551680>
d0023eec:	aaaaabaa 	bge	ceaced9c <_start-0x1551274>
d0023ef0:	0080aaaa 	addeq	sl, r0, sl, lsr #21
d0023ef4:	80a8aa00 	adchi	sl, r8, r0, lsl #20
d0023ef8:	00008080 	andeq	r8, r0, r0, lsl #1
d0023efc:	17000000 	strne	r0, [r0, -r0]
d0023f00:	ffffffff 	undefined instruction 0xffffffff
d0023f04:	5141ffff 	strdpl	pc, [r1, #-255]	; 0xffffff01
d0023f08:	17d05751 	undefined instruction 0x17d05751
d0023f0c:	7755fff5 	smmlsrvc	r5, r5, pc, pc
d0023f10:	005155d7 	ldrsbeq	r5, [r1], #-87	; 0xffffffa9
d0023f14:	57010000 	strpl	r0, [r1, -r0]
d0023f18:	00000050 	andeq	r0, r0, r0, asr r0
d0023f1c:	00000000 	andeq	r0, r0, r0
d0023f20:	aeaeaa00 	vfmage.f32	s20, s28, s0
d0023f24:	aaaeeeee 	bge	cebdfae4 <_start-0x144052c>
d0023f28:	aaaaaaaa 	bge	ceace9d8 <_start-0x1551638>
d0023f2c:	aaaaaaaa 	bge	ceace9dc <_start-0x1551634>
d0023f30:	aaaaaaaa 	bge	ceace9e0 <_start-0x1551630>
d0023f34:	0000a0aa 	andeq	sl, r0, sl, lsr #1
d0023f38:	80aaaa02 	adchi	sl, sl, r2, lsl #20
d0023f3c:	00000000 	andeq	r0, r0, r0
d0023f40:	5f000000 	svcpl	0x00000000
d0023f44:	ffffffff 	undefined instruction 0xffffffff
d0023f48:	d5d5ffff 	ldrble	pc, [r5, #4095]	; 0xfff
d0023f4c:	0ddc5d44 	ldcleq	13, cr5, [ip, #272]	; 0x110
d0023f50:	dd05d4dd 	cfstrsle	mvf13, [r5, #-884]	; 0xfffffc8c
d0023f54:	0040ddc5 	subeq	sp, r0, r5, asr #27
d0023f58:	df010000 	svcle	0x00010000
d0023f5c:	000000dc 	ldrdeq	r0, [r0], -ip
d0023f60:	00000000 	andeq	r0, r0, r0
d0023f64:	bbbbab00 	bllt	cef0eb6c <_start-0x11114a4>
d0023f68:	babfbfbb 	blt	cf013e5c <_start-0x100c1b4>
d0023f6c:	aaaaaaaa 	bge	ceacea1c <_start-0x15515f4>
d0023f70:	aaaa8aaa 	bge	ceac6a20 <_start-0x15595f0>
d0023f74:	aaaaaaaa 	bge	ceacea24 <_start-0x15515ec>
d0023f78:	000000a8 	andeq	r0, r0, r8, lsr #1
d0023f7c:	88aaaa0a 	stmiahi	sl!, {r1, r3, r9, fp, sp, pc}
d0023f80:	00000800 	andeq	r0, r0, r0, lsl #16
d0023f84:	7f000000 	svcvc	0x00000000
d0023f88:	ffffffff 	undefined instruction 0xffffffff
d0023f8c:	ffffffff 	undefined instruction 0xffffffff
d0023f90:	050040f5 	streq	r4, [r0, #-245]	; 0xf5
d0023f94:	75015d75 	strvc	r5, [r1, #-3445]	; 0xd75
d0023f98:	000055c1 	andeq	r5, r0, r1, asr #11
d0023f9c:	f7050000 	undefined instruction 0xf7050000
d0023fa0:	000000ff 	strdeq	r0, [r0], -pc
d0023fa4:	00000000 	andeq	r0, r0, r0
d0023fa8:	eeaaaa02 	vfma.f32	s20, s20, s4
d0023fac:	eeeeeeee 	cdp	14, 14, cr14, cr14, cr14, {7}
d0023fb0:	aaeaeeea 	bge	cfadfb60 <_start-0x5404b0>
d0023fb4:	aaaaaaaa 	bge	ceacea64 <_start-0x15515ac>
d0023fb8:	aaaaaaaa 	bge	ceacea68 <_start-0x15515a8>
d0023fbc:	00000080 	andeq	r0, r0, r0, lsl #1
d0023fc0:	a8aaaa2a 	stmiage	sl!, {r1, r3, r5, r9, fp, sp, pc}
d0023fc4:	00000000 	andeq	r0, r0, r0
d0023fc8:	ff000000 	undefined instruction 0xff000000
d0023fcc:	ffffffff 	undefined instruction 0xffffffff
d0023fd0:	ffffffff 	undefined instruction 0xffffffff
d0023fd4:	000000fc 	strdeq	r0, [r0], -ip
d0023fd8:	dd015c5c 	stcle	12, cr5, [r1, #-368]	; 0xfffffe90
d0023fdc:	000040c4 	andeq	r4, r0, r4, asr #1
d0023fe0:	dd050000 	stcle	0, cr0, [r5]
d0023fe4:	0000c0ff 	strdeq	ip, [r0], -pc
d0023fe8:	00000000 	andeq	r0, r0, r0
d0023fec:	bbbbab00 	bllt	cef0ebf4 <_start-0x111141c>
d0023ff0:	fffbfbfb 	undefined instruction 0xfffbfbfb
d0023ff4:	aafaffff 	bge	cfee3ff8 <_start-0x13c018>
d0023ff8:	aaaaa8a8 	bge	ceace2a0 <_start-0x1551d70>
d0023ffc:	a8aaaaaa 	stmiage	sl!, {r1, r3, r5, r7, r9, fp, sp, pc}
d0024000:	00000080 	andeq	r0, r0, r0, lsl #1
d0024004:	a8abaaaa 	stmiage	fp!, {r1, r3, r5, r7, r9, fp, sp, pc}
d0024008:	00008880 	andeq	r8, r0, r0, lsl #17
d002400c:	7f010000 	svcvc	0x00010000
d0024010:	ffffffff 	undefined instruction 0xffffffff
d0024014:	ffffffff 	undefined instruction 0xffffffff
d0024018:	010051ff 	strdeq	r5, [r0, -pc]
d002401c:	55551155 	ldrbpl	r1, [r5, #-341]	; 0x155
d0024020:	00000000 	andeq	r0, r0, r0
d0024024:	f7170000 	undefined instruction 0xf7170000
d0024028:	0000f07f 	andeq	pc, r0, pc, ror r0
d002402c:	00000000 	andeq	r0, r0, r0
d0024030:	eeaeaa02 	vfma.f32	s20, s28, s4
d0024034:	eeeeeeee 	cdp	14, 14, cr14, cr14, cr14, {7}
d0024038:	aaeeeeee 	bge	cfbdfbf8 <_start-0x440418>
d002403c:	aaaa2aa2 	bge	ceaaeacc <_start-0x1571544>
d0024040:	00a2aaaa 	adceq	sl, r2, sl, lsr #21
d0024044:	00000000 	andeq	r0, r0, r0
d0024048:	aaaaaaaa 	bge	ceaceaf8 <_start-0x1551518>
d002404c:	00000000 	andeq	r0, r0, r0
d0024050:	df050000 	svcle	0x00050000
d0024054:	ffffffff 	undefined instruction 0xffffffff
d0024058:	ffffffff 	undefined instruction 0xffffffff
d002405c:	0400ddff 	streq	sp, [r0], #-3583	; 0xdff
d0024060:	c45d0544 	ldrbgt	r0, [sp], #-1348	; 0x544
d0024064:	00000000 	andeq	r0, r0, r0
d0024068:	dd5d0000 	ldclle	0, cr0, [sp]
d002406c:	0000dcdf 	ldrdeq	sp, [r0], -pc
d0024070:	00000000 	andeq	r0, r0, r0
d0024074:	bbbbab0a 	bllt	cef0eca4 <_start-0x111136c>
d0024078:	ffffbfbb 	undefined instruction 0xffffbfbb
d002407c:	baffffff 	blt	d0024080 <gImage_pic+0x12a8>
d0024080:	aaaaaaaa 	bge	ceaceb30 <_start-0x15514e0>
d0024084:	0088aaaa 	addeq	sl, r8, sl, lsr #21
d0024088:	08000000 	stmdaeq	r0, {}
d002408c:	aaaaaaaa 	bge	ceaceb3c <_start-0x15514d4>
d0024090:	00008888 	andeq	r8, r0, r8, lsl #17
d0024094:	ff070000 	undefined instruction 0xff070000
d0024098:	ffffffff 	undefined instruction 0xffffffff
d002409c:	ffffffff 	undefined instruction 0xffffffff
d00240a0:	55f5ffff 	ldrbpl	pc, [r5, #4095]!	; 0xfff
d00240a4:	74550150 	ldrbvc	r0, [r5], #-336	; 0x150
d00240a8:	00000000 	andeq	r0, r0, r0
d00240ac:	f57f0100 	undefined instruction 0xf57f0100
d00240b0:	0000fd57 	andeq	pc, r0, r7, asr sp
d00240b4:	00000000 	andeq	r0, r0, r0
d00240b8:	eaeaaa2a 	b	cface968 <_start-0x5516a8>
d00240bc:	eeeeeeee 	cdp	14, 14, cr14, cr14, cr14, {7}
d00240c0:	eeeeeeee 	cdp	14, 14, cr14, cr14, cr14, {7}
d00240c4:	aaaaaaea 	bge	ceacec74 <_start-0x155139c>
d00240c8:	00a0aaaa 	adceq	sl, r0, sl, lsr #21
d00240cc:	0a000000 	beq	d00240d4 <gImage_pic+0x12fc>
d00240d0:	aaaaaaaa 	bge	ceaceb80 <_start-0x1551490>
d00240d4:	000000a0 	andeq	r0, r0, r0, lsr #1
d00240d8:	ff050000 	undefined instruction 0xff050000
d00240dc:	ffffffff 	undefined instruction 0xffffffff
d00240e0:	ffffffff 	undefined instruction 0xffffffff
d00240e4:	ddfdffff 	ldclle	15, cr15, [sp, #1020]!	; 0x3fc
d00240e8:	5d0400c0 	stcpl	0, cr0, [r4, #-768]	; 0xfffffd00
d00240ec:	00000040 	andeq	r0, r0, r0, asr #32
d00240f0:	dddd0500 	cfldr64le	mvdx0, [sp]
d00240f4:	00c0fdc5 	sbceq	pc, r0, r5, asr #27
d00240f8:	00000000 	andeq	r0, r0, r0
d00240fc:	bbbbabaa 	bllt	cef0efac <_start-0x1111064>
d0024100:	fffffffb 	undefined instruction 0xfffffffb
d0024104:	fbfbffff 	blx	cff2410a <_start-0xfbf06>
d0024108:	aaaaaafa 	bge	ceacecf8 <_start-0x1551318>
d002410c:	80a8aaaa 	adchi	sl, r8, sl, lsr #21
d0024110:	8a800000 	bhi	ce024118 <_start-0x1ffbef8>
d0024114:	aaaaaaaa 	bge	ceacebc4 <_start-0x155144c>
d0024118:	000088a8 	andeq	r8, r0, r8, lsr #17
d002411c:	ff170000 	undefined instruction 0xff170000
d0024120:	ffffffff 	undefined instruction 0xffffffff
d0024124:	ffffffff 	undefined instruction 0xffffffff
d0024128:	7fffffff 	svcvc	0x00ffffff
d002412c:	570155f1 	undefined instruction 0x570155f1
d0024130:	00000050 	andeq	r0, r0, r0, asr r0
d0024134:	f5ff1700 	undefined instruction 0xf5ff1700
d0024138:	00d07f51 	sbcseq	r7, r0, r1, asr pc
d002413c:	00000000 	andeq	r0, r0, r0
d0024140:	eeaaaa2a 	vfma.f32	s20, s20, s21
d0024144:	efefefee 	svc	0x00efefee
d0024148:	eeeeeeee 	cdp	14, 14, cr14, cr14, cr14, {7}
d002414c:	aaaaaaea 	bge	ceacecfc <_start-0x1551314>
d0024150:	a0aaaaaa 	adcge	sl, sl, sl, lsr #21
d0024154:	aa220000 	bge	d08a415c <bss_end+0x87d734>
d0024158:	aaaaaaaa 	bge	ceacec08 <_start-0x1551408>
d002415c:	000002aa 	andeq	r0, r0, sl, lsr #5
d0024160:	df1d0000 	svcle	0x001d0000
d0024164:	ffffffff 	undefined instruction 0xffffffff
d0024168:	ffffffff 	undefined instruction 0xffffffff
d002416c:	dfffffff 	svcle	0x00ffffff
d0024170:	0540dddd 	strbeq	sp, [r0, #-3549]	; 0xddd
d0024174:	000000d4 	ldrdeq	r0, [r0], -r4
d0024178:	dddd4d00 	ldclle	13, cr4, [sp]
d002417c:	00d45f44 	sbcseq	r5, r4, r4, asr #30
d0024180:	00000000 	andeq	r0, r0, r0
d0024184:	bbbbabaa 	bllt	cef0f034 <_start-0x1110fdc>
d0024188:	ffffffbf 	undefined instruction 0xffffffbf
d002418c:	ffffffff 	undefined instruction 0xffffffff
d0024190:	aaaaaaba 	bge	ceacec80 <_start-0x1551390>
d0024194:	a8aaaaaa 	stmiage	sl!, {r1, r3, r5, r7, r9, fp, sp, pc}
d0024198:	aaaa8888 	bge	ceac63c0 <_start-0x1559c50>
d002419c:	aaaaaaaa 	bge	ceacec4c <_start-0x15513c4>
d00241a0:	000088aa 	andeq	r8, r0, sl, lsr #17
d00241a4:	ff170000 	undefined instruction 0xff170000
d00241a8:	ffffffff 	undefined instruction 0xffffffff
d00241ac:	ffffffff 	undefined instruction 0xffffffff
d00241b0:	d5ffffff 	ldrble	pc, [pc, #4095]!	; d00251b7 <gImage_pic+0x23df>
d00241b4:	1551ff7f 	ldrbne	pc, [r1, #-3967]	; 0xf7f
d00241b8:	00005055 	andeq	r5, r0, r5, asr r0
d00241bc:	f5ff5715 	undefined instruction 0xf5ff5715
d00241c0:	00f51f51 	rscseq	r1, r5, r1, asr pc
d00241c4:	00000000 	andeq	r0, r0, r0
d00241c8:	eeaaaaaa 	vfma.f32	s20, s21, s21
d00241cc:	eeeeeeee 	cdp	14, 14, cr14, cr14, cr14, {7}
d00241d0:	eeeeeeee 	cdp	14, 14, cr14, cr14, cr14, {7}
d00241d4:	aaaaaaea 	bge	ceaced84 <_start-0x155128c>
d00241d8:	aaaaaaaa 	bge	ceacec88 <_start-0x1551388>
d00241dc:	aaaa2aa2 	bge	ceaaec6c <_start-0x15713a4>
d00241e0:	aaaaaaaa 	bge	ceacec90 <_start-0x1551380>
d00241e4:	0000aaaa 	andeq	sl, r0, sl, lsr #21
d00241e8:	ff5d0000 	undefined instruction 0xff5d0000
d00241ec:	ffffffff 	undefined instruction 0xffffffff
d00241f0:	ffffffff 	undefined instruction 0xffffffff
d00241f4:	d5ffffff 	ldrble	pc, [pc, #4095]!	; d00251fb <gImage_pic+0x2423>
d00241f8:	00d4fddd 	ldrsbeq	pc, [r4], #221	; 0xdd
d00241fc:	0040d455 	subeq	sp, r0, r5, asr r4
d0024200:	ddfddd55 	ldclle	13, cr13, [sp, #340]!	; 0x154
d0024204:	40fd0540 	rscsmi	r0, sp, r0, asr #10
d0024208:	00000000 	andeq	r0, r0, r0
d002420c:	bbbbabaa 	bllt	cef0f0bc <_start-0x1110f54>
d0024210:	ffffffbb 	undefined instruction 0xffffffbb
d0024214:	fbffffff 	blx	d002421a <gImage_pic+0x1442>
d0024218:	aaaaaafb 	bge	ceacee0c <_start-0x1551204>
d002421c:	aaaaaaaa 	bge	ceaceccc <_start-0x1551344>
d0024220:	aaaaaaaa 	bge	ceacecd0 <_start-0x1551340>
d0024224:	aaaaaaaa 	bge	ceacecd4 <_start-0x155133c>
d0024228:	0000aaaa 	andeq	sl, r0, sl, lsr #21
d002422c:	ff570000 	undefined instruction 0xff570000
d0024230:	ffffffff 	undefined instruction 0xffffffff
d0024234:	ffffffff 	undefined instruction 0xffffffff
d0024238:	f5ffffff 	undefined instruction 0xf5ffffff
d002423c:	01f5ff57 	mvnseq	pc, r7, asr pc
d0024240:	15515757 	ldrbne	r5, [r1, #-1879]	; 0x757
d0024244:	f7ffff57 	undefined instruction 0xf7ffff57
d0024248:	51ff0551 	mvnspl	r0, r1, asr r5
d002424c:	02000000 	andeq	r0, r0, #0
d0024250:	aeaeaaaa 	vfmage.f32	s20, s29, s21
d0024254:	eeeeeeee 	cdp	14, 14, cr14, cr14, cr14, {7}
d0024258:	eeeeeeef 	cdp	14, 14, cr14, cr14, cr15, {7}
d002425c:	aaaaaaee 	bge	ceacee1c <_start-0x15511f4>
d0024260:	aaaaaaaa 	bge	ceaced10 <_start-0x1551300>
d0024264:	aaaaaaaa 	bge	ceaced14 <_start-0x15512fc>
d0024268:	aaaaaaaa 	bge	ceaced18 <_start-0x15512f8>
d002426c:	0000aaaa 	andeq	sl, r0, sl, lsr #21
d0024270:	ff5d0000 	undefined instruction 0xff5d0000
d0024274:	ffffffff 	undefined instruction 0xffffffff
d0024278:	ffffffff 	undefined instruction 0xffffffff
d002427c:	ddffffff 	ldclle	15, cr15, [pc, #1020]!	; 0x3fc
d0024280:	00fcffdd 	ldrsbteq	pc, [ip], #253	; 0xfd
d0024284:	5dd5dd5d 	ldclpl	13, cr13, [r5, #372]	; 0x174
d0024288:	ddffdfdd 	ldclle	15, cr13, [pc, #884]!	; 0x374
d002428c:	d5df0144 	ldrble	r0, [pc, #324]	; d00243d8 <gImage_pic+0x1600>
d0024290:	0a000000 	beq	d0024298 <gImage_pic+0x14c0>
d0024294:	bbbbbbaa 	bllt	cef13144 <_start-0x110cecc>
d0024298:	ffffbfbf 	undefined instruction 0xffffbfbf
d002429c:	ffffffff 	undefined instruction 0xffffffff
d00242a0:	aaaaaabb 	bge	ceaced94 <_start-0x155127c>
d00242a4:	aaaa88aa 	bge	ceac6554 <_start-0x1559abc>
d00242a8:	aaaaaaaa 	bge	ceaced58 <_start-0x15512b8>
d00242ac:	8aaaaaaa 	bhi	ceaced5c <_start-0x15512b4>
d00242b0:	0000aaaa 	andeq	sl, r0, sl, lsr #21
d00242b4:	ff570100 	undefined instruction 0xff570100
d00242b8:	ffffffff 	undefined instruction 0xffffffff
d00242bc:	ffffffff 	undefined instruction 0xffffffff
d00242c0:	ffffffff 	undefined instruction 0xffffffff
d00242c4:	00fcf77f 	rscseq	pc, ip, pc, ror r7
d00242c8:	77757717 	undefined instruction 0x77757717
d00242cc:	ffffff7f 	undefined instruction 0xffffff7f
d00242d0:	d57f0050 	ldrble	r0, [pc, #-80]!	; d0024288 <gImage_pic+0x14b0>
d00242d4:	02000000 	andeq	r0, r0, #0
d00242d8:	aeaaaaaa 	vfmage.f32	s20, s21, s21
d00242dc:	eeeeeeee 	cdp	14, 14, cr14, cr14, cr14, {7}
d00242e0:	eeeeeeee 	cdp	14, 14, cr14, cr14, cr14, {7}
d00242e4:	aaaaaaee 	bge	ceaceea4 <_start-0x155116c>
d00242e8:	aaaaa2aa 	bge	ceaccd98 <_start-0x1553278>
d00242ec:	aaaaaaaa 	bge	ceaced9c <_start-0x1551274>
d00242f0:	aaaaaaaa 	bge	ceaceda0 <_start-0x1551270>
d00242f4:	0000aaaa 	andeq	sl, r0, sl, lsr #21
d00242f8:	fddd0000 	ldc2l	0, cr0, [sp]
d00242fc:	ffffffff 	undefined instruction 0xffffffff
d0024300:	ffffffff 	undefined instruction 0xffffffff
d0024304:	fdffffff 	ldc2l	15, cr15, [pc, #1020]!	; 0x3fc
d0024308:	00fcdddd 	ldrsbteq	sp, [ip], #221	; 0xdd
d002430c:	dddddd5d 	ldclle	13, cr13, [sp, #372]	; 0x174
d0024310:	ddfddddd 	ldclle	13, cr13, [sp, #884]!	; 0x374
d0024314:	d45f00d4 	ldrble	r0, [pc], #212	; d002431c <gImage_pic+0x1544>
d0024318:	0a000000 	beq	d0024320 <gImage_pic+0x1548>
d002431c:	bbbbabaa 	bllt	cef0f1cc <_start-0x1110e44>
d0024320:	fffbfbbb 	undefined instruction 0xfffbfbbb
d0024324:	fbffffff 	blx	d002432a <gImage_pic+0x1552>
d0024328:	aaaaaafb 	bge	ceacef1c <_start-0x15510f4>
d002432c:	aaaa88aa 	bge	ceac65dc <_start-0x1559a34>
d0024330:	aaaaaaaa 	bge	ceacede0 <_start-0x1551230>
d0024334:	a8aaaaaa 	stmiage	sl!, {r1, r3, r5, r7, r9, fp, sp, pc}
d0024338:	0000aaab 	andeq	sl, r0, fp, lsr #21
d002433c:	ff770100 	undefined instruction 0xff770100
d0024340:	ffffffff 	undefined instruction 0xffffffff
d0024344:	ffffffff 	undefined instruction 0xffffffff
d0024348:	ffffffff 	undefined instruction 0xffffffff
d002434c:	007df5ff 	ldrshteq	pc, [sp], #-95	; 0xffffffa1
d0024350:	f7f7f75f 	undefined instruction 0xf7f7f75f
d0024354:	f7fffff7 	undefined instruction 0xf7fffff7
d0024358:	f5170075 	undefined instruction 0xf5170075
d002435c:	0a000000 	beq	d0024364 <gImage_pic+0x158c>
d0024360:	aeaeaaaa 	vfmage.f32	s20, s29, s21
d0024364:	eeeeeeee 	cdp	14, 14, cr14, cr14, cr14, {7}
d0024368:	eeeeefef 	cdp	15, 14, cr14, cr14, cr15, {7}
d002436c:	aaaaeaee 	bge	ceadef2c <_start-0x15410e4>
d0024370:	aaaaaaaa 	bge	ceacee20 <_start-0x15511f0>
d0024374:	aaaaaaaa 	bge	ceacee24 <_start-0x15511ec>
d0024378:	aaaaaaaa 	bge	ceacee28 <_start-0x15511e8>
d002437c:	0000aaaa 	andeq	sl, r0, sl, lsr #21
d0024380:	dfdd0500 	svcle	0x00dd0500
d0024384:	ffffffff 	undefined instruction 0xffffffff
d0024388:	ffffffff 	undefined instruction 0xffffffff
d002438c:	ffffffff 	undefined instruction 0xffffffff
d0024390:	40ddddff 	ldrshmi	sp, [sp], #223	; 0xdf
d0024394:	dddddd5f 	ldclle	13, cr13, [sp, #380]	; 0x17c
d0024398:	dddddddd 	ldclle	13, cr13, [sp, #884]	; 0x374
d002439c:	fd0540dd 	stc2	0, cr4, [r5, #-884]	; 0xfffffc8c
d00243a0:	0a000000 	beq	d00243a8 <gImage_pic+0x15d0>
d00243a4:	bbbbbaaa 	bllt	cef12e54 <_start-0x110d1bc>
d00243a8:	bfffbfbb 	svclt	0x00ffbfbb
d00243ac:	ffffffff 	undefined instruction 0xffffffff
d00243b0:	aaaababf 	bge	cead2eb4 <_start-0x154d15c>
d00243b4:	aaaaaaaa 	bge	ceacee64 <_start-0x15511ac>
d00243b8:	aaaaaaaa 	bge	ceacee68 <_start-0x15511a8>
d00243bc:	aaaaaaaa 	bge	ceacee6c <_start-0x15511a4>
d00243c0:	0000aa8a 	andeq	sl, r0, sl, lsl #21
d00243c4:	ff570500 	undefined instruction 0xff570500
d00243c8:	ffffffff 	undefined instruction 0xffffffff
d00243cc:	ffffffff 	undefined instruction 0xffffffff
d00243d0:	ffffffff 	undefined instruction 0xffffffff
d00243d4:	75ffffff 	ldrbvc	pc, [pc, #4095]!	; d00253db <gImage_pic+0x2603>
d00243d8:	ffffff7f 	undefined instruction 0xffffff7f
d00243dc:	75777f7f 	ldrbvc	r7, [r7, #-3967]!	; 0xf7f
d00243e0:	7d015055 	stcvc	0, cr5, [r1, #-340]	; 0xfffffeac
d00243e4:	2a000000 	bcs	d00243ec <gImage_pic+0x1614>
d00243e8:	aaaaaaaa 	bge	ceacee98 <_start-0x1551178>
d00243ec:	eeeeeeee 	cdp	14, 14, cr14, cr14, cr14, {7}
d00243f0:	eeeeeeee 	cdp	14, 14, cr14, cr14, cr14, {7}
d00243f4:	aaaaeaee 	bge	ceadefb4 <_start-0x154105c>
d00243f8:	aaaaaaaa 	bge	ceaceea8 <_start-0x1551168>
d00243fc:	aaaaaaaa 	bge	ceaceeac <_start-0x1551164>
d0024400:	aaaaaaaa 	bge	ceaceeb0 <_start-0x1551160>
d0024404:	0000aaaa 	andeq	sl, r0, sl, lsr #21
d0024408:	ffdd0500 	undefined instruction 0xffdd0500
d002440c:	ffffffff 	undefined instruction 0xffffffff
d0024410:	ffffffff 	undefined instruction 0xffffffff
d0024414:	ffffffff 	undefined instruction 0xffffffff
d0024418:	ddddddfd 	ldclle	13, cr13, [sp, #1012]	; 0x3f4
d002441c:	dddddddd 	ldclle	13, cr13, [sp, #884]	; 0x374
d0024420:	d5dddddd 	ldrble	sp, [sp, #3549]	; 0xddd
d0024424:	dd004054 	stcle	0, cr4, [r0, #-336]	; 0xfffffeb0
d0024428:	8a000000 	bhi	d0024430 <gImage_pic+0x1658>
d002442c:	bbabbbab 	bllt	ceb132e0 <_start-0x150cd30>
d0024430:	fffbfbbb 	undefined instruction 0xfffbfbbb
d0024434:	fbfbfffb 	blx	cff2442a <_start-0xfbbe6>
d0024438:	aaaafbfb 	bge	ceae342c <_start-0x153cbe4>
d002443c:	aaaaaaaa 	bge	ceaceeec <_start-0x1551124>
d0024440:	aaaaaaaa 	bge	ceaceef0 <_start-0x1551120>
d0024444:	aaaaaaaa 	bge	ceaceef4 <_start-0x155111c>
d0024448:	0000aa88 	andeq	sl, r0, r8, lsl #21
d002444c:	ff770500 	undefined instruction 0xff770500
d0024450:	ffffffff 	undefined instruction 0xffffffff
d0024454:	ffffffff 	undefined instruction 0xffffffff
d0024458:	ffffffff 	undefined instruction 0xffffffff
d002445c:	fff7ffff 	undefined instruction 0xfff7ffff
d0024460:	f7fffff7 	undefined instruction 0xf7fffff7
d0024464:	555577f7 	ldrbpl	r7, [r5, #-2039]	; 0x7f7
d0024468:	7f000051 	svcvc	0x00000051
d002446c:	2a000000 	bcs	d0024474 <gImage_pic+0x169c>
d0024470:	aeaeaaaa 	vfmage.f32	s20, s29, s21
d0024474:	eeeeeeee 	cdp	14, 14, cr14, cr14, cr14, {7}
d0024478:	eeeeeeee 	cdp	14, 14, cr14, cr14, cr14, {7}
d002447c:	aaaaeeee 	bge	ceae003c <_start-0x153ffd4>
d0024480:	aaaaaaaa 	bge	ceacef30 <_start-0x15510e0>
d0024484:	aaaaaaaa 	bge	ceacef34 <_start-0x15510dc>
d0024488:	aaaaaaaa 	bge	ceacef38 <_start-0x15510d8>
d002448c:	0000aaa2 	andeq	sl, r0, r2, lsr #21
d0024490:	ffdf0500 	undefined instruction 0xffdf0500
d0024494:	ffffffff 	undefined instruction 0xffffffff
d0024498:	ffffffff 	undefined instruction 0xffffffff
d002449c:	ffffffff 	undefined instruction 0xffffffff
d00244a0:	dfddddff 	svcle	0x00ddddff
d00244a4:	dddfdddd 	ldclle	13, cr13, [pc, #884]	; 0x374
d00244a8:	4455dddd 	ldrbmi	sp, [r5], #-3549	; 0xddd
d00244ac:	1f000044 	svcne	0x00000044
d00244b0:	0a000000 	beq	d00244b8 <gImage_pic+0x16e0>
d00244b4:	bbbbbbaa 	bllt	cef13364 <_start-0x110ccac>
d00244b8:	ffbfbbbb 	undefined instruction 0xffbfbbbb
d00244bc:	bbffffff 	bllt	d00244c0 <gImage_pic+0x16e8>
d00244c0:	aaaabbbf 	bge	cead33c4 <_start-0x154cc4c>
d00244c4:	aaaaaaaa 	bge	ceacef74 <_start-0x155109c>
d00244c8:	aaaaaaaa 	bge	ceacef78 <_start-0x1551098>
d00244cc:	aaaaaaaa 	bge	ceacef7c <_start-0x1551094>
d00244d0:	0000aa88 	andeq	sl, r0, r8, lsl #21
d00244d4:	ff7f0100 	undefined instruction 0xff7f0100
d00244d8:	ffffffff 	undefined instruction 0xffffffff
d00244dc:	ffffffff 	undefined instruction 0xffffffff
d00244e0:	ffffffff 	undefined instruction 0xffffffff
d00244e4:	7f77ffff 	svcvc	0x0077ffff
d00244e8:	ffff7fff 	undefined instruction 0xffff7fff
d00244ec:	51555575 	cmppl	r5, r5, ror r5
d00244f0:	17000010 	smladne	r0, r0, r0, r0
d00244f4:	0a000000 	beq	d00244fc <gImage_pic+0x1724>
d00244f8:	aaeaaaaa 	bge	cfacefa8 <_start-0x551068>
d00244fc:	eeeeeeee 	cdp	14, 14, cr14, cr14, cr14, {7}
d0024500:	eeeeeeee 	cdp	14, 14, cr14, cr14, cr14, {7}
d0024504:	aaaaeaee 	bge	ceadf0c4 <_start-0x1540f4c>
d0024508:	aaaaaaaa 	bge	ceacefb8 <_start-0x1551058>
d002450c:	aaaaaaaa 	bge	ceacefbc <_start-0x1551054>
d0024510:	aaaaaaaa 	bge	ceacefc0 <_start-0x1551050>
d0024514:	00002aa0 	andeq	r2, r0, r0, lsr #21
d0024518:	ffdd0500 	undefined instruction 0xffdd0500
d002451c:	ffffffff 	undefined instruction 0xffffffff
d0024520:	ffffffff 	undefined instruction 0xffffffff
d0024524:	ffffffff 	undefined instruction 0xffffffff
d0024528:	ddddddfd 	ldclle	13, cr13, [sp, #1012]	; 0x3f4
d002452c:	dddddddd 	ldclle	13, cr13, [sp, #884]	; 0x374
d0024530:	4044d4dd 	ldrdmi	sp, [r4], #-77	; 0xffffffb3
d0024534:	05000000 	streq	r0, [r0]
d0024538:	0a000000 	beq	d0024540 <gImage_pic+0x1768>
d002453c:	bbababaa 	bllt	ceb0f3ec <_start-0x1510c24>
d0024540:	fbfbfffb 	blx	cff24536 <_start-0xfbada>
d0024544:	bbfbfbff 	bllt	cff23548 <_start-0xfcac8>
d0024548:	aaaaaabb 	bge	ceacf03c <_start-0x1550fd4>
d002454c:	aaaaaaaa 	bge	ceaceffc <_start-0x1551014>
d0024550:	aaaaaaaa 	bge	ceacf000 <_start-0x1551010>
d0024554:	88aaaaaa 	stmiahi	sl!, {r1, r3, r5, r7, r9, fp, sp, pc}
d0024558:	00008a88 	andeq	r8, r0, r8, lsl #21
d002455c:	ff7f0500 	undefined instruction 0xff7f0500
d0024560:	ffffffff 	undefined instruction 0xffffffff
d0024564:	ffffffff 	undefined instruction 0xffffffff
d0024568:	ffffffff 	undefined instruction 0xffffffff
d002456c:	f7f7f7ff 	undefined instruction 0xf7f7f7ff
d0024570:	ffffffff 	undefined instruction 0xffffffff
d0024574:	115155f5 	ldrshne	r5, [r1, #-85]	; 0xffffffab
d0024578:	01000000 	tsteq	r0, r0
d002457c:	0a000000 	beq	d0024584 <gImage_pic+0x17ac>
d0024580:	aeaaaaaa 	vfmage.f32	s20, s21, s21
d0024584:	eeeeefee 	cdp	15, 14, cr14, cr14, cr14, {7}
d0024588:	aaeeeeee 	bge	cfbe0148 <_start-0x43fec8>
d002458c:	aaaaaaaa 	bge	ceacf03c <_start-0x1550fd4>
d0024590:	aaaaaaaa 	bge	ceacf040 <_start-0x1550fd0>
d0024594:	aaaaaaaa 	bge	ceacf044 <_start-0x1550fcc>
d0024598:	aaaaaaaa 	bge	ceacf048 <_start-0x1550fc8>
d002459c:	000002a2 	andeq	r0, r0, r2, lsr #5
d00245a0:	ffdf0500 	undefined instruction 0xffdf0500
d00245a4:	ffffffff 	undefined instruction 0xffffffff
d00245a8:	ffffffff 	undefined instruction 0xffffffff
d00245ac:	ddffffff 	ldclle	15, cr15, [pc, #1020]!	; 0x3fc
d00245b0:	dddddddd 	ldclle	13, cr13, [sp, #884]	; 0x374
d00245b4:	dfdfdfdf 	svcle	0x00dfdfdf
d00245b8:	0044d4dd 	ldrdeq	sp, [r4], #-77	; 0xffffffb3
d00245bc:	00000000 	andeq	r0, r0, r0
d00245c0:	0a000000 	beq	d00245c8 <gImage_pic+0x17f0>
d00245c4:	bfbbbbab 	svclt	0x00bbbbab
d00245c8:	ffffffff 	undefined instruction 0xffffffff
d00245cc:	aabbffff 	bge	cef245d0 <_start-0x10fba40>
d00245d0:	aaaaaaaa 	bge	ceacf080 <_start-0x1550f90>
d00245d4:	aaaaaaaa 	bge	ceacf084 <_start-0x1550f8c>
d00245d8:	aaaaaaaa 	bge	ceacf088 <_start-0x1550f88>
d00245dc:	88aaaaaa 	stmiahi	sl!, {r1, r3, r5, r7, r9, fp, sp, pc}
d00245e0:	00008a88 	andeq	r8, r0, r8, lsl #21
d00245e4:	ff7f1500 	undefined instruction 0xff7f1500
d00245e8:	ffffffff 	undefined instruction 0xffffffff
d00245ec:	ffffffff 	undefined instruction 0xffffffff
d00245f0:	7775ffff 	undefined instruction 0x7775ffff
d00245f4:	7f777775 	svcvc	0x00777775
d00245f8:	ffffffff 	undefined instruction 0xffffffff
d00245fc:	101155f5 	ldrshne	r5, [r1], -r5
d0024600:	00000000 	andeq	r0, r0, r0
d0024604:	2a000000 	bcs	d002460c <gImage_pic+0x1834>
d0024608:	eeaaaaaa 	vfma.f32	s20, s21, s21
d002460c:	eeeeeeee 	cdp	14, 14, cr14, cr14, cr14, {7}
d0024610:	aaaaeeee 	bge	ceae01d0 <_start-0x153fe40>
d0024614:	aaaaaaaa 	bge	ceacf0c4 <_start-0x1550f4c>
d0024618:	aaaaaaaa 	bge	ceacf0c8 <_start-0x1550f48>
d002461c:	aaaaaaaa 	bge	ceacf0cc <_start-0x1550f44>
d0024620:	aaaaaaaa 	bge	ceacf0d0 <_start-0x1550f40>
d0024624:	00000220 	andeq	r0, r0, r0, lsr #4
d0024628:	ffdf0500 	undefined instruction 0xffdf0500
d002462c:	ffffffff 	undefined instruction 0xffffffff
d0024630:	ffffffff 	undefined instruction 0xffffffff
d0024634:	ddd5ddfd 	ldclle	13, cr13, [r5, #1012]	; 0x3f4
d0024638:	dddddddd 	ldclle	13, cr13, [sp, #884]	; 0x374
d002463c:	fdfdfddd 	ldc2l	13, cr15, [sp, #884]!	; 0x374
d0024640:	0040d4dd 	ldrdeq	sp, [r0], #-77	; 0xffffffb3
d0024644:	00000000 	andeq	r0, r0, r0
d0024648:	8a000000 	bhi	d0024650 <gImage_pic+0x1878>
d002464c:	bbbbabab 	bllt	cef0f500 <_start-0x1110b10>
d0024650:	ffffffbb 	undefined instruction 0xffffffbb
d0024654:	aaaafbfb 	bge	ceae3648 <_start-0x153c9c8>
d0024658:	aaaaaaaa 	bge	ceacf108 <_start-0x1550f08>
d002465c:	aaaaaaaa 	bge	ceacf10c <_start-0x1550f04>
d0024660:	aaaaaaaa 	bge	ceacf110 <_start-0x1550f00>
d0024664:	88a8aaaa 	stmiahi	r8!, {r1, r3, r5, r7, r9, fp, sp, pc}
d0024668:	00008888 	andeq	r8, r0, r8, lsl #17
d002466c:	ff7f0500 	undefined instruction 0xff7f0500
d0024670:	ffffffff 	undefined instruction 0xffffffff
d0024674:	ffffffff 	undefined instruction 0xffffffff
d0024678:	555555f7 	ldrbpl	r5, [r5, #-1527]	; 0x5f7
d002467c:	f7777757 	undefined instruction 0xf7777757
d0024680:	ffffffff 	undefined instruction 0xffffffff
d0024684:	005155f7 	ldrsheq	r5, [r1], #-87	; 0xffffffa9
d0024688:	00000000 	andeq	r0, r0, r0
d002468c:	2a000000 	bcs	d0024694 <gImage_pic+0x18bc>
d0024690:	aeaaaeaa 	cdpge	14, 10, cr10, cr10, cr10, {5}
d0024694:	eeeeeeee 	cdp	14, 14, cr14, cr14, cr14, {7}
d0024698:	aaaaeeee 	bge	ceae0258 <_start-0x153fdb8>
d002469c:	aaaaaaaa 	bge	ceacf14c <_start-0x1550ec4>
d00246a0:	aaaaaaaa 	bge	ceacf150 <_start-0x1550ec0>
d00246a4:	aaaaaaaa 	bge	ceacf154 <_start-0x1550ebc>
d00246a8:	a2aaaaaa 	adcge	sl, sl, #696320	; 0xaa000
d00246ac:	000000a2 	andeq	r0, r0, r2, lsr #1
d00246b0:	ffdf0500 	undefined instruction 0xffdf0500
d00246b4:	ffffffff 	undefined instruction 0xffffffff
d00246b8:	ffffffff 	undefined instruction 0xffffffff
d00246bc:	554544dd 	strbpl	r4, [r5, #-1245]	; 0x4dd
d00246c0:	dddddd5d 	ldclle	13, cr13, [sp, #372]	; 0x174
d00246c4:	ffdfdfdd 	undefined instruction 0xffdfdfdd
d00246c8:	0044d4dd 	ldrdeq	sp, [r4], #-77	; 0xffffffb3
d00246cc:	00000000 	andeq	r0, r0, r0
d00246d0:	0a000000 	beq	d00246d8 <gImage_pic+0x1900>
d00246d4:	bbbbbbaa 	bllt	cef13584 <_start-0x110ca8c>
d00246d8:	ffbfbbbb 	undefined instruction 0xffbfbbbb
d00246dc:	aaaafaff 	bge	ceae32e0 <_start-0x153cd30>
d00246e0:	aaaaaaaa 	bge	ceacf190 <_start-0x1550e80>
d00246e4:	aaaaaaaa 	bge	ceacf194 <_start-0x1550e7c>
d00246e8:	aaaaaaaa 	bge	ceacf198 <_start-0x1550e78>
d00246ec:	888aaaaa 	stmhi	sl, {r1, r3, r5, r7, r9, fp, sp, pc}
d00246f0:	00008888 	andeq	r8, r0, r8, lsl #17
d00246f4:	ff7f0500 	undefined instruction 0xff7f0500
d00246f8:	ffffffff 	undefined instruction 0xffffffff
d00246fc:	ffffffff 	undefined instruction 0xffffffff
d0024700:	55155155 	ldrpl	r5, [r5, #-341]	; 0x155
d0024704:	75775555 	ldrbvc	r5, [r7, #-1365]!	; 0x555
d0024708:	ffffff7f 	undefined instruction 0xffffff7f
d002470c:	001155ff 	ldrsheq	r5, [r1], -pc
d0024710:	00000000 	andeq	r0, r0, r0
d0024714:	2a000000 	bcs	d002471c <gImage_pic+0x1944>
d0024718:	aaaaaaaa 	bge	ceacf1c8 <_start-0x1550e48>
d002471c:	eeeeeeaa 	cdp	14, 14, cr14, cr14, cr10, {5}
d0024720:	aaaaeaee 	bge	ceadf2e0 <_start-0x1540d30>
d0024724:	aaaaaaaa 	bge	ceacf1d4 <_start-0x1550e3c>
d0024728:	aaaaaaaa 	bge	ceacf1d8 <_start-0x1550e38>
d002472c:	aaaaaaaa 	bge	ceacf1dc <_start-0x1550e34>
d0024730:	a2aaaaaa 	adcge	sl, sl, #696320	; 0xaa000
d0024734:	00002022 	andeq	r2, r0, r2, lsr #32
d0024738:	ffdf0500 	undefined instruction 0xffdf0500
d002473c:	ffffffff 	undefined instruction 0xffffffff
d0024740:	fdffffff 	ldc2l	15, cr15, [pc, #1020]!	; 0x3fc
d0024744:	45444044 	strbmi	r4, [r4, #-68]	; 0x44
d0024748:	dddddddd 	ldclle	13, cr13, [sp, #884]	; 0x374
d002474c:	fdfddddd 	ldc2l	13, cr13, [sp, #884]!	; 0x374
d0024750:	0040d4fd 	strdeq	sp, [r0], #-77	; 0xffffffb3
d0024754:	00000000 	andeq	r0, r0, r0
d0024758:	aa800080 	bge	ce024960 <_start-0x1ffb6b0>
d002475c:	abaaabaa 	blge	ceacf60c <_start-0x1550a04>
d0024760:	fbbbbbbb 	blx	cef13656 <_start-0x110c9ba>
d0024764:	aaaaaafb 	bge	ceacf358 <_start-0x1550cb8>
d0024768:	aaaaaaaa 	bge	ceacf218 <_start-0x1550df8>
d002476c:	aaaaaaaa 	bge	ceacf21c <_start-0x1550df4>
d0024770:	aaaaaaaa 	bge	ceacf220 <_start-0x1550df0>
d0024774:	8888a8aa 	stmhi	r8, {r1, r3, r5, r7, fp, sp, pc}
d0024778:	00008888 	andeq	r8, r0, r8, lsl #17
d002477c:	ffff1700 	undefined instruction 0xffff1700
d0024780:	ffffffff 	undefined instruction 0xffffffff
d0024784:	fdffffff 	ldc2l	15, cr15, [pc, #1020]!	; 0x3fc
d0024788:	55111151 	ldrpl	r1, [r1, #-337]	; 0x151
d002478c:	57555755 	undefined instruction 0x57555755
d0024790:	fffff777 	undefined instruction 0xfffff777
d0024794:	0051f5ff 	ldrsheq	pc, [r1], #-95	; 0xffffffa1
d0024798:	00000000 	andeq	r0, r0, r0
d002479c:	2a000000 	bcs	d00247a4 <gImage_pic+0x19cc>
d00247a0:	aaaaaaaa 	bge	ceacf250 <_start-0x1550dc0>
d00247a4:	eeaeaaae 	vfma.f32	s20, s29, s29
d00247a8:	aaaaaaee 	bge	ceacf368 <_start-0x1550ca8>
d00247ac:	aaaaaaaa 	bge	ceacf25c <_start-0x1550db4>
d00247b0:	aaaaaaaa 	bge	ceacf260 <_start-0x1550db0>
d00247b4:	aaaaaaaa 	bge	ceacf264 <_start-0x1550dac>
d00247b8:	a2a2aaaa 	adcge	sl, r2, #696320	; 0xaa000
d00247bc:	000020a2 	andeq	r2, r0, r2, lsr #1
d00247c0:	ffdf0500 	undefined instruction 0xffdf0500
d00247c4:	ffffffdf 	undefined instruction 0xffffffdf
d00247c8:	fdffffff 	ldc2l	15, cr15, [pc, #1020]!	; 0x3fc
d00247cc:	45000040 	strmi	r0, [r0, #-64]	; 0x40
d00247d0:	dddddd55 	ldclle	13, cr13, [sp, #340]	; 0x154
d00247d4:	dfdddddd 	svcle	0x00dddddd
d00247d8:	0044dddd 	ldrdeq	sp, [r4], #-221	; 0xffffff23
d00247dc:	00000000 	andeq	r0, r0, r0
d00247e0:	aa000000 	bge	d00247e8 <gImage_pic+0x1a10>
d00247e4:	bbaaaaaa 	bllt	ceacf294 <_start-0x1550d7c>
d00247e8:	bfbbbabb 	svclt	0x00bbbabb
d00247ec:	aaaaaaff 	bge	ceacf3f0 <_start-0x1550c20>
d00247f0:	aaaaaaaa 	bge	ceacf2a0 <_start-0x1550d70>
d00247f4:	aaaaaaaa 	bge	ceacf2a4 <_start-0x1550d6c>
d00247f8:	aaaaaaaa 	bge	ceacf2a8 <_start-0x1550d68>
d00247fc:	8888aaaa 	stmhi	r8, {r1, r3, r5, r7, r9, fp, sp, pc}
d0024800:	00008888 	andeq	r8, r0, r8, lsl #17
d0024804:	ff7f1500 	undefined instruction 0xff7f1500
d0024808:	ffffffff 	undefined instruction 0xffffffff
d002480c:	f5ffffff 	undefined instruction 0xf5ffffff
d0024810:	11010010 	tstne	r1, r0, lsl r0
d0024814:	55555555 	ldrbpl	r5, [r5, #-1365]	; 0x555
d0024818:	ff7f7755 	undefined instruction 0xff7f7755
d002481c:	0055f5ff 	ldrsheq	pc, [r5], #-95	; 0xffffffa1
d0024820:	00000000 	andeq	r0, r0, r0
d0024824:	2a000000 	bcs	d002482c <gImage_pic+0x1a54>
d0024828:	aaaaaaaa 	bge	ceacf2d8 <_start-0x1550d38>
d002482c:	eeaaeeea 	cdp	14, 10, cr14, cr10, cr10, {7}
d0024830:	aaaaaaee 	bge	ceacf3f0 <_start-0x1550c20>
d0024834:	aaaaaaaa 	bge	ceacf2e4 <_start-0x1550d2c>
d0024838:	aaaaaaaa 	bge	ceacf2e8 <_start-0x1550d28>
d002483c:	aaaaaaaa 	bge	ceacf2ec <_start-0x1550d24>
d0024840:	20aaaaaa 	adccs	sl, sl, sl, lsr #21
d0024844:	00002020 	andeq	r2, r0, r0, lsr #32
d0024848:	dddd0100 	ldflee	f0, [sp]
d002484c:	ffffffdf 	undefined instruction 0xffffffdf
d0024850:	d4ffffff 	ldrbtle	pc, [pc], #4095	; d0024858 <gImage_pic+0x1a80>
d0024854:	00000000 	andeq	r0, r0, r0
d0024858:	55d55544 	ldrbpl	r5, [r5, #1348]	; 0x544
d002485c:	dddddd55 	ldclle	13, cr13, [sp, #340]	; 0x154
d0024860:	00d4dddd 	ldrsbeq	sp, [r4], #221	; 0xdd
d0024864:	00000000 	andeq	r0, r0, r0
d0024868:	8a000000 	bhi	d0024870 <gImage_pic+0x1a98>
d002486c:	bbabaaaa 	bllt	ceb0f31c <_start-0x1510cf4>
d0024870:	fbbbbbbb 	blx	cef13766 <_start-0x110c8aa>
d0024874:	a8aaaafb 	stmiage	sl!, {r0, r1, r3, r4, r5, r6, r7, r9, fp, sp, pc}
d0024878:	aaaaaa88 	bge	ceacf2a0 <_start-0x1550d70>
d002487c:	aaaaaaaa 	bge	ceacf32c <_start-0x1550ce4>
d0024880:	aaaaaaaa 	bge	ceacf330 <_start-0x1550ce0>
d0024884:	8888a8aa 	stmhi	r8, {r1, r3, r5, r7, fp, sp, pc}
d0024888:	00008088 	andeq	r8, r0, r8, lsl #1
d002488c:	f7ff0100 	undefined instruction 0xf7ff0100
d0024890:	ffffffff 	undefined instruction 0xffffffff
d0024894:	d1ffffff 	ldrshle	pc, [pc, #255]	; d002499b <gImage_pic+0x1bc3>
d0024898:	01000000 	tsteq	r0, r0
d002489c:	55555511 	ldrbpl	r5, [r5, #-1297]	; 0x511
d00248a0:	77575555 	undefined instruction 0x77575555
d00248a4:	0055f7f7 	ldrsheq	pc, [r5], #-119	; 0xffffff89
d00248a8:	00000000 	andeq	r0, r0, r0
d00248ac:	0a000000 	beq	d00248b4 <gImage_pic+0x1adc>
d00248b0:	aeaaaaaa 	vfmage.f32	s20, s21, s21
d00248b4:	eeeeaeae 	cdp	14, 14, cr10, cr14, cr14, {5}
d00248b8:	aaaaaaee 	bge	ceacf478 <_start-0x1550b98>
d00248bc:	aaaaaaa2 	bge	ceacf34c <_start-0x1550cc4>
d00248c0:	aaaaaaaa 	bge	ceacf370 <_start-0x1550ca0>
d00248c4:	aaaaaaaa 	bge	ceacf374 <_start-0x1550c9c>
d00248c8:	02a2aaaa 	adceq	sl, r2, #696320	; 0xaa000
d00248cc:	00000000 	andeq	r0, r0, r0
d00248d0:	dddf0500 	cfldr64le	mvdx0, [pc]
d00248d4:	ffffffdf 	undefined instruction 0xffffffdf
d00248d8:	d4ffffff 	ldrbtle	pc, [pc], #4095	; d00248e0 <gImage_pic+0x1b08>
d00248dc:	00000000 	andeq	r0, r0, r0
d00248e0:	44444404 	strbmi	r4, [r4], #-1028	; 0x404
d00248e4:	dd5d4544 	cfldr64le	mvdx4, [sp, #-272]	; 0xfffffef0
d00248e8:	40d4dddd 	ldrsbmi	sp, [r4], #221	; 0xdd
d00248ec:	00000000 	andeq	r0, r0, r0
d00248f0:	0a000000 	beq	d00248f8 <gImage_pic+0x1b20>
d00248f4:	bbaaaaaa 	bllt	ceacf3a4 <_start-0x1550c6c>
d00248f8:	bbbbbbbb 	bllt	cef137ec <_start-0x110c824>
d00248fc:	88aaaaba 	stmiahi	sl!, {r1, r3, r4, r5, r7, r9, fp, sp, pc}
d0024900:	aaaa8a88 	bge	ceac7328 <_start-0x1558ce8>
d0024904:	aaaaaaaa 	bge	ceacf3b4 <_start-0x1550c5c>
d0024908:	aaaaaaaa 	bge	ceacf3b8 <_start-0x1550c58>
d002490c:	8888aaaa 	stmhi	r8, {r1, r3, r5, r7, r9, fp, sp, pc}
d0024910:	00000088 	andeq	r0, r0, r8, lsl #1
d0024914:	ff7f0500 	undefined instruction 0xff7f0500
d0024918:	ffffffff 	undefined instruction 0xffffffff
d002491c:	50ffffff 	ldrshtpl	pc, [pc, #255]	; d0024a23 <gImage_pic+0x1c4b>
d0024920:	00000000 	andeq	r0, r0, r0
d0024924:	11111111 	tstne	r1, r1, lsl r1
d0024928:	77551511 	smmlavc	r5, r1, r5, r1
d002492c:	1055f57f 	subsne	pc, r5, pc, ror r5
d0024930:	00000000 	andeq	r0, r0, r0
d0024934:	0a000000 	beq	d002493c <gImage_pic+0x1b64>
d0024938:	aaaaaaaa 	bge	ceacf3e8 <_start-0x1550c28>
d002493c:	eeeeaaea 	vfms.f32	s21, s29, s21
d0024940:	a2aaaaea 	adcge	sl, sl, #958464	; 0xea000
d0024944:	aaaa2222 	bge	ceaad1d4 <_start-0x1572e3c>
d0024948:	aaaaaaaa 	bge	ceacf3f8 <_start-0x1550c18>
d002494c:	aaaaaaaa 	bge	ceacf3fc <_start-0x1550c14>
d0024950:	20aaaaaa 	adccs	sl, sl, sl, lsr #21
d0024954:	00000000 	andeq	r0, r0, r0
d0024958:	dddd0500 	cfldr64le	mvdx0, [sp]
d002495c:	ffffffff 	undefined instruction 0xffffffff
d0024960:	c0fdffff 	ldrshtgt	pc, [sp], #255	; 0xff
d0024964:	00000000 	andeq	r0, r0, r0
d0024968:	00444000 	subeq	r4, r4, r0
d002496c:	dd550400 	cfldrdle	mvd0, [r5]
d0024970:	40d4dddd 	ldrsbmi	sp, [r4], #221	; 0xdd
d0024974:	00000000 	andeq	r0, r0, r0
d0024978:	0a800000 	beq	ce024980 <_start-0x1ffb690>
d002497c:	bbabaaaa 	bllt	ceb0f42c <_start-0x1510be4>
d0024980:	fbbbbbbb 	blx	cef13876 <_start-0x110c79a>
d0024984:	88a8aaba 	stmiahi	r8!, {r1, r3, r4, r5, r7, r9, fp, sp, pc}
d0024988:	aaaa8888 	bge	ceac6bb0 <_start-0x1559460>
d002498c:	aaaaaaaa 	bge	ceacf43c <_start-0x1550bd4>
d0024990:	aaaaaaaa 	bge	ceacf440 <_start-0x1550bd0>
d0024994:	8888aaaa 	stmhi	r8, {r1, r3, r5, r7, r9, fp, sp, pc}
d0024998:	00008080 	andeq	r8, r0, r0, lsl #1
d002499c:	77570100 	ldrbvc	r0, [r7, -r0, lsl #2]
d00249a0:	ffffffff 	undefined instruction 0xffffffff
d00249a4:	51ffffff 	ldrshpl	pc, [pc, #255]	; d0024aab <gImage_pic+0x1cd3>
d00249a8:	00000000 	andeq	r0, r0, r0
d00249ac:	01111101 	tsteq	r1, r1, lsl #2
d00249b0:	57551101 	ldrbpl	r1, [r5, -r1, lsl #2]
d00249b4:	5155f7ff 	ldrshpl	pc, [r5, #-127]	; 0xffffff81
d00249b8:	00000000 	andeq	r0, r0, r0
d00249bc:	02000000 	andeq	r0, r0, #0
d00249c0:	aaaaaaaa 	bge	ceacf470 <_start-0x1550ba0>
d00249c4:	eeaeaeae 	cdp	14, 10, cr10, cr14, cr14, {5}
d00249c8:	a2aaaaaa 	adcge	sl, sl, #696320	; 0xaa000
d00249cc:	aaaa0200 	bge	ceaa51d4 <_start-0x157ae3c>
d00249d0:	aaaaaaaa 	bge	ceacf480 <_start-0x1550b90>
d00249d4:	aaaaaaaa 	bge	ceacf484 <_start-0x1550b8c>
d00249d8:	00a2aaaa 	adceq	sl, r2, sl, lsr #21
d00249dc:	00000000 	andeq	r0, r0, r0
d00249e0:	df5d0000 	svcle	0x005d0000
d00249e4:	ffffffdf 	undefined instruction 0xffffffdf
d00249e8:	c4ffffff 	ldrbtgt	pc, [pc], #4095	; d00249f0 <gImage_pic+0x1c18>
	...
d00249f4:	5d050000 	stcpl	0, cr0, [r5]
d00249f8:	40d4dddd 	ldrsbmi	sp, [r4], #221	; 0xdd
d00249fc:	00000000 	andeq	r0, r0, r0
d0024a00:	0a000000 	beq	d0024a08 <gImage_pic+0x1c30>
d0024a04:	bbaaaaaa 	bllt	ceacf4b4 <_start-0x1550b5c>
d0024a08:	bbbbbbbb 	bllt	cef138fc <_start-0x110c714>
d0024a0c:	a8aaaaba 	stmiage	sl!, {r1, r3, r4, r5, r7, r9, fp, sp, pc}
d0024a10:	aa8a8888 	bge	ce2c6c38 <_start-0x1d593d8>
d0024a14:	aaaaaaaa 	bge	ceacf4c4 <_start-0x1550b4c>
d0024a18:	aaaaaaaa 	bge	ceacf4c8 <_start-0x1550b48>
d0024a1c:	8888aaaa 	stmhi	r8, {r1, r3, r5, r7, r9, fp, sp, pc}
d0024a20:	00000080 	andeq	r0, r0, r0, lsl #1
d0024a24:	7f550100 	svcvc	0x00550100
d0024a28:	ffffffff 	undefined instruction 0xffffffff
d0024a2c:	51ffffff 	ldrshpl	pc, [pc, #255]	; d0024b33 <gImage_pic+0x1d5b>
d0024a30:	00000010 	andeq	r0, r0, r0, lsl r0
d0024a34:	00000000 	andeq	r0, r0, r0
d0024a38:	55110000 	ldrpl	r0, [r1]
d0024a3c:	1055757f 	subsne	r7, r5, pc, ror r5
d0024a40:	00000000 	andeq	r0, r0, r0
d0024a44:	02000000 	andeq	r0, r0, #0
d0024a48:	aaaaaaaa 	bge	ceacf4f8 <_start-0x1550b18>
d0024a4c:	eaeaeaaa 	b	cfadf4fc <_start-0x540b14>
d0024a50:	aaaaaaaa 	bge	ceacf500 <_start-0x1550b10>
d0024a54:	aa220020 	bge	d08a4adc <bss_end+0x87e0b4>
d0024a58:	aaaaaaaa 	bge	ceacf508 <_start-0x1550b08>
d0024a5c:	aaaaaaaa 	bge	ceacf50c <_start-0x1550b04>
d0024a60:	00a0aaaa 	adceq	sl, r0, sl, lsr #21
d0024a64:	00000000 	andeq	r0, r0, r0
d0024a68:	dd5d0000 	ldclle	0, cr0, [sp]
d0024a6c:	ffffffff 	undefined instruction 0xffffffff
d0024a70:	c0fdffff 	ldrshtgt	pc, [sp], #255	; 0xff
d0024a74:	00000040 	andeq	r0, r0, r0, asr #32
d0024a78:	00000000 	andeq	r0, r0, r0
d0024a7c:	55000000 	strpl	r0, [r0]
d0024a80:	00d4dddd 	ldrsbeq	sp, [r4], #221	; 0xdd
d0024a84:	00000000 	andeq	r0, r0, r0
d0024a88:	08000000 	stmdaeq	r0, {}
d0024a8c:	abababaa 	blge	ceb0f93c <_start-0x15106d4>
d0024a90:	abbbfbbb 	blge	cef23984 <_start-0x10fc68c>
d0024a94:	aaaaaaba 	bge	ceacf584 <_start-0x1550a8c>
d0024a98:	88888888 	stmhi	r8, {r3, r7, fp, pc}
d0024a9c:	888888a8 	stmhi	r8, {r3, r5, r7, fp, pc}
d0024aa0:	aaaaaaaa 	bge	ceacf550 <_start-0x1550ac0>
d0024aa4:	8080a8aa 	addhi	sl, r0, sl, lsr #17
d0024aa8:	00000080 	andeq	r0, r0, r0, lsl #1
d0024aac:	ff170000 	undefined instruction 0xff170000
d0024ab0:	ffffffff 	undefined instruction 0xffffffff
d0024ab4:	51ffffff 	ldrshpl	pc, [pc, #255]	; d0024bbb <gImage_pic+0x1de3>
d0024ab8:	00001151 	andeq	r1, r0, r1, asr r1
d0024abc:	00000000 	andeq	r0, r0, r0
d0024ac0:	55010000 	strpl	r0, [r1]
d0024ac4:	0051f757 	subseq	pc, r1, r7, asr r7
d0024ac8:	00000000 	andeq	r0, r0, r0
d0024acc:	02000000 	andeq	r0, r0, #0
d0024ad0:	aaaaaaaa 	bge	ceacf580 <_start-0x1550a90>
d0024ad4:	aaaaeeae 	bge	ceae0594 <_start-0x153fa7c>
d0024ad8:	aaaaaaea 	bge	ceacf688 <_start-0x1550988>
d0024adc:	a20200a2 	andge	r0, r2, #162	; 0xa2
d0024ae0:	a2a2aaaa 	adcge	sl, r2, #696320	; 0xaa000
d0024ae4:	aaaaaaaa 	bge	ceacf594 <_start-0x1550a7c>
d0024ae8:	0000a2aa 	andeq	sl, r0, sl, lsr #5
d0024aec:	00000000 	andeq	r0, r0, r0
d0024af0:	ff1f0000 	undefined instruction 0xff1f0000
d0024af4:	ffffffdf 	undefined instruction 0xffffffdf
d0024af8:	c4ffdfff 	ldrbtgt	sp, [pc], #4095	; d0024b00 <gImage_pic+0x1d28>
d0024afc:	00004540 	andeq	r4, r0, r0, asr #10
d0024b00:	00000000 	andeq	r0, r0, r0
d0024b04:	45000000 	strmi	r0, [r0]
d0024b08:	0040dd5d 	subeq	sp, r0, sp, asr sp
d0024b0c:	00000000 	andeq	r0, r0, r0
d0024b10:	08000000 	stmdaeq	r0, {}
d0024b14:	aaaaaaaa 	bge	ceacf5c4 <_start-0x1550a4c>
d0024b18:	abbabbab 	blge	ceed39cc <_start-0x114c644>
d0024b1c:	aaaaaaba 	bge	ceacf60c <_start-0x1550a04>
d0024b20:	888888a8 	stmhi	r8, {r3, r5, r7, fp, pc}
d0024b24:	88888a8a 	stmhi	r8, {r1, r3, r7, r9, fp, pc}
d0024b28:	aaaaaa8a 	bge	ceacf558 <_start-0x1550ab8>
d0024b2c:	0088aaaa 	addeq	sl, r8, sl, lsr #21
d0024b30:	00000000 	andeq	r0, r0, r0
d0024b34:	ff1f0000 	undefined instruction 0xff1f0000
d0024b38:	ffffffff 	undefined instruction 0xffffffff
d0024b3c:	51ffffff 	ldrshpl	pc, [pc, #255]	; d0024c43 <gImage_pic+0x1e6b>
d0024b40:	00101511 	andseq	r1, r0, r1, lsl r5
d0024b44:	00000000 	andeq	r0, r0, r0
d0024b48:	15000000 	strne	r0, [r0]
d0024b4c:	1550f557 	ldrbne	pc, [r0, #-1367]	; 0x557
d0024b50:	00000010 	andeq	r0, r0, r0, lsl r0
d0024b54:	00000000 	andeq	r0, r0, r0
d0024b58:	aaaaaa2a 	bge	ceacf408 <_start-0x1550c08>
d0024b5c:	aaeaaaaa 	bge	cfacf60c <_start-0x550a04>
d0024b60:	aaaaaaea 	bge	ceacf710 <_start-0x1550900>
d0024b64:	220000aa 	andcs	r0, r0, #170	; 0xaa
d0024b68:	aaaaaa2a 	bge	ceacf418 <_start-0x1550bf8>
d0024b6c:	aaaaaaaa 	bge	ceacf61c <_start-0x15509f4>
d0024b70:	00aaaaaa 	adceq	sl, sl, sl, lsr #21
d0024b74:	00000000 	andeq	r0, r0, r0
d0024b78:	ff1d0000 	undefined instruction 0xff1d0000
d0024b7c:	fffffdfd 	undefined instruction 0xfffffdfd
d0024b80:	40fdffff 	ldrshtmi	pc, [sp], #255	; 0xff
d0024b84:	00c04500 	sbceq	r4, r0, r0, lsl #10
d0024b88:	00000000 	andeq	r0, r0, r0
d0024b8c:	04000000 	streq	r0, [r0]
d0024b90:	5d40dc5d 	stclpl	12, cr13, [r0, #-372]	; 0xfffffe8c
d0024b94:	000000d0 	ldrdeq	r0, [r0], r0
d0024b98:	00000080 	andeq	r0, r0, r0, lsl #1
d0024b9c:	abaaabaa 	blge	ceacfa4c <_start-0x15505c4>
d0024ba0:	bbbbabab 	bllt	cef0fa54 <_start-0x11105bc>
d0024ba4:	aaaaaaaa 	bge	ceacf654 <_start-0x15509bc>
d0024ba8:	888080a8 	stmhi	r0, {r3, r5, r7, pc}
d0024bac:	88888888 	stmhi	r8, {r3, r7, fp, pc}
d0024bb0:	aaaaaa8a 	bge	ceacf5e0 <_start-0x1550a30>
d0024bb4:	80aaaaa8 	adchi	sl, sl, r8, lsr #21
d0024bb8:	00000000 	andeq	r0, r0, r0
d0024bbc:	ff170000 	undefined instruction 0xff170000
d0024bc0:	ffffffff 	undefined instruction 0xffffffff
d0024bc4:	01f5ffff 	ldrsheq	pc, [r5, #255]!	; 0xff
d0024bc8:	00d01701 	sbcseq	r1, r0, r1, lsl #14
d0024bcc:	00000000 	andeq	r0, r0, r0
d0024bd0:	11010000 	tstne	r1, r0
d0024bd4:	1700f557 	smusdne	r0, r7, r5
d0024bd8:	000000f5 	strdeq	r0, [r0], -r5
d0024bdc:	00000000 	andeq	r0, r0, r0
d0024be0:	aaaaaa2a 	bge	ceacf490 <_start-0x1550b80>
d0024be4:	eeaeaaaa 	vfma.f32	s20, s29, s21
d0024be8:	aaaaaaaa 	bge	ceacf698 <_start-0x1550978>
d0024bec:	000000aa 	andeq	r0, r0, sl, lsr #1
d0024bf0:	aaaaa202 	bge	ceacd400 <_start-0x1552c10>
d0024bf4:	aaaaaaaa 	bge	ceacf6a4 <_start-0x155096c>
d0024bf8:	a0aaaaa2 	adcge	sl, sl, r2, lsr #21
d0024bfc:	00000000 	andeq	r0, r0, r0
d0024c00:	ff050000 	undefined instruction 0xff050000
d0024c04:	ffffffff 	undefined instruction 0xffffffff
d0024c08:	00d4ffff 	ldrsheq	pc, [r4], #255	; 0xff
d0024c0c:	00c00500 	sbceq	r0, r0, r0, lsl #10
d0024c10:	00000000 	andeq	r0, r0, r0
d0024c14:	04000000 	streq	r0, [r0]
d0024c18:	0000dc45 	andeq	sp, r0, r5, asr #24
d0024c1c:	0000005d 	andeq	r0, r0, sp, asr r0
d0024c20:	00000000 	andeq	r0, r0, r0
d0024c24:	bbaaaaaa 	bllt	ceacf6d4 <_start-0x155093c>
d0024c28:	bbbbbbbb 	bllt	cef13b1c <_start-0x110c4f4>
d0024c2c:	aaaa8aaa 	bge	ceac76dc <_start-0x1558934>
d0024c30:	080080a8 	stmdaeq	r0, {r3, r5, r7, pc}
d0024c34:	8a888888 	bhi	ce246e5c <_start-0x1dd91b4>
d0024c38:	aaaaaa8a 	bge	ceacf668 <_start-0x15509a8>
d0024c3c:	a8aa8a88 	stmiage	sl!, {r3, r7, r9, fp, pc}
d0024c40:	00000088 	andeq	r0, r0, r8, lsl #1
d0024c44:	ff150000 	undefined instruction 0xff150000
d0024c48:	ffffffff 	undefined instruction 0xffffffff
d0024c4c:	01f0ffff 	ldrsheq	pc, [r0, #255]!	; 0xff
d0024c50:	00501700 	subseq	r1, r0, r0, lsl #14
d0024c54:	00000000 	andeq	r0, r0, r0
d0024c58:	11000000 	tstne	r0, r0
d0024c5c:	00007415 	andeq	r7, r0, r5, lsl r4
d0024c60:	00005015 	andeq	r5, r0, r5, lsl r0
d0024c64:	00000000 	andeq	r0, r0, r0
d0024c68:	aaaaaa2a 	bge	ceacf518 <_start-0x1550af8>
d0024c6c:	eaaaeaea 	b	ceadf81c <_start-0x15407f4>
d0024c70:	aaaaaaaa 	bge	ceacf720 <_start-0x15508f0>
d0024c74:	000000aa 	andeq	r0, r0, sl, lsr #1
d0024c78:	2a222200 	bcs	d08ad480 <bss_end+0x886a58>
d0024c7c:	aaaaaaaa 	bge	ceacf72c <_start-0x15508e4>
d0024c80:	aaaa2200 	bge	ceaad488 <_start-0x1572b88>
d0024c84:	000000a8 	andeq	r0, r0, r8, lsr #1
d0024c88:	fd050000 	stc2	0, cr0, [r5]
d0024c8c:	ffffffdd 	undefined instruction 0xffffffdd
d0024c90:	00c0fdff 	strdeq	pc, [r0], #223	; 0xdf
d0024c94:	00400500 	subeq	r0, r0, r0, lsl #10
	...
d0024ca0:	0000dc45 	andeq	sp, r0, r5, asr #24
d0024ca4:	00404400 	subeq	r4, r0, r0, lsl #8
d0024ca8:	00008000 	andeq	r8, r0, r0
d0024cac:	abaaaa8a 	blge	ceacf6dc <_start-0x1550934>
d0024cb0:	aabbbbbb 	bge	cef13ba4 <_start-0x110c46c>
d0024cb4:	aa88aaa8 	bge	ce24f75c <_start-0x1dd08b4>
d0024cb8:	800080a8 	andhi	r8, r0, r8, lsr #1
d0024cbc:	88888880 	stmhi	r8, {r7, fp, pc}
d0024cc0:	aaaaaa88 	bge	ceacf6e8 <_start-0x1550928>
d0024cc4:	aa8a8888 	bge	ce2c6eec <_start-0x1d59124>
d0024cc8:	0000a8aa 	andeq	sl, r0, sl, lsr #17
d0024ccc:	ff050000 	undefined instruction 0xff050000
d0024cd0:	fffffff7 	undefined instruction 0xfffffff7
d0024cd4:	1141ffff 	strdne	pc, [r1, #-255]	; 0xffffff01
d0024cd8:	00001700 	andeq	r1, r0, r0, lsl #14
d0024cdc:	00000000 	andeq	r0, r0, r0
d0024ce0:	01000000 	tsteq	r0, r0
d0024ce4:	00007415 	andeq	r7, r0, r5, lsl r4
d0024ce8:	51550100 	cmppl	r5, r0, lsl #2
d0024cec:	00000000 	andeq	r0, r0, r0
d0024cf0:	aaaaaa2a 	bge	ceacf5a0 <_start-0x1550a70>
d0024cf4:	aaaaaaae 	bge	ceacf7b4 <_start-0x155085c>
d0024cf8:	aaa2aaaa 	bge	ce8cf7a8 <_start-0x1750868>
d0024cfc:	000000aa 	andeq	r0, r0, sl, lsr #1
d0024d00:	22020200 	andcs	r0, r2, #0
d0024d04:	aaaaaaaa 	bge	ceacf7b4 <_start-0x155085c>
d0024d08:	aa020000 	bge	d00a4d10 <bss_end+0x7e2e8>
d0024d0c:	0000aaaa 	andeq	sl, r0, sl, lsr #21
d0024d10:	ff050000 	undefined instruction 0xff050000
d0024d14:	ffffffdd 	undefined instruction 0xffffffdd
d0024d18:	0400fdff 	streq	pc, [r0], #-3583	; 0xdff
d0024d1c:	00001f00 	andeq	r1, r0, r0, lsl #30
	...
d0024d28:	00005c05 	andeq	r5, r0, r5, lsl #24
d0024d2c:	dd5d0000 	ldclle	0, cr0, [sp]
d0024d30:	00000000 	andeq	r0, r0, r0
d0024d34:	aaaaba0a 	bge	cead3564 <_start-0x154caac>
d0024d38:	aababbbb 	bge	ceed3c2c <_start-0x114c3e4>
d0024d3c:	aa88aaa8 	bge	ce24f7e4 <_start-0x1dd082c>
d0024d40:	00008088 	andeq	r8, r0, r8, lsl #1
d0024d44:	88880808 	stmhi	r8, {r3, fp}
d0024d48:	aaaa8a8a 	bge	ceac7778 <_start-0x1558898>
d0024d4c:	88888888 	stmhi	r8, {r3, r7, fp, pc}
d0024d50:	0000aaaa 	andeq	sl, r0, sl, lsr #21
d0024d54:	7f010000 	svcvc	0x00010000
d0024d58:	ffffffff 	undefined instruction 0xffffffff
d0024d5c:	150075ff 	strne	r7, [r0, #-1535]	; 0x5ff
d0024d60:	00001f00 	andeq	r1, r0, r0, lsl #30
	...
d0024d6c:	00005411 	andeq	r5, r0, r1, lsl r4
d0024d70:	55110000 	ldrpl	r0, [r1]
d0024d74:	00000000 	andeq	r0, r0, r0
d0024d78:	aaaaaa0a 	bge	ceacf5a8 <_start-0x1550a68>
d0024d7c:	aaaaaaaa 	bge	ceacf82c <_start-0x15507e4>
d0024d80:	2aa0aaaa 	bcs	ce84f830 <_start-0x17d07e0>
d0024d84:	000000a8 	andeq	r0, r0, r8, lsr #1
d0024d88:	22020000 	andcs	r0, r2, #0
d0024d8c:	aaaaaa2a 	bge	ceacf63c <_start-0x15509d4>
d0024d90:	000000a0 	andeq	r0, r0, r0, lsr #1
d0024d94:	0000aa2a 	andeq	sl, r0, sl, lsr #20
d0024d98:	ff000000 	undefined instruction 0xff000000
d0024d9c:	fffffffd 	undefined instruction 0xfffffffd
d0024da0:	0500d4fd 	streq	sp, [r0, #-1277]	; 0x4fd
d0024da4:	00001c00 	andeq	r1, r0, r0, lsl #24
	...
d0024db0:	00005c00 	andeq	r5, r0, r0, lsl #24
d0024db4:	00000000 	andeq	r0, r0, r0
d0024db8:	00000080 	andeq	r0, r0, r0, lsl #1
d0024dbc:	aaaaab8a 	bge	ceacfbec <_start-0x1550424>
d0024dc0:	aaaaabab 	bge	ceacfc74 <_start-0x155039c>
d0024dc4:	aa88aa88 	bge	ce24f7ec <_start-0x1dd0824>
d0024dc8:	00808088 	addeq	r8, r0, r8, lsl #1
d0024dcc:	88888080 	stmhi	r8, {r7, pc}
d0024dd0:	aaaa8888 	bge	ceac6ff8 <_start-0x1559018>
d0024dd4:	80888888 	addhi	r8, r8, r8, lsl #17
d0024dd8:	00008888 	andeq	r8, r0, r8, lsl #17
d0024ddc:	7f010000 	svcvc	0x00010000
d0024de0:	ffffffff 	undefined instruction 0xffffffff
d0024de4:	170051ff 	undefined instruction 0x170051ff
d0024de8:	00001c00 	andeq	r1, r0, r0, lsl #24
	...
d0024df4:	00005501 	andeq	r5, r0, r1, lsl #10
	...
d0024e00:	aaaaaa02 	bge	ceacf610 <_start-0x1550a00>
d0024e04:	aaaaaaaa 	bge	ceacf8b4 <_start-0x155075c>
d0024e08:	2aa2aaa0 	bcs	ce8cf890 <_start-0x1750780>
d0024e0c:	00000000 	andeq	r0, r0, r0
d0024e10:	22020000 	andcs	r0, r2, #0
d0024e14:	aaaaa222 	bge	ceacd6a4 <_start-0x155296c>
d0024e18:	000022a2 	andeq	r2, r0, r2, lsr #5
d0024e1c:	00000200 	andeq	r0, r0, r0, lsl #4
d0024e20:	5f000000 	svcpl	0x00000000
d0024e24:	ffffffff 	undefined instruction 0xffffffff
d0024e28:	1d0044dd 	cfstrsne	mvf4, [r0, #-884]	; 0xfffffc8c
d0024e2c:	00000440 	andeq	r0, r0, r0, asr #8
	...
d0024e38:	00005c00 	andeq	r5, r0, r0, lsl #24
	...
d0024e44:	aaaaab08 	bge	ceacfa6c <_start-0x15505a4>
d0024e48:	aaaaaaaa 	bge	ceacf8f8 <_start-0x1550718>
d0024e4c:	8aa8aa88 	bhi	cea4f874 <_start-0x15d079c>
d0024e50:	88888888 	stmhi	r8, {r3, r7, fp, pc}
d0024e54:	88880888 	stmhi	r8, {r3, r7, fp}
d0024e58:	aa8a8888 	bge	ce2c7080 <_start-0x1d58f90>
d0024e5c:	88888888 	stmhi	r8, {r3, r7, fp, pc}
d0024e60:	00008888 	andeq	r8, r0, r8, lsl #17
d0024e64:	1f000000 	svcne	0x00000000
d0024e68:	ffffffff 	undefined instruction 0xffffffff
d0024e6c:	170050ff 	undefined instruction 0x170050ff
d0024e70:	00000050 	andeq	r0, r0, r0, asr r0
	...
d0024e7c:	00001401 	andeq	r1, r0, r1, lsl #8
	...
d0024e88:	aaaa2a00 	bge	ceaaf690 <_start-0x1570980>
d0024e8c:	aaaaaaaa 	bge	ceacf93c <_start-0x15506d4>
d0024e90:	aaaa2a80 	bge	ceaaf898 <_start-0x1570778>
d0024e94:	aa222220 	bge	d08ad71c <bss_end+0x886cf4>
d0024e98:	aa2200a0 	bge	d08a5120 <bss_end+0x87e6f8>
d0024e9c:	aa2aa2aa 	bge	d0acd94c <bss_end+0xaa6f24>
d0024ea0:	00202a00 	eoreq	r2, r0, r0, lsl #20
d0024ea4:	00000000 	andeq	r0, r0, r0
d0024ea8:	0d000000 	stceq	0, cr0, [r0]
d0024eac:	ffddffff 	undefined instruction 0xffddffff
d0024eb0:	0500d0fd 	streq	sp, [r0, #-253]	; 0xfd
d0024eb4:	000000c0 	andeq	r0, r0, r0, asr #1
d0024eb8:	00005500 	andeq	r5, r0, r0, lsl #10
d0024ebc:	0000c001 	andeq	ip, r0, r1
d0024ec0:	00005400 	andeq	r5, r0, r0, lsl #8
d0024ec4:	00000000 	andeq	r0, r0, r0
d0024ec8:	80008000 	andhi	r8, r0, r0
d0024ecc:	aaaaaa00 	bge	ceacf6d4 <_start-0x155093c>
d0024ed0:	aaaaaaaa 	bge	ceacf980 <_start-0x1550690>
d0024ed4:	a8a88a80 	stmiage	r8!, {r7, r9, fp, pc}
d0024ed8:	aaaa8888 	bge	ceac7100 <_start-0x1558f10>
d0024edc:	aa8a88a8 	bge	ce2c7184 <_start-0x1d58e8c>
d0024ee0:	a88888a8 	stmge	r8, {r3, r5, r7, fp, pc}
d0024ee4:	88888880 	stmhi	r8, {r7, fp, pc}
d0024ee8:	00008880 	andeq	r8, r0, r0, lsl #17
d0024eec:	17000000 	strne	r0, [r0, -r0]
d0024ef0:	fff7fff7 	undefined instruction 0xfff7fff7
d0024ef4:	0100f0ff 	strdeq	pc, [r0, -pc]
d0024ef8:	00000040 	andeq	r0, r0, r0, asr #32
d0024efc:	00c07715 	sbceq	r7, r0, r5, lsl r7
d0024f00:	00005101 	andeq	r5, r0, r1, lsl #2
d0024f04:	00001001 	andeq	r1, r0, r1
	...
d0024f10:	aaaa2a00 	bge	ceaaf718 <_start-0x15708f8>
d0024f14:	aaaaaaaa 	bge	ceacf9c4 <_start-0x155064c>
d0024f18:	aaaa0280 	bge	ceaa5920 <_start-0x157a6f0>
d0024f1c:	aaaa22a2 	bge	ceaad9ac <_start-0x1572664>
d0024f20:	aa2a02a2 	bge	d0aa59b0 <bss_end+0xa7ef88>
d0024f24:	aa22a2aa 	bge	d08cd9d4 <bss_end+0x8a6fac>
d0024f28:	00a22200 	adceq	r2, r2, r0, lsl #4
d0024f2c:	00000000 	andeq	r0, r0, r0
d0024f30:	05000000 	streq	r0, [r0]
d0024f34:	dfdddddd 	svcle	0x00dddddd
d0024f38:	0000c0ff 	strdeq	ip, [r0], -pc
d0024f3c:	00000000 	andeq	r0, r0, r0
d0024f40:	00c0dd05 	sbceq	sp, r0, r5, lsl #26
d0024f44:	0000d405 	andeq	sp, r0, r5, lsl #8
d0024f48:	00004000 	andeq	r4, r0, r0
	...
d0024f54:	aaaa0a00 	bge	ceaa775c <_start-0x15788b4>
d0024f58:	a8aaaaaa 	stmiage	sl!, {r1, r3, r5, r7, r9, fp, sp, pc}
d0024f5c:	88880880 	stmhi	r8, {r7, fp}
d0024f60:	aaaa8a88 	bge	ceac7988 <_start-0x1558688>
d0024f64:	aa8a88a8 	bge	ce2c720c <_start-0x1d58e04>
d0024f68:	a88a88aa 	stmge	sl, {r1, r3, r5, r7, fp, pc}
d0024f6c:	88888800 	stmhi	r8, {fp, pc}
d0024f70:	00008888 	andeq	r8, r0, r8, lsl #17
d0024f74:	01000000 	tsteq	r0, r0
d0024f78:	7f757555 	svcvc	0x00757555
d0024f7c:	000050ff 	strdeq	r5, [r0], -pc
d0024f80:	00000000 	andeq	r0, r0, r0
d0024f84:	00505511 	subseq	r5, r0, r1, lsl r5
d0024f88:	00101505 	andseq	r1, r0, r5, lsl #10
d0024f8c:	00000001 	andeq	r0, r0, r1
	...
d0024f98:	aaaa0200 	bge	ceaa57a0 <_start-0x157a870>
d0024f9c:	a8aaaaaa 	stmiage	sl!, {r1, r3, r5, r7, r9, fp, sp, pc}
d0024fa0:	00000000 	andeq	r0, r0, r0
d0024fa4:	aaaa2a20 	bge	ceaaf82c <_start-0x15707e4>
d0024fa8:	aa2a00aa 	bge	d0aa5258 <bss_end+0xa7e830>
d0024fac:	a02a20aa 	eorge	r2, sl, sl, lsr #1
d0024fb0:	a02a0000 	eorge	r0, sl, r0
	...
d0024fbc:	dddddd05 	ldclle	13, cr13, [sp, #20]
d0024fc0:	0000d0fd 	strdeq	sp, [r0], -sp
d0024fc4:	00000000 	andeq	r0, r0, r0
d0024fc8:	00404440 	subeq	r4, r0, r0, asr #8
d0024fcc:	00000404 	andeq	r0, r0, r4, lsl #8
	...
d0024fdc:	aaaa0000 	bge	ceaa4fe4 <_start-0x157b02c>
d0024fe0:	a8abaaaa 	stmiage	fp!, {r1, r3, r5, r7, r9, fp, sp, pc}
d0024fe4:	80888080 	addhi	r8, r8, r0, lsl #1
d0024fe8:	aaaa8a88 	bge	ceac7a10 <_start-0x1558600>
d0024fec:	aaaa80a8 	bge	ceac5294 <_start-0x155ad7c>
d0024ff0:	808a88a8 	addhi	r8, sl, r8, lsr #17
d0024ff4:	88880000 	stmhi	r8, {}
d0024ff8:	00008088 	andeq	r8, r0, r8, lsl #1
d0024ffc:	00000000 	andeq	r0, r0, r0
d0025000:	77575501 	ldrbvc	r5, [r7, -r1, lsl #10]
d0025004:	0100f0ff 	strdeq	pc, [r0, -pc]
d0025008:	01000000 	tsteq	r0, r0
d002500c:	00501100 	subseq	r1, r0, r0, lsl #2
d0025010:	00001515 	andeq	r1, r0, r5, lsl r5
d0025014:	00000001 	andeq	r0, r0, r1
	...
d0025020:	aa0a0000 	bge	d02a5028 <bss_end+0x27e600>
d0025024:	aaaaaaaa 	bge	ceacfad4 <_start-0x155053c>
d0025028:	a8a22a00 	stmiage	r2!, {r9, fp, sp}
d002502c:	aaaaaa02 	bge	ceacf83c <_start-0x15507d4>
d0025030:	2aaa00aa 	bcs	ceaa52e0 <_start-0x157ad30>
d0025034:	80aa02a2 	adchi	r0, sl, r2, lsr #5
d0025038:	a2020000 	andge	r0, r2, #0
d002503c:	000000a2 	andeq	r0, r0, r2, lsr #1
d0025040:	00000000 	andeq	r0, r0, r0
d0025044:	df5d5d00 	svcle	0x005d5d00
d0025048:	0c00f0ff 	stceq	0, cr15, [r0], {255}	; 0xff
d002504c:	0000d000 	andeq	sp, r0, r0
d0025050:	00400500 	subeq	r0, r0, r0, lsl #10
d0025054:	00000404 	andeq	r0, r0, r4, lsl #8
	...
d0025064:	aa880800 	bge	ce22706c <_start-0x1df8fa4>
d0025068:	a8aaaaaa 	stmiage	sl!, {r1, r3, r5, r7, r9, fp, sp, pc}
d002506c:	a88aaa8a 	stmge	sl, {r1, r3, r7, r9, fp, sp, pc}
d0025070:	aaaa8a08 	bge	ceac7898 <_start-0x1558778>
d0025074:	8aaa88a8 	bhi	ceac731c <_start-0x1558cf4>
d0025078:	00a88888 	adceq	r8, r8, r8, lsl #17
d002507c:	88080000 	stmdahi	r8, {}
d0025080:	00008888 	andeq	r8, r0, r8, lsl #17
d0025084:	00000000 	andeq	r0, r0, r0
d0025088:	7f551500 	svcvc	0x00551500
d002508c:	5401f0ff 	strpl	pc, [r1], #-255	; 0xff
d0025090:	00005001 	andeq	r5, r0, r1
d0025094:	00401700 	subeq	r1, r0, r0, lsl #14
d0025098:	00000514 	andeq	r0, r0, r4, lsl r5
	...
d00250a8:	aaaa2200 	bge	ceaad8b0 <_start-0x1572760>
d00250ac:	aaaaaaaa 	bge	ceacfb5c <_start-0x15504b4>
d00250b0:	aaaaaaaa 	bge	ceacfb60 <_start-0x15504b0>
d00250b4:	aaaa2a20 	bge	ceaaf93c <_start-0x15706d4>
d00250b8:	2aaa02aa 	bcs	ceaa5b68 <_start-0x157a4a8>
d00250bc:	00202280 	eoreq	r2, r0, r0, lsl #5
d00250c0:	00000000 	andeq	r0, r0, r0
d00250c4:	0000aa22 	andeq	sl, r0, r2, lsr #20
d00250c8:	00000000 	andeq	r0, r0, r0
d00250cc:	dddd4544 	cfldr64le	mvdx4, [sp, #272]	; 0x110
d00250d0:	dc45c0dd 	mcrrle	0, 13, ip, r5, cr13
d00250d4:	00004040 	andeq	r4, r0, r0, asr #32
d00250d8:	00c05f00 	sbceq	r5, r0, r0, lsl #30
d00250dc:	00000040 	andeq	r0, r0, r0, asr #32
	...
d00250e8:	80000000 	andhi	r0, r0, r0
d00250ec:	aaaaaa00 	bge	ceacf8f4 <_start-0x155071c>
d00250f0:	aaaaaaaa 	bge	ceacfba0 <_start-0x1550470>
d00250f4:	aaaaaaaa 	bge	ceacfba4 <_start-0x155046c>
d00250f8:	aa88a8aa 	bge	ce24f3a8 <_start-0x1dd0c68>
d00250fc:	88a888aa 	stmiahi	r8!, {r1, r3, r5, r7, fp, pc}
d0025100:	00808880 	addeq	r8, r0, r0, lsl #17
d0025104:	80000000 	andhi	r0, r0, r0
d0025108:	00008888 	andeq	r8, r0, r8, lsl #17
d002510c:	15000000 	strne	r0, [r0]
d0025110:	ffffffff 	undefined instruction 0xffffffff
d0025114:	ffffd7ff 	undefined instruction 0xffffd7ff
d0025118:	0011ffff 	ldrsheq	pc, [r1], -pc
d002511c:	01155701 	tsteq	r5, r1, lsl #14
	...
d0025130:	eeaeaa02 	vfma.f32	s20, s28, s4
d0025134:	aaaaaaae 	bge	ceacfbf4 <_start-0x155041c>
d0025138:	aaaaeeae 	bge	ceae0bf8 <_start-0x153f418>
d002513c:	aaa2aaaa 	bge	ce8cfbec <_start-0x1750424>
d0025140:	20a0aaaa 	adccs	sl, r0, sl, lsr #21
d0025144:	00000000 	andeq	r0, r0, r0
d0025148:	02000000 	andeq	r0, r0, #0
d002514c:	00002202 	andeq	r2, r0, r2, lsl #4
d0025150:	5f000000 	svcpl	0x00000000
d0025154:	ffffffff 	undefined instruction 0xffffffff
d0025158:	ffffffff 	undefined instruction 0xffffffff
d002515c:	5455fdff 	ldrbpl	pc, [r5], #-3583	; 0xdff
d0025160:	d41f5c00 	ldrle	r5, [pc], #3072	; d0025168 <gImage_pic+0x2390>
	...
d0025174:	ffbfab0a 	undefined instruction 0xffbfab0a
d0025178:	bfbbfbff 	svclt	0x00bbfbff
d002517c:	baffffff 	blt	d0025180 <gImage_pic+0x23a8>
d0025180:	aaaaaaaa 	bge	ceacfc30 <_start-0x15503e0>
d0025184:	8888aaab 	stmhi	r8, {r0, r1, r3, r5, r7, r9, fp, sp, pc}
d0025188:	00000000 	andeq	r0, r0, r0
d002518c:	8a080000 	bhi	d0225194 <bss_end+0x1fe76c>
d0025190:	00008888 	andeq	r8, r0, r8, lsl #17
d0025194:	5f010000 	svcpl	0x00010000
d0025198:	ffffffff 	undefined instruction 0xffffffff
d002519c:	ffffffff 	undefined instruction 0xffffffff
d00251a0:	1555fdff 	ldrbne	pc, [r5, #-3583]	; 0xdff
d00251a4:	fd171551 	ldc2	5, cr1, [r7, #-324]	; 0xfffffebc
	...
d00251b0:	00001100 	andeq	r1, r0, r0, lsl #2
d00251b4:	00000000 	andeq	r0, r0, r0
d00251b8:	feeeaa2a 	cdp2	10, 14, cr10, cr14, cr10, {1}
d00251bc:	eeeeeefe 	mcr	14, 7, lr, cr14, cr14, {7}
d00251c0:	eaeeeefe 	b	cfbe0dc0 <_start-0x43f250>
d00251c4:	aaaaaaaa 	bge	ceacfc74 <_start-0x155039c>
d00251c8:	00a8aaaa 	adceq	sl, r8, sl, lsr #21
d00251cc:	00000000 	andeq	r0, r0, r0
d00251d0:	aa000000 	bge	d00251d8 <gImage_pic+0x2400>
d00251d4:	000000aa 	andeq	r0, r0, sl, lsr #1
d00251d8:	df050000 	svcle	0x00050000
d00251dc:	ffffffff 	undefined instruction 0xffffffff
d00251e0:	ffffffff 	undefined instruction 0xffffffff
d00251e4:	0054fcff 	ldrsheq	pc, [r4], #-207	; 0xffffff31
d00251e8:	ff450000 	undefined instruction 0xff450000
d00251ec:	000000d0 	ldrdeq	r0, [r0], r0
d00251f0:	00000000 	andeq	r0, r0, r0
d00251f4:	00c05d00 	sbceq	r5, r0, r0, lsl #26
d00251f8:	00000000 	andeq	r0, r0, r0
d00251fc:	ffffabaa 	undefined instruction 0xffffabaa
d0025200:	ffffffff 	undefined instruction 0xffffffff
d0025204:	fafbffff 	blx	cff25208 <_start-0xfae08>
d0025208:	88a888aa 	stmiahi	r8!, {r1, r3, r5, r7, fp, pc}
d002520c:	88aabbaa 	stmiahi	sl!, {r1, r3, r5, r7, r8, r9, fp, ip, sp, pc}
d0025210:	00000080 	andeq	r0, r0, r0, lsl #1
d0025214:	aa8a0000 	bge	ce2a521c <_start-0x1d7adf4>
d0025218:	000088aa 	andeq	r8, r0, sl, lsr #17
d002521c:	ff170000 	undefined instruction 0xff170000
d0025220:	ffffffff 	undefined instruction 0xffffffff
d0025224:	ffffffff 	undefined instruction 0xffffffff
d0025228:	0055fdff 	ldrsheq	pc, [r5], #-223	; 0xffffff21
d002522c:	7f110000 	svcvc	0x00110000
d0025230:	000000ff 	strdeq	r0, [r0], -pc
d0025234:	00000000 	andeq	r0, r0, r0
d0025238:	00f5ff01 	rscseq	pc, r5, r1, lsl #30
d002523c:	00000000 	andeq	r0, r0, r0
d0025240:	efefaeaa 	svc	0x00efaeaa
d0025244:	efefefef 	svc	0x00efefef
d0025248:	eaeeeeef 	b	cfbe0e0c <_start-0x43f204>
d002524c:	aaaaaaaa 	bge	ceacfcfc <_start-0x1550314>
d0025250:	aaaaaeaa 	bge	cead0d00 <_start-0x154f310>
d0025254:	00000000 	andeq	r0, r0, r0
d0025258:	aa2a0000 	bge	d0aa5260 <bss_end+0xa7e838>
d002525c:	0000aaaa 	andeq	sl, r0, sl, lsr #21
d0025260:	ff5f0000 	undefined instruction 0xff5f0000
d0025264:	ffffffff 	undefined instruction 0xffffffff
d0025268:	ffffffff 	undefined instruction 0xffffffff
d002526c:	0054fcff 	ldrsheq	pc, [r4], #-207	; 0xffffff31
d0025270:	5f000004 	svcpl	0x00000004
d0025274:	0000d4ff 	strdeq	sp, [r0], -pc
d0025278:	00000000 	andeq	r0, r0, r0
d002527c:	40ddff5f 	sbcsmi	pc, sp, pc, asr pc
d0025280:	08000000 	stmdaeq	r0, {}
d0025284:	ffffbfab 	undefined instruction 0xffffbfab
d0025288:	ffffffff 	undefined instruction 0xffffffff
d002528c:	baffffff 	blt	d0025290 <gImage_pic+0x24b8>
d0025290:	aaaaaaaa 	bge	ceacfd40 <_start-0x15502d0>
d0025294:	aabaab8a 	bge	ceed00c4 <_start-0x114ff4c>
d0025298:	08808888 	stmeq	r0, {r3, r7, fp, pc}
d002529c:	aaaa8a88 	bge	ceac7cc4 <_start-0x155834c>
d00252a0:	0000aaaa 	andeq	sl, r0, sl, lsr #21
d00252a4:	ff7f0000 	undefined instruction 0xff7f0000
d00252a8:	ffffffff 	undefined instruction 0xffffffff
d00252ac:	ffffffff 	undefined instruction 0xffffffff
d00252b0:	5015fdff 	ldrshpl	pc, [r5], -pc
d00252b4:	17111055 	undefined instruction 0x17111055
d00252b8:	0000ffff 	strdeq	pc, [r0], -pc
d00252bc:	15000000 	strne	r0, [r0]
d00252c0:	10f5ff7f 	rscsne	pc, r5, pc, ror pc
d00252c4:	02000000 	andeq	r0, r0, #0
d00252c8:	feeeeeae 	cdp2	14, 14, cr14, cr14, cr14, {5}
d00252cc:	feeefefe 	mcr2	14, 7, pc, cr14, cr14, {7}
d00252d0:	eaeeeeee 	b	cfbe0e90 <_start-0x43f180>
d00252d4:	aaaaaaaa 	bge	ceacfd84 <_start-0x155028c>
d00252d8:	aaaaaaaa 	bge	ceacfd88 <_start-0x1550288>
d00252dc:	0020a2aa 	eoreq	sl, r0, sl, lsr #5
d00252e0:	aaaaaa2a 	bge	ceacfb90 <_start-0x1550480>
d00252e4:	0000aaaa 	andeq	sl, r0, sl, lsr #21
d00252e8:	ff7f0000 	undefined instruction 0xff7f0000
d00252ec:	ffffffff 	undefined instruction 0xffffffff
d00252f0:	ffffffff 	undefined instruction 0xffffffff
d00252f4:	d405fcff 	strle	pc, [r5], #-3327	; 0xcff
d00252f8:	454444dd 	strbmi	r4, [r4, #-1245]	; 0x4dd
d00252fc:	40d4fffd 	ldrshmi	pc, [r4], #253	; 0xfd
d0025300:	dd050000 	stcle	0, cr0, [r5]
d0025304:	40d4fdff 	ldrshmi	pc, [r4], #223	; 0xdf
d0025308:	00000000 	andeq	r0, r0, r0
d002530c:	ffffffbb 	undefined instruction 0xffffffbb
d0025310:	ffffffff 	undefined instruction 0xffffffff
d0025314:	fafbfbff 	blx	cff24318 <_start-0xfbcf8>
d0025318:	aaaaaaaa 	bge	ceacfdc8 <_start-0x1550248>
d002531c:	abaaaaaa 	blge	ceacfdcc <_start-0x1550244>
d0025320:	aaaaaaaa 	bge	ceacfdd0 <_start-0x1550240>
d0025324:	aaaaabaa 	bge	cead01d4 <_start-0x154fe3c>
d0025328:	0000a8aa 	andeq	sl, r0, sl, lsr #17
d002532c:	ff7f0100 	undefined instruction 0xff7f0100
d0025330:	ffffffff 	undefined instruction 0xffffffff
d0025334:	ffffffff 	undefined instruction 0xffffffff
d0025338:	f717ffff 	undefined instruction 0xf717ffff
d002533c:	175557f7 	smmlsrne	r5, r7, r7, r5
d0025340:	f7ffffff 	undefined instruction 0xf7ffffff
d0025344:	ffff5777 	undefined instruction 0xffff5777
d0025348:	0055ffff 	ldrsheq	pc, [r5], #-255	; 0xffffff01
d002534c:	02000000 	andeq	r0, r0, #0
d0025350:	efefefae 	svc	0x00efefae
d0025354:	eeefefef 	cdp	15, 14, cr14, cr15, cr15, {7}
d0025358:	eeeeeeee 	cdp	14, 14, cr14, cr14, cr14, {7}
d002535c:	aaaaaaaa 	bge	ceacfe0c <_start-0x1550204>
d0025360:	aaaaaaaa 	bge	ceacfe10 <_start-0x1550200>
d0025364:	aaaaaaaa 	bge	ceacfe14 <_start-0x15501fc>
d0025368:	aaaaaaaa 	bge	ceacfe18 <_start-0x15501f8>
d002536c:	0000aaaa 	andeq	sl, r0, sl, lsr #21
d0025370:	ffff0000 	undefined instruction 0xffff0000
d0025374:	ffffffff 	undefined instruction 0xffffffff
d0025378:	ffffffff 	undefined instruction 0xffffffff
d002537c:	df05ffff 	svcle	0x0005ffff
d0025380:	45c5ffdf 	strbmi	pc, [r5, #4063]	; 0xfdf
d0025384:	ffdfdfdf 	undefined instruction 0xffdfdfdf
d0025388:	ffffffff 	undefined instruction 0xffffffff
d002538c:	00d4fdff 	ldrsheq	pc, [r4], #223	; 0xdf
d0025390:	0a000000 	beq	d0025398 <gImage_pic+0x25c0>
d0025394:	ffffffbb 	undefined instruction 0xffffffbb
d0025398:	ffffffff 	undefined instruction 0xffffffff
d002539c:	babbffff 	blt	cef253a0 <_start-0x10fac70>
d00253a0:	aaaaaa8a 	bge	ceacfdd0 <_start-0x1550240>
d00253a4:	aaaaaaaa 	bge	ceacfe54 <_start-0x15501bc>
d00253a8:	aaaaaaaa 	bge	ceacfe58 <_start-0x15501b8>
d00253ac:	aababbbb 	bge	ceed42a0 <_start-0x114bd70>
d00253b0:	0000a8aa 	andeq	sl, r0, sl, lsr #17
d00253b4:	ff7f0100 	undefined instruction 0xff7f0100
d00253b8:	ffffffff 	undefined instruction 0xffffffff
d00253bc:	ffffffff 	undefined instruction 0xffffffff
d00253c0:	5501ffff 	strpl	pc, [r1, #-4095]	; 0xfff
d00253c4:	5555ff7f 	ldrbpl	pc, [r5, #-3967]	; 0xf7f
d00253c8:	ffffffff 	undefined instruction 0xffffffff
d00253cc:	ffffffff 	undefined instruction 0xffffffff
d00253d0:	0051fdff 	ldrsheq	pc, [r1], #-223	; 0xffffff21
d00253d4:	02000000 	andeq	r0, r0, #0
d00253d8:	fefeeeaa 	cdp2	14, 15, cr14, cr14, cr10, {5}
d00253dc:	eefefefe 	mrc	14, 7, pc, cr14, cr14, {7}
d00253e0:	eaeaeeee 	b	cfae0fa0 <_start-0x53f070>
d00253e4:	aaaaaaaa 	bge	ceacfe94 <_start-0x155017c>
d00253e8:	aaaaaaaa 	bge	ceacfe98 <_start-0x1550178>
d00253ec:	aaaaaaaa 	bge	ceacfe9c <_start-0x1550174>
d00253f0:	aaaaaaaa 	bge	ceacfea0 <_start-0x1550170>
d00253f4:	0000aaaa 	andeq	sl, r0, sl, lsr #21
d00253f8:	ff5f0000 	undefined instruction 0xff5f0000
d00253fc:	ffffffff 	undefined instruction 0xffffffff
d0025400:	ffffffff 	undefined instruction 0xffffffff
d0025404:	05c0ffff 	strbeq	pc, [r0, #4095]	; 0xfff
d0025408:	45c0ffdf 	strbmi	pc, [r0, #4063]	; 0xfdf
d002540c:	fdfdfdfd 	ldc2l	13, cr15, [sp, #1012]!	; 0x3f4
d0025410:	ffffffff 	undefined instruction 0xffffffff
d0025414:	00d4ddff 	ldrsheq	sp, [r4], #223	; 0xdf
d0025418:	00000080 	andeq	r0, r0, r0, lsl #1
d002541c:	ffffffab 	undefined instruction 0xffffffab
d0025420:	fbffffff 	blx	d0025426 <gImage_pic+0x264e>
d0025424:	fabbbbfb 	blx	cef14418 <_start-0x110bbf8>
d0025428:	aaaaaaa8 	bge	ceacfed0 <_start-0x1550140>
d002542c:	aaaaaaaa 	bge	ceacfedc <_start-0x1550134>
d0025430:	abaaaaaa 	blge	ceacfee0 <_start-0x1550130>
d0025434:	aaaaabab 	bge	cead02e8 <_start-0x154fd28>
d0025438:	0000a8aa 	andeq	sl, r0, sl, lsr #17
d002543c:	ff7f0000 	undefined instruction 0xff7f0000
d0025440:	ffffffff 	undefined instruction 0xffffffff
d0025444:	ffffffff 	undefined instruction 0xffffffff
d0025448:	1750ffff 	smmlsrne	r0, pc, pc, pc
d002544c:	5141ff77 	cmpppl	r1, r7, ror pc
d0025450:	ffffffff 	undefined instruction 0xffffffff
d0025454:	ffffffff 	undefined instruction 0xffffffff
d0025458:	0051f7ff 	ldrsheq	pc, [r1], #-127	; 0xffffff81
d002545c:	02000000 	andeq	r0, r0, #0
d0025460:	efefefae 	svc	0x00efefae
d0025464:	eeeeefef 	cdp	15, 14, cr14, cr14, cr15, {7}
d0025468:	eaaeeeee 	b	cebe1028 <_start-0x143efe8>
d002546c:	aaaaaaaa 	bge	ceacff1c <_start-0x15500f4>
d0025470:	aaaaaaaa 	bge	ceacff20 <_start-0x15500f0>
d0025474:	aaaaaaaa 	bge	ceacff24 <_start-0x15500ec>
d0025478:	aaaaaaaa 	bge	ceacff28 <_start-0x15500e8>
d002547c:	0000aaaa 	andeq	sl, r0, sl, lsr #21
d0025480:	ff5f0000 	undefined instruction 0xff5f0000
d0025484:	ffffffff 	undefined instruction 0xffffffff
d0025488:	ffffffff 	undefined instruction 0xffffffff
d002548c:	5dd4ffff 	ldclpl	15, cr15, [r4, #1020]	; 0x3fc
d0025490:	45c45f44 	strbmi	r5, [r4, #3908]	; 0xf44
d0025494:	ffffdfdf 	undefined instruction 0xffffdfdf
d0025498:	ffffffff 	undefined instruction 0xffffffff
d002549c:	0044ddff 	strdeq	sp, [r4], #-223	; 0xffffff21
d00254a0:	00000000 	andeq	r0, r0, r0
d00254a4:	ffffffbf 	undefined instruction 0xffffffbf
d00254a8:	ffffffff 	undefined instruction 0xffffffff
d00254ac:	fabbbbfb 	blx	cef144a0 <_start-0x110bb70>
d00254b0:	aaaaaaaa 	bge	ceacff60 <_start-0x15500b0>
d00254b4:	aaaaaaaa 	bge	ceacff64 <_start-0x15500ac>
d00254b8:	bbaaaaaa 	bllt	ceacff68 <_start-0x15500a8>
d00254bc:	aaaababb 	bge	cead3fb0 <_start-0x154c060>
d00254c0:	0000a8aa 	andeq	sl, r0, sl, lsr #17
d00254c4:	ff7f0000 	undefined instruction 0xff7f0000
d00254c8:	ffffffff 	undefined instruction 0xffffffff
d00254cc:	ffffffff 	undefined instruction 0xffffffff
d00254d0:	7df5ffff 	ldclvc	15, cr15, [r5, #1020]!	; 0x3fc
d00254d4:	11511f50 	cmpne	r1, r0, asr pc
d00254d8:	ffffff7f 	undefined instruction 0xffffff7f
d00254dc:	ffffffff 	undefined instruction 0xffffffff
d00254e0:	0051f5ff 	ldrsheq	pc, [r1], #-95	; 0xffffffa1
d00254e4:	00000000 	andeq	r0, r0, r0
d00254e8:	fefeeeae 	cdp2	14, 15, cr14, cr14, cr14, {5}
d00254ec:	eeeefeee 	cdp	14, 14, cr15, cr14, cr14, {7}
d00254f0:	eaaeeeee 	b	cebe10b0 <_start-0x143ef60>
d00254f4:	aaaaaaaa 	bge	ceacffa4 <_start-0x155006c>
d00254f8:	aaaaaaaa 	bge	ceacffa8 <_start-0x1550068>
d00254fc:	aaaaaaaa 	bge	ceacffac <_start-0x1550064>
d0025500:	aaaaaaaa 	bge	ceacffb0 <_start-0x1550060>
d0025504:	0000aaaa 	andeq	sl, r0, sl, lsr #21
d0025508:	ff7f0000 	undefined instruction 0xff7f0000
d002550c:	ffffffff 	undefined instruction 0xffffffff
d0025510:	ffffffff 	undefined instruction 0xffffffff
d0025514:	ddfdffff 	ldclle	15, cr15, [sp, #1020]!	; 0x3fc
d0025518:	00c41dc4 	sbceq	r1, r4, r4, asr #27
d002551c:	fffddddd 	undefined instruction 0xfffddddd
d0025520:	ffffffff 	undefined instruction 0xffffffff
d0025524:	0040dddd 	ldrdeq	sp, [r0], #-221	; 0xffffff23
d0025528:	00000000 	andeq	r0, r0, r0
d002552c:	ffffffbb 	undefined instruction 0xffffffbb
d0025530:	fbffffff 	blx	d0025536 <gImage_pic+0x275e>
d0025534:	fbbbfbfb 	blx	cef2452a <_start-0x10fbae6>
d0025538:	aaaaaaaa 	bge	ceacffe8 <_start-0x1550028>
d002553c:	aaaaaaaa 	bge	ceacffec <_start-0x1550024>
d0025540:	ababaaaa 	blge	ceb0fff0 <_start-0x1510020>
d0025544:	aaaaaaab 	bge	ceacfff8 <_start-0x1550018>
d0025548:	0000a8aa 	andeq	sl, r0, sl, lsr #17
d002554c:	ff7f0000 	undefined instruction 0xff7f0000
d0025550:	ffffffff 	undefined instruction 0xffffffff
d0025554:	ffffffff 	undefined instruction 0xffffffff
d0025558:	ffffffff 	undefined instruction 0xffffffff
d002555c:	115555d5 	ldrsbne	r5, [r5, #-85]	; 0xffffffab
d0025560:	ffffffff 	undefined instruction 0xffffffff
d0025564:	ffffffff 	undefined instruction 0xffffffff
d0025568:	005155f7 	ldrsheq	r5, [r1], #-87	; 0xffffffa9
d002556c:	02000000 	andeq	r0, r0, #0
d0025570:	efefefae 	svc	0x00efefae
d0025574:	eeeeefef 	cdp	15, 14, cr14, cr14, cr15, {7}
d0025578:	aeeeeeee 	cdpge	14, 14, cr14, cr14, cr14, {7}
d002557c:	aaaaaaaa 	bge	cead002c <_start-0x154ffe4>
d0025580:	aaaaaaaa 	bge	cead0030 <_start-0x154ffe0>
d0025584:	aaaaaaaa 	bge	cead0034 <_start-0x154ffdc>
d0025588:	aaaaaaaa 	bge	cead0038 <_start-0x154ffd8>
d002558c:	0000aaaa 	andeq	sl, r0, sl, lsr #21
d0025590:	ff7f0000 	undefined instruction 0xff7f0000
d0025594:	ffffffff 	undefined instruction 0xffffffff
d0025598:	ffffffff 	undefined instruction 0xffffffff
d002559c:	ffffffff 	undefined instruction 0xffffffff
d00255a0:	455dd5dd 	ldrbmi	sp, [sp, #-1501]	; 0x5dd
d00255a4:	dfdddddd 	svcle	0x00dddddd
d00255a8:	ffffffdf 	undefined instruction 0xffffffdf
d00255ac:	0044d4dd 	ldrdeq	sp, [r4], #-77	; 0xffffffb3
d00255b0:	00000000 	andeq	r0, r0, r0
d00255b4:	ffffffbf 	undefined instruction 0xffffffbf
d00255b8:	fbffffff 	blx	d00255be <gImage_pic+0x27e6>
d00255bc:	bbbabbbb 	bllt	ceed44b0 <_start-0x114bb60>
d00255c0:	aaaaaaba 	bge	cead00b0 <_start-0x154ff60>
d00255c4:	aaaaaaaa 	bge	cead0074 <_start-0x154ff9c>
d00255c8:	aaaaaaaa 	bge	cead0078 <_start-0x154ff98>
d00255cc:	aaaaaabb 	bge	cead00c0 <_start-0x154ff50>
d00255d0:	000088aa 	andeq	r8, r0, sl, lsr #17
d00255d4:	ff7f0100 	undefined instruction 0xff7f0100
d00255d8:	ffffffff 	undefined instruction 0xffffffff
d00255dc:	ffffffff 	undefined instruction 0xffffffff
d00255e0:	ffffffff 	undefined instruction 0xffffffff
d00255e4:	577575ff 	undefined instruction 0x577575ff
d00255e8:	7777ffff 	undefined instruction 0x7777ffff
d00255ec:	ffffff7f 	undefined instruction 0xffffff7f
d00255f0:	001055fd 	ldrsheq	r5, [r0], -sp
d00255f4:	02000000 	andeq	r0, r0, #0
d00255f8:	eeeeeeee 	cdp	14, 14, cr14, cr14, cr14, {7}
d00255fc:	eeeeeeee 	cdp	14, 14, cr14, cr14, cr14, {7}
d0025600:	aeeaeaee 	vfmsge.f32	s29, s21, s29
d0025604:	aaaaaaea 	bge	cead01b4 <_start-0x154fe5c>
d0025608:	aaaaaaaa 	bge	cead00b8 <_start-0x154ff58>
d002560c:	aaaaaaaa 	bge	cead00bc <_start-0x154ff54>
d0025610:	aaaaaaaa 	bge	cead00c0 <_start-0x154ff50>
d0025614:	0000aaaa 	andeq	sl, r0, sl, lsr #21
d0025618:	ffff0100 	undefined instruction 0xffff0100
d002561c:	ffffffff 	undefined instruction 0xffffffff
d0025620:	ffffffff 	undefined instruction 0xffffffff
d0025624:	fdfffffd 	ldc2l	15, cr15, [pc, #1012]!	; 0x3f4
d0025628:	dddddddd 	ldclle	13, cr13, [sp, #884]	; 0x374
d002562c:	dddddddd 	ldclle	13, cr13, [sp, #884]	; 0x374
d0025630:	fddddddd 	ldc2l	13, cr13, [sp, #884]	; 0x374
d0025634:	0000c4dd 	ldrdeq	ip, [r0], -sp
d0025638:	02000000 	andeq	r0, r0, #0
d002563c:	fffffffb 	undefined instruction 0xfffffffb
d0025640:	fbfbffff 	blx	cff25646 <_start-0xfa9ca>
d0025644:	bbaabbbb 	bllt	cead4538 <_start-0x154bad8>
d0025648:	aaaaaabb 	bge	cead013c <_start-0x154fed4>
d002564c:	aaaaaaaa 	bge	cead00fc <_start-0x154ff14>
d0025650:	aaaaaaaa 	bge	cead0100 <_start-0x154ff10>
d0025654:	aaaaaaaa 	bge	cead0104 <_start-0x154ff0c>
d0025658:	000088a8 	andeq	r8, r0, r8, lsr #17
d002565c:	ffff0100 	undefined instruction 0xffff0100
d0025660:	ffffffff 	undefined instruction 0xffffffff
d0025664:	ffffffff 	undefined instruction 0xffffffff
d0025668:	ffffffff 	undefined instruction 0xffffffff
d002566c:	fff7f7ff 	undefined instruction 0xfff7f7ff
d0025670:	55f7f7f7 	ldrbpl	pc, [r7, #2039]!	; 0x7f7
d0025674:	ff775755 	undefined instruction 0xff775755
d0025678:	000051ff 	strdeq	r5, [r0], -pc
d002567c:	02000000 	andeq	r0, r0, #0
d0025680:	efeeeeee 	svc	0x00eeeeee
d0025684:	eeeeeeef 	cdp	14, 14, cr14, cr14, cr15, {7}
d0025688:	aeaaeeee 	cdpge	14, 10, cr14, cr10, cr14, {7}
d002568c:	aaaaaaee 	bge	cead024c <_start-0x154fdc4>
d0025690:	aaaaaaaa 	bge	cead0140 <_start-0x154fed0>
d0025694:	aaaaaaaa 	bge	cead0144 <_start-0x154fecc>
d0025698:	aaaaaaaa 	bge	cead0148 <_start-0x154fec8>
d002569c:	0000a2aa 	andeq	sl, r0, sl, lsr #5
d00256a0:	ffff0100 	undefined instruction 0xffff0100
d00256a4:	ffffffff 	undefined instruction 0xffffffff
d00256a8:	ffffffff 	undefined instruction 0xffffffff
d00256ac:	fffffffd 	undefined instruction 0xfffffffd
d00256b0:	ddddddff 	ldclle	13, cr13, [sp, #1020]	; 0x3fc
d00256b4:	d5dddddd 	ldrble	sp, [sp, #3549]	; 0xddd
d00256b8:	dddd5d55 	ldclle	13, cr5, [sp, #340]	; 0x154
d00256bc:	0000d4dd 	ldrdeq	sp, [r0], -sp
d00256c0:	0a000000 	beq	d00256c8 <gImage_pic+0x28f0>
d00256c4:	bfffffbf 	svclt	0x00ffffbf
d00256c8:	bbffffff 	bllt	d00256cc <gImage_pic+0x28f4>
d00256cc:	bbaabbbb 	bllt	cead45c0 <_start-0x154ba50>
d00256d0:	aaaabbbb 	bge	cead45c4 <_start-0x154ba4c>
d00256d4:	aaaaaaaa 	bge	cead0184 <_start-0x154fe8c>
d00256d8:	aaaaaaaa 	bge	cead0188 <_start-0x154fe88>
d00256dc:	aaaaaaaa 	bge	cead018c <_start-0x154fe84>
d00256e0:	000088a8 	andeq	r8, r0, r8, lsr #17
d00256e4:	ffff0100 	undefined instruction 0xffff0100
d00256e8:	ffffffff 	undefined instruction 0xffffffff
d00256ec:	ffffffff 	undefined instruction 0xffffffff
d00256f0:	ffffffff 	undefined instruction 0xffffffff
d00256f4:	7fffffff 	svcvc	0x00ffffff
d00256f8:	55757f77 	ldrbpl	r7, [r5, #-3959]!	; 0xf77
d00256fc:	55555555 	ldrbpl	r5, [r5, #-1365]	; 0x555
d0025700:	0000557f 	andeq	r5, r0, pc, ror r5
d0025704:	0a000000 	beq	d002570c <gImage_pic+0x2934>
d0025708:	eeeeeeee 	cdp	14, 14, cr14, cr14, cr14, {7}
d002570c:	eeeeeeee 	cdp	14, 14, cr14, cr14, cr14, {7}
d0025710:	aaaaeaea 	bge	ceae02c0 <_start-0x153fd50>
d0025714:	aaaaeaea 	bge	ceae02c4 <_start-0x153fd4c>
d0025718:	aaaaaaaa 	bge	cead01c8 <_start-0x154fe48>
d002571c:	aaaaaaaa 	bge	cead01cc <_start-0x154fe44>
d0025720:	aaaaaaaa 	bge	cead01d0 <_start-0x154fe40>
d0025724:	0000a2aa 	andeq	sl, r0, sl, lsr #5
d0025728:	ffff0500 	undefined instruction 0xffff0500
d002572c:	ffffffff 	undefined instruction 0xffffffff
d0025730:	ffffffff 	undefined instruction 0xffffffff
d0025734:	ffffffdd 	undefined instruction 0xffffffdd
d0025738:	ddddfdff 	ldclle	13, cr15, [sp, #1020]	; 0x3fc
d002573c:	d5dddddd 	ldrble	sp, [sp, #3549]	; 0xddd
d0025740:	55545554 	ldrbpl	r5, [r4, #-1364]	; 0x554
d0025744:	0040d4dd 	ldrdeq	sp, [r0], #-77	; 0xffffffb3
d0025748:	0a000000 	beq	d0025750 <gImage_pic+0x2978>
d002574c:	fffbfbbb 	undefined instruction 0xfffbfbbb
d0025750:	bbfbffff 	bllt	cff25754 <_start-0xfa8bc>
d0025754:	bbaabbbb 	bllt	cead4648 <_start-0x154b9c8>
d0025758:	aaaabbbb 	bge	cead464c <_start-0x154b9c4>
d002575c:	aaaaaaaa 	bge	cead020c <_start-0x154fe04>
d0025760:	aaaaaaaa 	bge	cead0210 <_start-0x154fe00>
d0025764:	aaaaaaaa 	bge	cead0214 <_start-0x154fdfc>
d0025768:	0000a8aa 	andeq	sl, r0, sl, lsr #17
d002576c:	ffff0100 	undefined instruction 0xffff0100
d0025770:	ffffffff 	undefined instruction 0xffffffff
d0025774:	ffffffff 	undefined instruction 0xffffffff
d0025778:	fffffff7 	undefined instruction 0xfffffff7
d002577c:	f7f7ffff 	undefined instruction 0xf7f7ffff
d0025780:	75f7f777 	ldrbvc	pc, [r7, #1911]!	; 0x777
d0025784:	55515555 	ldrbpl	r5, [r1, #-1365]	; 0x555
d0025788:	00515555 	subseq	r5, r1, r5, asr r5
d002578c:	02000000 	andeq	r0, r0, #0
d0025790:	eeeeeeee 	cdp	14, 14, cr14, cr14, cr14, {7}
d0025794:	aaeeeeef 	bge	cfbe1358 <_start-0x43ecb8>
d0025798:	aaaaaaae 	bge	cead0258 <_start-0x154fdb8>
d002579c:	aaaaaaaa 	bge	cead024c <_start-0x154fdc4>
d00257a0:	aaaaaaaa 	bge	cead0250 <_start-0x154fdc0>
d00257a4:	aaaaaaaa 	bge	cead0254 <_start-0x154fdbc>
d00257a8:	aaaaaaaa 	bge	cead0258 <_start-0x154fdb8>
d00257ac:	0000aaaa 	andeq	sl, r0, sl, lsr #21
d00257b0:	ffff0100 	undefined instruction 0xffff0100
d00257b4:	ffffffff 	undefined instruction 0xffffffff
d00257b8:	ffffffff 	undefined instruction 0xffffffff
d00257bc:	ffffffdd 	undefined instruction 0xffffffdd
d00257c0:	ddddffff 	ldclle	15, cr15, [sp, #1020]	; 0x3fc
d00257c4:	dddddddd 	ldclle	13, cr13, [sp, #884]	; 0x374
d00257c8:	444445d4 	strbmi	r4, [r4], #-1492	; 0x5d4
d00257cc:	00444444 	subeq	r4, r4, r4, asr #8
d00257d0:	0a000000 	beq	d00257d8 <gImage_pic+0x2a00>
d00257d4:	ffbbbbbf 	undefined instruction 0xffbbbbbf
d00257d8:	bbbbffff 	bllt	cef257dc <_start-0x10fa834>
d00257dc:	baaaaabb 	blt	cead02d0 <_start-0x154fd40>
d00257e0:	aaaaaaaa 	bge	cead0290 <_start-0x154fd80>
d00257e4:	aaaaaaaa 	bge	cead0294 <_start-0x154fd7c>
d00257e8:	aaaaaaaa 	bge	cead0298 <_start-0x154fd78>
d00257ec:	aaaaaaaa 	bge	cead029c <_start-0x154fd74>
d00257f0:	0000aaaa 	andeq	sl, r0, sl, lsr #21
d00257f4:	ffff0100 	undefined instruction 0xffff0100
d00257f8:	ffffffff 	undefined instruction 0xffffffff
d00257fc:	fdffffff 	ldc2l	15, cr15, [pc, #1020]!	; 0x3fc
d0025800:	ffffff55 	undefined instruction 0xffffff55
d0025804:	ffffffff 	undefined instruction 0xffffffff
d0025808:	75777fff 	ldrbvc	r7, [r7, #-4095]!	; 0xfff
d002580c:	10111155 	andsne	r1, r1, r5, asr r1
d0025810:	10111111 	andsne	r1, r1, r1, lsl r1
d0025814:	02000000 	andeq	r0, r0, #0
d0025818:	eeeeeaee 	vfms.f32	s29, s29, s29
d002581c:	aaeaeeee 	bge	cfae13dc <_start-0x53ec34>
d0025820:	aaaaaaaa 	bge	cead02d0 <_start-0x154fd40>
d0025824:	aaaaaaaa 	bge	cead02d4 <_start-0x154fd3c>
d0025828:	aaaaaaaa 	bge	cead02d8 <_start-0x154fd38>
d002582c:	aaaaaaaa 	bge	cead02dc <_start-0x154fd34>
d0025830:	aaaaaaaa 	bge	cead02e0 <_start-0x154fd30>
d0025834:	0000aaaa 	andeq	sl, r0, sl, lsr #21
d0025838:	ffff0100 	undefined instruction 0xffff0100
d002583c:	ffffffff 	undefined instruction 0xffffffff
d0025840:	ddffffff 	ldclle	15, cr15, [pc, #1020]!	; 0x3fc
d0025844:	dddddd55 	ldclle	13, cr13, [sp, #340]	; 0x154
d0025848:	dddddddd 	ldclle	13, cr13, [sp, #884]	; 0x374
d002584c:	dddddddd 	ldclle	13, cr13, [sp, #884]	; 0x374
d0025850:	000040d4 	ldrdeq	r4, [r0], -r4
d0025854:	00000000 	andeq	r0, r0, r0
d0025858:	0a800000 	beq	ce025860 <_start-0x1ffa7b0>
d002585c:	ffbbbbbb 	undefined instruction 0xffbbbbbb
d0025860:	abfbffff 	blge	cff25864 <_start-0xfa7ac>
d0025864:	aaaaaabb 	bge	cead0358 <_start-0x154fcb8>
d0025868:	aaaaaaaa 	bge	cead0318 <_start-0x154fcf8>
d002586c:	aaaaaaaa 	bge	cead031c <_start-0x154fcf4>
d0025870:	aaaaaaaa 	bge	cead0320 <_start-0x154fcf0>
d0025874:	a8a8a8aa 	stmiage	r8!, {r1, r3, r5, r7, fp, sp, pc}
d0025878:	00008888 	andeq	r8, r0, r8, lsl #17
d002587c:	ffff0100 	undefined instruction 0xffff0100
d0025880:	ffffffff 	undefined instruction 0xffffffff
d0025884:	d5ffffff 	ldrble	pc, [pc, #4095]!	; d002688b <gImage_pic+0x3ab3>
d0025888:	57775755 	undefined instruction 0x57775755
d002588c:	fff77777 	undefined instruction 0xfff77777
d0025890:	557777f7 	ldrbpl	r7, [r7, #-2039]!	; 0x7f7
d0025894:	00000151 	andeq	r0, r0, r1, asr r1
d0025898:	00000000 	andeq	r0, r0, r0
d002589c:	02000000 	andeq	r0, r0, #0
d00258a0:	efeeeeee 	svc	0x00eeeeee
d00258a4:	aaeeeeee 	bge	cfbe1464 <_start-0x43ebac>
d00258a8:	aaaaaaaa 	bge	cead0358 <_start-0x154fcb8>
d00258ac:	aaaaaaaa 	bge	cead035c <_start-0x154fcb4>
d00258b0:	aaaaaaaa 	bge	cead0360 <_start-0x154fcb0>
d00258b4:	aaaaaaaa 	bge	cead0364 <_start-0x154fcac>
d00258b8:	aaaaaaaa 	bge	cead0368 <_start-0x154fca8>
d00258bc:	0000a2a2 	andeq	sl, r0, r2, lsr #5
d00258c0:	ffff0100 	undefined instruction 0xffff0100
d00258c4:	ffffffff 	undefined instruction 0xffffffff
d00258c8:	c5fdffff 	ldrbgt	pc, [sp, #4095]!	; 0xfff
d00258cc:	dddddd45 	ldclle	13, cr13, [sp, #276]	; 0x114
d00258d0:	dddddddd 	ldclle	13, cr13, [sp, #884]	; 0x374
d00258d4:	dddddddd 	ldclle	13, cr13, [sp, #884]	; 0x374
d00258d8:	00000044 	andeq	r0, r0, r4, asr #32
d00258dc:	00000000 	andeq	r0, r0, r0
d00258e0:	0a000000 	beq	d00258e8 <gImage_pic+0x2b10>
d00258e4:	ffbbbfbb 	undefined instruction 0xffbbbfbb
d00258e8:	bbfbffff 	bllt	cff258ec <_start-0xfa724>
d00258ec:	aaaaaaba 	bge	cead03dc <_start-0x154fc34>
d00258f0:	aaaaaaaa 	bge	cead03a0 <_start-0x154fc70>
d00258f4:	aaaaaaaa 	bge	cead03a4 <_start-0x154fc6c>
d00258f8:	aaaaaaaa 	bge	cead03a8 <_start-0x154fc68>
d00258fc:	88888aaa 	stmhi	r8, {r1, r3, r5, r7, r9, fp, pc}
d0025900:	00008888 	andeq	r8, r0, r8, lsl #17
d0025904:	ff7f0100 	undefined instruction 0xff7f0100
d0025908:	ffffffff 	undefined instruction 0xffffffff
d002590c:	55fdffff 	ldrbpl	pc, [sp, #4095]!	; 0xfff
d0025910:	55555555 	ldrbpl	r5, [r5, #-1365]	; 0x555
d0025914:	75755555 	ldrbvc	r5, [r5, #-1365]!	; 0x555
d0025918:	55557577 	ldrbpl	r7, [r5, #-1399]	; 0x577
d002591c:	00001055 	andeq	r1, r0, r5, asr r0
d0025920:	00000000 	andeq	r0, r0, r0
d0025924:	02000000 	andeq	r0, r0, #0
d0025928:	eeeeeeae 	cdp	14, 14, cr14, cr14, cr14, {5}
d002592c:	eaeeeeee 	b	cfbe14ec <_start-0x43eb24>
d0025930:	aaaaaaaa 	bge	cead03e0 <_start-0x154fc30>
d0025934:	aaaaaaaa 	bge	cead03e4 <_start-0x154fc2c>
d0025938:	aaaaaaaa 	bge	cead03e8 <_start-0x154fc28>
d002593c:	aaaaaaaa 	bge	cead03ec <_start-0x154fc24>
d0025940:	22aaaaaa 	adccs	sl, sl, #696320	; 0xaa000
d0025944:	00002020 	andeq	r2, r0, r0, lsr #32
d0025948:	ffff0000 	undefined instruction 0xffff0000
d002594c:	ffffffff 	undefined instruction 0xffffffff
d0025950:	44d4ffff 	ldrbmi	pc, [r4], #4095	; 0xfff
d0025954:	ddd5d544 	cfldr64le	mvdx13, [r5, #272]	; 0x110
d0025958:	dddddddd 	ldclle	13, cr13, [sp, #884]	; 0x374
d002595c:	d4d5dddd 	ldrble	sp, [r5], #3549	; 0xddd
d0025960:	00000044 	andeq	r0, r0, r4, asr #32
	...
d002596c:	ffbbfbbb 	undefined instruction 0xffbbfbbb
d0025970:	aafbffff 	bge	cff25974 <_start-0xfa69c>
d0025974:	aaaaaaaa 	bge	cead0424 <_start-0x154fbec>
d0025978:	aaaaaaaa 	bge	cead0428 <_start-0x154fbe8>
d002597c:	aaaaaaaa 	bge	cead042c <_start-0x154fbe4>
d0025980:	aaaaaaaa 	bge	cead0430 <_start-0x154fbe0>
d0025984:	8888a8a8 	stmhi	r8, {r3, r5, r7, fp, sp, pc}
d0025988:	00008888 	andeq	r8, r0, r8, lsl #17
d002598c:	ff7f0000 	undefined instruction 0xff7f0000
d0025990:	ffffffff 	undefined instruction 0xffffffff
d0025994:	1151ffff 	ldrshne	pc, [r1, #-255]	; 0xffffff01
d0025998:	55555555 	ldrbpl	r5, [r5, #-1365]	; 0x555
d002599c:	55555755 	ldrbpl	r5, [r5, #-1877]	; 0x755
d00259a0:	55555555 	ldrbpl	r5, [r5, #-1365]	; 0x555
d00259a4:	00001151 	andeq	r1, r0, r1, asr r1
d00259a8:	00000000 	andeq	r0, r0, r0
d00259ac:	02000000 	andeq	r0, r0, #0
d00259b0:	eeaeeeae 	cdp	14, 10, cr14, cr14, cr14, {5}
d00259b4:	aaeeeeee 	bge	cfbe1574 <_start-0x43ea9c>
d00259b8:	aaaaaaaa 	bge	cead0468 <_start-0x154fba8>
d00259bc:	aaaaaaaa 	bge	cead046c <_start-0x154fba4>
d00259c0:	aaaaaaaa 	bge	cead0470 <_start-0x154fba0>
d00259c4:	aaaaaaaa 	bge	cead0474 <_start-0x154fb9c>
d00259c8:	a2a2aaaa 	adcge	sl, r2, #696320	; 0xaa000
d00259cc:	00000002 	andeq	r0, r0, r2
d00259d0:	ff7f0000 	undefined instruction 0xff7f0000
d00259d4:	ffffffff 	undefined instruction 0xffffffff
d00259d8:	4444ddff 	strbmi	sp, [r4], #-3583	; 0xdff
d00259dc:	45454445 	strbmi	r4, [r5, #-1093]	; 0x445
d00259e0:	5dd5dd55 	ldclpl	13, cr13, [r5, #340]	; 0x154
d00259e4:	44545555 	ldrbmi	r5, [r4], #-1365	; 0x555
d00259e8:	00004444 	andeq	r4, r0, r4, asr #8
d00259ec:	00000000 	andeq	r0, r0, r0
d00259f0:	08000000 	stmdaeq	r0, {}
d00259f4:	bfbbbbbb 	svclt	0x00bbbbbb
d00259f8:	aabbffff 	bge	cef259fc <_start-0x10fa614>
d00259fc:	aaaaaaaa 	bge	cead04ac <_start-0x154fb64>
d0025a00:	aaaaaaaa 	bge	cead04b0 <_start-0x154fb60>
d0025a04:	aaaaaaaa 	bge	cead04b4 <_start-0x154fb5c>
d0025a08:	aaaaaaaa 	bge	cead04b8 <_start-0x154fb58>
d0025a0c:	888888aa 	stmhi	r8, {r1, r3, r5, r7, fp, pc}
d0025a10:	00008888 	andeq	r8, r0, r8, lsl #17
d0025a14:	ff7f0100 	undefined instruction 0xff7f0100
d0025a18:	ffffffff 	undefined instruction 0xffffffff
d0025a1c:	1111f5ff 	ldrshne	pc, [r1, -pc]
d0025a20:	55151115 	ldrpl	r1, [r5, #-277]	; 0x115
d0025a24:	55555555 	ldrbpl	r5, [r5, #-1365]	; 0x555
d0025a28:	55555555 	ldrbpl	r5, [r5, #-1365]	; 0x555
d0025a2c:	00105155 	andseq	r5, r0, r5, asr r1
d0025a30:	00000000 	andeq	r0, r0, r0
d0025a34:	02000000 	andeq	r0, r0, #0
d0025a38:	eeeeeaaa 	vfma.f32	s29, s29, s21
d0025a3c:	aaeaeeee 	bge	cfae15fc <_start-0x53ea14>
d0025a40:	aaaaaaaa 	bge	cead04f0 <_start-0x154fb20>
d0025a44:	aaaaaaaa 	bge	cead04f4 <_start-0x154fb1c>
d0025a48:	aaaaaaaa 	bge	cead04f8 <_start-0x154fb18>
d0025a4c:	aaaaaaaa 	bge	cead04fc <_start-0x154fb14>
d0025a50:	2022aaaa 	eorcs	sl, r2, sl, lsr #21
d0025a54:	00000000 	andeq	r0, r0, r0
d0025a58:	ffff0000 	undefined instruction 0xffff0000
d0025a5c:	ffffffff 	undefined instruction 0xffffffff
d0025a60:	0400d4ff 	streq	sp, [r0], #-1279	; 0x4ff
d0025a64:	44444044 	strbmi	r4, [r4], #-68	; 0x44
d0025a68:	54554444 	ldrbpl	r4, [r5], #-1092	; 0x444
d0025a6c:	54544454 	ldrbpl	r4, [r4], #-1108	; 0x454
d0025a70:	00404454 	subeq	r4, r0, r4, asr r4
	...
d0025a7c:	fbbbbbab 	blx	cef14932 <_start-0x110b6de>
d0025a80:	aaaafbff 	bge	ceae4a84 <_start-0x153b58c>
d0025a84:	aaaaaaaa 	bge	cead0534 <_start-0x154fadc>
d0025a88:	aaaaaaaa 	bge	cead0538 <_start-0x154fad8>
d0025a8c:	aaaaaaaa 	bge	cead053c <_start-0x154fad4>
d0025a90:	aaaaaaaa 	bge	cead0540 <_start-0x154fad0>
d0025a94:	888888aa 	stmhi	r8, {r1, r3, r5, r7, fp, pc}
d0025a98:	00008088 	andeq	r8, r0, r8, lsl #1
d0025a9c:	ff7f0100 	undefined instruction 0xff7f0100
d0025aa0:	ffffffff 	undefined instruction 0xffffffff
d0025aa4:	111151ff 	ldrshne	r5, [r1, -pc]
d0025aa8:	11115155 	tstne	r1, r5, asr r1
d0025aac:	55515555 	ldrbpl	r5, [r1, #-1365]	; 0x555
d0025ab0:	55555155 	ldrbpl	r5, [r5, #-341]	; 0x155
d0025ab4:	00115555 	andseq	r5, r1, r5, asr r5
d0025ab8:	00000000 	andeq	r0, r0, r0
d0025abc:	02000000 	andeq	r0, r0, #0
d0025ac0:	eeaeeeae 	cdp	14, 10, cr14, cr14, cr14, {5}
d0025ac4:	aaaaeaee 	bge	ceae0684 <_start-0x153f98c>
d0025ac8:	aaaaaaaa 	bge	cead0578 <_start-0x154fa98>
d0025acc:	aaaaaaaa 	bge	cead057c <_start-0x154fa94>
d0025ad0:	aaaaaaaa 	bge	cead0580 <_start-0x154fa90>
d0025ad4:	aaaaaaaa 	bge	cead0584 <_start-0x154fa8c>
d0025ad8:	02a2aaaa 	adceq	sl, r2, #696320	; 0xaa000
d0025adc:	00000000 	andeq	r0, r0, r0
d0025ae0:	ff5f0000 	undefined instruction 0xff5f0000
d0025ae4:	ffffffff 	undefined instruction 0xffffffff
d0025ae8:	440440fd 	strmi	r4, [r4], #-253	; 0xfd
d0025aec:	04004044 	streq	r4, [r0], #-68	; 0x44
d0025af0:	44444444 	strbmi	r4, [r4], #-1092	; 0x444
d0025af4:	45444444 	strbmi	r4, [r4, #-1092]	; 0x444
d0025af8:	004055d5 	ldrdeq	r5, [r0], #-85	; 0xffffffab
	...
d0025b04:	bfbbbbab 	svclt	0x00bbbbab
d0025b08:	aaaabaff 	bge	cead470c <_start-0x154b904>
d0025b0c:	aaaaaaaa 	bge	cead05bc <_start-0x154fa54>
d0025b10:	aaaaaaaa 	bge	cead05c0 <_start-0x154fa50>
d0025b14:	aaaaaaaa 	bge	cead05c4 <_start-0x154fa4c>
d0025b18:	aaaaaaaa 	bge	cead05c8 <_start-0x154fa48>
d0025b1c:	8888aaaa 	stmhi	r8, {r1, r3, r5, r7, r9, fp, sp, pc}
d0025b20:	00008888 	andeq	r8, r0, r8, lsl #17
d0025b24:	ff1f0000 	undefined instruction 0xff1f0000
d0025b28:	ffffffff 	undefined instruction 0xffffffff
d0025b2c:	11111075 	tstne	r1, r5, ror r0
d0025b30:	11001015 	tstne	r0, r5, lsl r0
d0025b34:	11111110 	tstne	r1, r0, lsl r1
d0025b38:	55151515 	ldrpl	r1, [r5, #-1301]	; 0x515
d0025b3c:	00115555 	andseq	r5, r1, r5, asr r5
	...
d0025b48:	eeeaaa2a 	vfma.f32	s21, s20, s21
d0025b4c:	aaaaaaea 	bge	cead06fc <_start-0x154f914>
d0025b50:	aaaaaaaa 	bge	cead0600 <_start-0x154fa10>
d0025b54:	aaaaaaaa 	bge	cead0604 <_start-0x154fa0c>
d0025b58:	aaaaaaaa 	bge	cead0608 <_start-0x154fa08>
d0025b5c:	aaaaaaaa 	bge	cead060c <_start-0x154fa04>
d0025b60:	20a2aaaa 	adccs	sl, r2, sl, lsr #21
d0025b64:	00000000 	andeq	r0, r0, r0
d0025b68:	ff1f0000 	undefined instruction 0xff1f0000
d0025b6c:	ddffffff 	ldclle	15, cr15, [pc, #1020]!	; 0x3fc
d0025b70:	400400d4 	ldrdmi	r0, [r4], -r4
d0025b74:	00000044 	andeq	r0, r0, r4, asr #32
d0025b78:	00000000 	andeq	r0, r0, r0
d0025b7c:	55444044 	strbpl	r4, [r4, #-68]	; 0x44
d0025b80:	0040d4d4 	ldrdeq	sp, [r0], #-68	; 0xffffffbc
	...
d0025b8c:	bbbbbbab 	bllt	cef14a40 <_start-0x110b5d0>
d0025b90:	aaaaaabb 	bge	cead0684 <_start-0x154f98c>
d0025b94:	a8aaaaaa 	stmiage	sl!, {r1, r3, r5, r7, r9, fp, sp, pc}
d0025b98:	a8a8aa88 	stmiage	r8!, {r3, r7, r9, fp, sp, pc}
d0025b9c:	aaaaaaaa 	bge	cead064c <_start-0x154f9c4>
d0025ba0:	aaaaaaaa 	bge	cead0650 <_start-0x154f9c0>
d0025ba4:	8888a8aa 	stmhi	r8, {r1, r3, r5, r7, fp, sp, pc}
d0025ba8:	00008080 	andeq	r8, r0, r0, lsl #1
d0025bac:	ff170000 	undefined instruction 0xff170000
d0025bb0:	f5ffffff 	undefined instruction 0xf5ffffff
d0025bb4:	51151151 	tstpl	r5, r1, asr r1
d0025bb8:	00000011 	andeq	r0, r0, r1, lsl r0
d0025bbc:	00010001 	andeq	r0, r1, r1
d0025bc0:	55111101 	ldrpl	r1, [r1, #-257]	; 0x101
d0025bc4:	00515555 	subseq	r5, r1, r5, asr r5
	...
d0025bd0:	aeaeee2a 	cdpge	14, 10, cr14, cr14, cr10, {1}
d0025bd4:	aaaaaaea 	bge	cead0784 <_start-0x154f88c>
d0025bd8:	a2aaaaaa 	adcge	sl, sl, #696320	; 0xaa000
d0025bdc:	aaaaaa22 	bge	cead046c <_start-0x154fba4>
d0025be0:	aaaaaaaa 	bge	cead0690 <_start-0x154f980>
d0025be4:	aaaaaaaa 	bge	cead0694 <_start-0x154f97c>
d0025be8:	00a2aaaa 	adceq	sl, r2, sl, lsr #21
d0025bec:	00000000 	andeq	r0, r0, r0
d0025bf0:	ff070000 	undefined instruction 0xff070000
d0025bf4:	c4ffffff 	ldrbtgt	pc, [pc], #4095	; d0025bfc <gImage_pic+0x2e24>
d0025bf8:	44450400 	strbmi	r0, [r5], #-1024	; 0x400
d0025bfc:	00000004 	andeq	r0, r0, r4
d0025c00:	00000000 	andeq	r0, r0, r0
d0025c04:	44440000 	strbmi	r0, [r4]
d0025c08:	00444444 	subeq	r4, r4, r4, asr #8
	...
d0025c14:	bbbbbb0b 	bllt	cef14848 <_start-0x110b7c8>
d0025c18:	aaa8aaba 	bge	cea50708 <_start-0x15cf908>
d0025c1c:	88aaaaaa 	stmiahi	sl!, {r1, r3, r5, r7, r9, fp, sp, pc}
d0025c20:	888a8888 	stmhi	sl, {r3, r7, fp, pc}
d0025c24:	aa8a8a8a 	bge	ce2c8654 <_start-0x1d579bc>
d0025c28:	aaaaaaaa 	bge	cead06d8 <_start-0x154f938>
d0025c2c:	8888aaaa 	stmhi	r8, {r1, r3, r5, r7, r9, fp, sp, pc}
d0025c30:	00000088 	andeq	r0, r0, r8, lsl #1
d0025c34:	ff070000 	undefined instruction 0xff070000
d0025c38:	50ffffff 	ldrshtpl	pc, [pc, #255]	; d0025d3f <gImage_pic+0x2f67>
d0025c3c:	50150100 	andspl	r0, r5, r0, lsl #2
d0025c40:	00000010 	andeq	r0, r0, r0, lsl r0
d0025c44:	00000000 	andeq	r0, r0, r0
d0025c48:	55110100 	ldrpl	r0, [r1, #-256]	; 0x100
d0025c4c:	00101555 	andseq	r1, r0, r5, asr r5
	...
d0025c58:	aaaaea0a 	bge	ceae0488 <_start-0x153fb88>
d0025c5c:	2aa2aaaa 	bcs	ce8d070c <_start-0x174f904>
d0025c60:	a0aaaaaa 	adcge	sl, sl, sl, lsr #21
d0025c64:	aa2a2a22 	bge	d0ab04f4 <bss_end+0xa89acc>
d0025c68:	aaaaaaaa 	bge	cead0718 <_start-0x154f8f8>
d0025c6c:	aaaaaaaa 	bge	cead071c <_start-0x154f8f4>
d0025c70:	0020aaaa 	eoreq	sl, r0, sl, lsr #21
d0025c74:	00000000 	andeq	r0, r0, r0
d0025c78:	ff050000 	undefined instruction 0xff050000
d0025c7c:	c0fdffff 	ldrshtgt	pc, [sp], #255	; 0xff
d0025c80:	c0550000 	subsgt	r0, r5, r0
	...
d0025c8c:	44000000 	strmi	r0, [r0]
d0025c90:	00004044 	andeq	r4, r0, r4, asr #32
d0025c94:	00000000 	andeq	r0, r0, r0
d0025c98:	00000080 	andeq	r0, r0, r0, lsl #1
d0025c9c:	abbbaa8a 	blge	cef106cc <_start-0x110f944>
d0025ca0:	88a8a8aa 	stmiahi	r8!, {r1, r3, r5, r7, fp, sp, pc}
d0025ca4:	88a8aaaa 	stmiahi	r8!, {r1, r3, r5, r7, r9, fp, sp, pc}
d0025ca8:	88888888 	stmhi	r8, {r3, r7, fp, pc}
d0025cac:	88a88888 	stmiahi	r8!, {r3, r7, fp, pc}
d0025cb0:	aaaaaaaa 	bge	cead0760 <_start-0x154f8b0>
d0025cb4:	808888a8 	addhi	r8, r8, r8, lsr #17
d0025cb8:	00008080 	andeq	r8, r0, r0, lsl #1
d0025cbc:	ff010000 	undefined instruction 0xff010000
d0025cc0:	50ffffff 	ldrshtpl	pc, [pc, #255]	; d0025dc7 <gImage_pic+0x2fef>
d0025cc4:	51170000 	tstpl	r7, r0
	...
d0025cd0:	11010000 	tstne	r1, r0
d0025cd4:	00001151 	andeq	r1, r0, r1, asr r1
	...
d0025ce0:	aeaaaa02 	vfmage.f32	s20, s20, s4
d0025ce4:	22a2aaaa 	adccs	sl, r2, #696320	; 0xaa000
d0025ce8:	a0aaaaaa 	adcge	sl, sl, sl, lsr #21
d0025cec:	22222202 	eorcs	r2, r2, #536870912	; 0x20000000
d0025cf0:	a2aaa202 	adcge	sl, sl, #536870912	; 0x20000000
d0025cf4:	aaaaaaaa 	bge	cead07a4 <_start-0x154f86c>
d0025cf8:	0022a2aa 	eoreq	sl, r2, sl, lsr #5
d0025cfc:	00000000 	andeq	r0, r0, r0
d0025d00:	ff010000 	undefined instruction 0xff010000
d0025d04:	40fdffff 	ldrshtmi	pc, [sp], #255	; 0xff
d0025d08:	40050000 	andmi	r0, r5, r0
	...
d0025d14:	44040000 	strmi	r0, [r4]
d0025d18:	00000044 	andeq	r0, r0, r4, asr #32
	...
d0025d24:	bbbaba0a 	bllt	ceed4554 <_start-0x114babc>
d0025d28:	8888aaaa 	stmhi	r8, {r1, r3, r5, r7, r9, fp, sp, pc}
d0025d2c:	a8aaaaaa 	stmiage	sl!, {r1, r3, r5, r7, r9, fp, sp, pc}
d0025d30:	88888888 	stmhi	r8, {r3, r7, fp, pc}
d0025d34:	8aa88888 	bhi	cea47f5c <_start-0x15d80b4>
d0025d38:	aaaaaaaa 	bge	cead07e8 <_start-0x154f828>
d0025d3c:	8a888888 	bhi	ce247f64 <_start-0x1dd80ac>
d0025d40:	00000080 	andeq	r0, r0, r0, lsl #1
d0025d44:	ff010000 	undefined instruction 0xff010000
d0025d48:	10fdffff 	ldrshtne	pc, [sp], #255	; 0xff
d0025d4c:	50150000 	andspl	r0, r5, r0
d0025d50:	00005001 	andeq	r5, r0, r1
d0025d54:	00000000 	andeq	r0, r0, r0
d0025d58:	15110000 	ldrne	r0, [r1]
d0025d5c:	00001055 	andeq	r1, r0, r5, asr r0
	...
d0025d68:	aaaaaa02 	bge	cead0578 <_start-0x154fa98>
d0025d6c:	02a0aaaa 	adceq	sl, r0, #696320	; 0xaa000
d0025d70:	a8aaaaaa 	stmiage	sl!, {r1, r3, r5, r7, r9, fp, sp, pc}
d0025d74:	22002000 	andcs	r2, r0, #0
d0025d78:	aaaa2a20 	bge	ceab0600 <_start-0x156fa10>
d0025d7c:	aaaaaaaa 	bge	cead082c <_start-0x154f7e4>
d0025d80:	2a00a0aa 	bcs	d004e030 <bss_end+0x27608>
d0025d84:	000000a0 	andeq	r0, r0, r0, lsr #1
d0025d88:	fd000000 	stc2	0, cr0, [r0]
d0025d8c:	40fcffff 	ldrshtmi	pc, [ip], #255	; 0xff
d0025d90:	c4040000 	strgt	r0, [r4]
d0025d94:	0000c001 	andeq	ip, r0, r1
d0025d98:	00000000 	andeq	r0, r0, r0
d0025d9c:	54000000 	strpl	r0, [r0]
d0025da0:	00000044 	andeq	r0, r0, r4, asr #32
	...
d0025dac:	abbbaa00 	blge	cef105b4 <_start-0x110fa5c>
d0025db0:	8888a8aa 	stmhi	r8, {r1, r3, r5, r7, fp, sp, pc}
d0025db4:	a8aaaaaa 	stmiage	sl!, {r1, r3, r5, r7, r9, fp, sp, pc}
d0025db8:	88888880 	stmhi	r8, {r7, fp, pc}
d0025dbc:	aa888888 	bge	ce247fe4 <_start-0x1dd802c>
d0025dc0:	aaaaaaaa 	bge	cead0870 <_start-0x154f7a0>
d0025dc4:	88808088 	stmhi	r0, {r3, r7, pc}
d0025dc8:	00008088 	andeq	r8, r0, r8, lsl #1
d0025dcc:	7f000000 	svcvc	0x00000000
d0025dd0:	00fdffff 	ldrshteq	pc, [sp], #255	; 0xff
d0025dd4:	55150000 	ldrpl	r0, [r5]
d0025dd8:	0000d001 	andeq	sp, r0, r1
d0025ddc:	00000000 	andeq	r0, r0, r0
d0025de0:	55010100 	strpl	r0, [r1, #-256]	; 0x100
d0025de4:	00000051 	andeq	r0, r0, r1, asr r0
	...
d0025df0:	aaaeaa00 	bge	cebd05f8 <_start-0x144fa18>
d0025df4:	0080aaaa 	addeq	sl, r0, sl, lsr #21
d0025df8:	aaaaaaaa 	bge	cead08a8 <_start-0x154f768>
d0025dfc:	02020200 	andeq	r0, r2, #0
d0025e00:	aaa22202 	bge	ce8ae610 <_start-0x1771a00>
d0025e04:	aaaaaaaa 	bge	cead08b4 <_start-0x154f75c>
d0025e08:	02000000 	andeq	r0, r0, #0
d0025e0c:	000000a2 	andeq	r0, r0, r2, lsr #1
d0025e10:	1f000000 	svcne	0x00000000
d0025e14:	00fdffff 	ldrshteq	pc, [sp], #255	; 0xff
d0025e18:	7c050000 	stcvc	0, cr0, [r5], {0}
d0025e1c:	0000c005 	andeq	ip, r0, r5
d0025e20:	00000000 	andeq	r0, r0, r0
d0025e24:	55050400 	strpl	r0, [r5, #-1024]	; 0x400
d0025e28:	000000c4 	andeq	r0, r0, r4, asr #1
	...
d0025e34:	babbaa00 	blt	cef1063c <_start-0x110f9d4>
d0025e38:	808888aa 	addhi	r8, r8, sl, lsr #17
d0025e3c:	a88abaaa 	stmge	sl, {r1, r3, r5, r7, r9, fp, ip, sp, pc}
d0025e40:	88888888 	stmhi	r8, {r3, r7, fp, pc}
d0025e44:	aa8a8888 	bge	ce2c806c <_start-0x1d57fa4>
d0025e48:	a8aaaaaa 	stmiage	sl!, {r1, r3, r5, r7, r9, fp, sp, pc}
d0025e4c:	88080080 	stmdahi	r8, {r7}
d0025e50:	00008888 	andeq	r8, r0, r8, lsl #17
d0025e54:	1f000000 	svcne	0x00000000
d0025e58:	00fdffff 	ldrshteq	pc, [sp], #255	; 0xff
d0025e5c:	7f150000 	svcvc	0x00150000
d0025e60:	00004005 	andeq	r4, r0, r5
d0025e64:	00000000 	andeq	r0, r0, r0
d0025e68:	55111100 	ldrpl	r1, [r1, #-256]	; 0x100
d0025e6c:	00000051 	andeq	r0, r0, r1, asr r0
	...
d0025e78:	aaaa2a00 	bge	ceab0680 <_start-0x156f990>
d0025e7c:	0000a0aa 	andeq	sl, r0, sl, lsr #1
d0025e80:	a8aaae2a 	stmiage	sl!, {r1, r3, r5, r9, sl, fp, sp, pc}
d0025e84:	20000000 	andcs	r0, r0, r0
d0025e88:	aaaa2a20 	bge	ceab0710 <_start-0x156f900>
d0025e8c:	a0aaaaaa 	adcge	sl, sl, sl, lsr #21
d0025e90:	00000000 	andeq	r0, r0, r0
d0025e94:	0000aa22 	andeq	sl, r0, r2, lsr #20
d0025e98:	0f000000 	svceq	0x00000000
d0025e9c:	00fcfdff 	ldrshteq	pc, [ip], #223	; 0xdf
d0025ea0:	fc050000 	stc2	0, cr0, [r5], {0}
d0025ea4:	0000c007 	andeq	ip, r0, r7
d0025ea8:	00000000 	andeq	r0, r0, r0
d0025eac:	55544400 	ldrbpl	r4, [r4, #-1024]	; 0x400
d0025eb0:	000000d4 	ldrdeq	r0, [r0], -r4
d0025eb4:	00000000 	andeq	r0, r0, r0
d0025eb8:	00000080 	andeq	r0, r0, r0, lsl #1
d0025ebc:	abaa8b00 	blge	ceac8ac4 <_start-0x155754c>
d0025ec0:	8080a8ba 	strhhi	sl, [r0], sl
d0025ec4:	a88bbaaa 	stmge	fp, {r1, r3, r5, r7, r9, fp, ip, sp, pc}
d0025ec8:	88888088 	stmhi	r8, {r3, r7, pc}
d0025ecc:	aaaa8888 	bge	ceac80f4 <_start-0x1557f1c>
d0025ed0:	80aaaaaa 	adchi	sl, sl, sl, lsr #21
d0025ed4:	88000080 	stmdahi	r0, {r7}
d0025ed8:	00008a88 	andeq	r8, r0, r8, lsl #21
d0025edc:	07000000 	streq	r0, [r0, -r0]
d0025ee0:	00fff7f7 	ldrshteq	pc, [pc, #119]	; d0025f5f <gImage_pic+0x3187>
d0025ee4:	7f170000 	svcvc	0x00170000
d0025ee8:	0000c007 	andeq	ip, r0, r7
d0025eec:	00000000 	andeq	r0, r0, r0
d0025ef0:	55555111 	ldrbpl	r5, [r5, #-273]	; 0x111
d0025ef4:	00000055 	andeq	r0, r0, r5, asr r0
d0025ef8:	01000000 	tsteq	r0, r0
d0025efc:	00000000 	andeq	r0, r0, r0
d0025f00:	aaaa0a00 	bge	ceaa8708 <_start-0x1577908>
d0025f04:	0000a2aa 	andeq	sl, r0, sl, lsr #5
d0025f08:	a0aaaa2a 	adcge	sl, sl, sl, lsr #20
d0025f0c:	02000000 	andeq	r0, r0, #0
d0025f10:	aaaa2222 	bge	ceaae7a0 <_start-0x1571870>
d0025f14:	80aaaaaa 	adchi	sl, sl, sl, lsr #21
d0025f18:	02000000 	andeq	r0, r0, #0
d0025f1c:	00002a00 	andeq	r2, r0, r0, lsl #20
d0025f20:	05000000 	streq	r0, [r0]
d0025f24:	40ffdfdf 	ldrsbtmi	sp, [pc, #255]	; d002602b <gImage_pic+0x3253>
d0025f28:	5f050000 	svcpl	0x00050000
d0025f2c:	000000c4 	andeq	r0, r0, r4, asr #1
d0025f30:	00000000 	andeq	r0, r0, r0
d0025f34:	55440404 	strbpl	r0, [r4, #-1028]	; 0x404
d0025f38:	00000044 	andeq	r0, r0, r4, asr #32
	...
d0025f44:	aaaa0a00 	bge	ceaa874c <_start-0x15778c4>
d0025f48:	0080a8aa 	addeq	sl, r0, sl, lsr #17
d0025f4c:	88aaaaaa 	stmiahi	sl!, {r1, r3, r5, r7, r9, fp, sp, pc}
d0025f50:	88888888 	stmhi	r8, {r3, r7, fp, pc}
d0025f54:	aaaa8888 	bge	ceac817c <_start-0x1557e94>
d0025f58:	80aaaaaa 	adchi	sl, sl, sl, lsr #21
d0025f5c:	88000000 	stmdahi	r0, {}
d0025f60:	00008a88 	andeq	r8, r0, r8, lsl #21
d0025f64:	01000000 	tsteq	r0, r0
d0025f68:	50ffffff 	ldrshtpl	pc, [pc, #255]	; d002606f <gImage_pic+0x3297>
d0025f6c:	75150000 	ldrvc	r0, [r5]
d0025f70:	00004057 	andeq	r4, r0, r7, asr r0
d0025f74:	00000000 	andeq	r0, r0, r0
d0025f78:	15111110 	ldrne	r1, [r1, #-272]	; 0x110
d0025f7c:	00000055 	andeq	r0, r0, r5, asr r0
	...
d0025f88:	aaaa0200 	bge	ceaa6790 <_start-0x1579880>
d0025f8c:	0000aaaa 	andeq	sl, r0, sl, lsr #21
d0025f90:	a0aaaa2a 	adcge	sl, sl, sl, lsr #20
d0025f94:	00000000 	andeq	r0, r0, r0
d0025f98:	aaaa2a02 	bge	ceab07a8 <_start-0x156f868>
d0025f9c:	80aaaaaa 	adchi	sl, sl, sl, lsr #21
	...
d0025fac:	40ddfd5f 	sbcsmi	pc, sp, pc, asr sp
d0025fb0:	40040000 	andmi	r0, r4, r0
d0025fb4:	0000c005 	andeq	ip, r0, r5
d0025fb8:	00000000 	andeq	r0, r0, r0
d0025fbc:	04000000 	streq	r0, [r0]
d0025fc0:	00000044 	andeq	r0, r0, r4, asr #32
	...
d0025fcc:	aaab0000 	bge	ceae5fd4 <_start-0x153a03c>
d0025fd0:	8080a8aa 	addhi	sl, r0, sl, lsr #17
d0025fd4:	a88aa88a 	stmge	sl, {r1, r3, r7, fp, sp, pc}
d0025fd8:	80888080 	addhi	r8, r8, r0, lsl #1
d0025fdc:	8aa8aa88 	bhi	cea50a04 <_start-0x15cf60c>
d0025fe0:	80aaaa88 	adchi	sl, sl, r8, lsl #21
d0025fe4:	88000000 	stmdahi	r0, {}
d0025fe8:	00008088 	andeq	r8, r0, r8, lsl #1
d0025fec:	00000000 	andeq	r0, r0, r0
d0025ff0:	0075f717 	rsbseq	pc, r5, r7, lsl r7
d0025ff4:	00110000 	andseq	r0, r1, r0
d0025ff8:	00000007 	andeq	r0, r0, r7
d0025ffc:	01000000 	tsteq	r0, r0
d0026000:	01000000 	tsteq	r0, r0
d0026004:	00000051 	andeq	r0, r0, r1, asr r0
	...
d0026010:	aa2a0000 	bge	d0aa6018 <bss_end+0xa7f5f0>
d0026014:	0000a2aa 	andeq	sl, r0, sl, lsr #5
d0026018:	800aa02a 	andhi	sl, sl, sl, lsr #32
d002601c:	00a20200 	adceq	r0, r2, r0, lsl #4
d0026020:	aaaaaa02 	bge	cead0830 <_start-0x154f7e0>
d0026024:	80aaaaaa 	adchi	sl, sl, sl, lsr #21
d0026028:	00000000 	andeq	r0, r0, r0
d002602c:	00000002 	andeq	r0, r0, r2
d0026030:	00000000 	andeq	r0, r0, r0
d0026034:	00d4dd05 	sbcseq	sp, r4, r5, lsl #26
	...
d0026040:	00000004 	andeq	r0, r0, r4
d0026044:	00000000 	andeq	r0, r0, r0
d0026048:	00000004 	andeq	r0, r0, r4
	...
d0026054:	aa0a0000 	bge	d02a605c <bss_end+0x27f634>
d0026058:	000088aa 	andeq	r8, r0, sl, lsr #17
d002605c:	8888880a 	stmhi	r8, {r1, r3, fp, pc}
d0026060:	88aa8a88 	stmiahi	sl!, {r3, r7, r9, fp, pc}
d0026064:	8a88aa08 	bhi	ce25088c <_start-0x1dcf784>
d0026068:	80aa8aaa 	adchi	r8, sl, sl, lsr #21
d002606c:	08000000 	stmdaeq	r0, {}
d0026070:	00008888 	andeq	r8, r0, r8, lsl #17
d0026074:	00000000 	andeq	r0, r0, r0
d0026078:	00505501 	subseq	r5, r0, r1, lsl #10
d002607c:	00010000 	andeq	r0, r1, r0
d0026080:	01000000 	tsteq	r0, r0
d0026084:	0000407f 	andeq	r4, r0, pc, ror r0
d0026088:	00100000 	andseq	r0, r0, r0
d002608c:	00000011 	andeq	r0, r0, r1, lsl r0
	...
d0026098:	aa020000 	bge	d00a60a0 <bss_end+0x7f678>
d002609c:	000000a8 	andeq	r0, r0, r8, lsr #1
d00260a0:	a822a00a 	stmdage	r2!, {r1, r3, sp, pc}
d00260a4:	a8aa0a00 	stmiage	sl!, {r9, fp}
d00260a8:	aa222a00 	bge	d08b08b0 <bss_end+0x889e88>
d00260ac:	80aaaaaa 	adchi	sl, sl, sl, lsr #21
d00260b0:	00000000 	andeq	r0, r0, r0
d00260b4:	00002020 	andeq	r2, r0, r0, lsr #32
	...
d00260c4:	05000000 	streq	r0, [r0]
d00260c8:	0000c0df 	ldrdeq	ip, [r0], -pc
	...
d00260d8:	00000080 	andeq	r0, r0, r0, lsl #1
d00260dc:	88000000 	stmdahi	r0, {}
d00260e0:	00808088 	addeq	r8, r0, r8, lsl #1
d00260e4:	a8a8a888 	stmiage	r8!, {r3, r7, fp, sp, pc}
d00260e8:	a8aa8a88 	stmiage	sl!, {r3, r7, r9, fp, pc}
d00260ec:	8aa88888 	bhi	cea48314 <_start-0x15d7cfc>
d00260f0:	80aa88aa 	adchi	r8, sl, sl, lsr #17
d00260f4:	00800080 	addeq	r0, r0, r0, lsl #1
d00260f8:	00008888 	andeq	r8, r0, r8, lsl #17
	...
d0026108:	01000010 	tsteq	r0, r0, lsl r0
d002610c:	0000f07f 	andeq	pc, r0, pc, ror r0
d0026110:	00100100 	andseq	r0, r0, r0, lsl #2
d0026114:	00000001 	andeq	r0, r0, r1
	...
d0026128:	aaaaaa02 	bge	cead0938 <_start-0x154f6d8>
d002612c:	aaaa2a00 	bge	ceab0934 <_start-0x156f6dc>
d0026130:	2aa22202 	bcs	ce8ae940 <_start-0x17716d0>
d0026134:	80aaa2aa 	adchi	sl, sl, sl, lsr #5
d0026138:	00000000 	andeq	r0, r0, r0
d002613c:	00002202 	andeq	r2, r0, r2, lsl #4
	...
d0026148:	40000000 	andmi	r0, r0, r0
d002614c:	00000000 	andeq	r0, r0, r0
d0026150:	0000d05d 	andeq	sp, r0, sp, asr r0
d0026154:	000000c0 	andeq	r0, r0, r0, asr #1
	...
d002616c:	88aaaa08 	stmiahi	sl!, {r3, r9, fp, sp, pc}
d0026170:	a8aaaa88 	stmiage	sl!, {r3, r7, r9, fp, sp, pc}
d0026174:	8aa88a88 	bhi	cea48b9c <_start-0x15d7474>
d0026178:	808a88a8 	addhi	r8, sl, r8, lsr #17
d002617c:	00000000 	andeq	r0, r0, r0
d0026180:	00008888 	andeq	r8, r0, r8, lsl #17
	...
d002618c:	71010000 	tstvc	r1, r0
d0026190:	00000051 	andeq	r0, r0, r1, asr r0
d0026194:	01001015 	tsteq	r0, r5, lsl r0
d0026198:	00000040 	andeq	r0, r0, r0, asr #32
	...
d00261b0:	aaaaaa02 	bge	cead09c0 <_start-0x154f650>
d00261b4:	aaaaaa2a 	bge	cead0a64 <_start-0x154f5ac>
d00261b8:	2aaa2a22 	bcs	ceab0a48 <_start-0x156f5c8>
d00261bc:	002aa2aa 	eoreq	sl, sl, sl, lsr #5
d00261c0:	00000000 	andeq	r0, r0, r0
d00261c4:	00002200 	andeq	r2, r0, r0, lsl #4
	...
d00261d0:	c1010000 	tstgt	r1, r0
d00261d4:	400040c4 	andmi	r4, r0, r4, asr #1
d00261d8:	01000000 	tsteq	r0, r0
d00261dc:	00000040 	andeq	r0, r0, r0, asr #32
	...
d00261ec:	80008000 	andhi	r8, r0, r0
d00261f0:	00008000 	andeq	r8, r0, r0
d00261f4:	a8aaaa02 	stmiage	sl!, {r1, r9, fp, sp, pc}
d00261f8:	a8aaa88a 	stmiage	sl!, {r1, r3, r7, fp, sp, pc}
d00261fc:	88888a88 	stmhi	r8, {r3, r7, r9, fp, pc}
d0026200:	80888888 	addhi	r8, r8, r8, lsl #17
d0026204:	00000000 	andeq	r0, r0, r0
d0026208:	00008880 	andeq	r8, r0, r0, lsl #17
	...
d0026214:	01000000 	tsteq	r0, r0
d0026218:	40015051 	andmi	r5, r1, r1, asr r0
d002621c:	07000001 	streq	r0, [r0, -r1]
	...
d0026238:	aaaa0200 	bge	ceaa6a40 <_start-0x15795d0>
d002623c:	aa0aa802 	bge	d02d024c <bss_end+0x2a9824>
d0026240:	22aa2aa2 	adccs	r2, sl, #663552	; 0xa2000
d0026244:	0022a222 	eoreq	sl, r2, r2, lsr #4
d0026248:	00000000 	andeq	r0, r0, r0
d002624c:	00002200 	andeq	r2, r0, r0, lsl #4
	...
d002625c:	00004000 	andeq	r4, r0, r0
d0026260:	05004005 	streq	r4, [r0, #-5]
	...
d002627c:	a8880a00 	stmge	r8, {r9, fp}
d0026280:	a88aa808 	stmge	sl, {r3, fp, sp, pc}
d0026284:	88888a88 	stmhi	r8, {r3, r7, r9, fp, pc}
d0026288:	00888888 	addeq	r8, r8, r8, lsl #17
d002628c:	00000000 	andeq	r0, r0, r0
d0026290:	00008808 	andeq	r8, r0, r8, lsl #16
	...
d00262a4:	17000007 	strne	r0, [r0, -r7]
	...
d00262c0:	20220a00 	eorcs	r0, r2, r0, lsl #20
d00262c4:	a02a2800 	eorge	r2, sl, r0, lsl #16
d00262c8:	20aaaa20 	adccs	sl, sl, r0, lsr #20
d00262cc:	00002022 	andeq	r2, r0, r2, lsr #32
d00262d0:	00000000 	andeq	r0, r0, r0
d00262d4:	00000200 	andeq	r0, r0, r0, lsl #4
	...
d00262e8:	04000004 	streq	r0, [r0], #-4
	...
d0026300:	00800000 	addeq	r0, r0, r0
d0026304:	88aa8800 	stmiahi	sl!, {fp, pc}
d0026308:	808a8880 	addhi	r8, sl, r0, lsl #17
d002630c:	8888aa88 	stmhi	r8, {r3, r7, r9, fp, sp, pc}
d0026310:	00808088 	addeq	r8, r0, r8, lsl #1
d0026314:	00000080 	andeq	r0, r0, r0, lsl #1
d0026318:	00008880 	andeq	r8, r0, r0, lsl #17
	...
d0026328:	00000011 	andeq	r0, r0, r1, lsl r0
d002632c:	10010000 	andne	r0, r1, r0
	...
d0026348:	a2aa0200 	adcge	r0, sl, #0
d002634c:	00aa0200 	adceq	r0, sl, r0, lsl #4
d0026350:	a22aaa02 	eorge	sl, sl, #8192	; 0x2000
	...
d002635c:	00000200 	andeq	r0, r0, r0, lsl #4
	...
d0026370:	40000000 	andmi	r0, r0, r0
	...
d002638c:	88880800 	stmhi	r8, {fp}
d0026390:	00a80800 	adceq	r0, r8, r0, lsl #16
d0026394:	88088808 	stmdahi	r8, {r3, fp, pc}
	...
d00263a0:	00000800 	andeq	r0, r0, r0, lsl #16
	...
d00263d4:	00200000 	eoreq	r0, r0, r0
	...
d0026408:	80000000 	andhi	r0, r0, r0
d002640c:	00008000 	andeq	r8, r0, r0
d0026410:	00000000 	andeq	r0, r0, r0
d0026414:	80000000 	andhi	r0, r0, r0
d0026418:	00808000 	addeq	r8, r0, r0
d002641c:	80008000 	andhi	r8, r0, r0
d0026420:	00008000 	andeq	r8, r0, r0
d0026424:	80000000 	andhi	r0, r0, r0
	...
d0026518:	00000080 	andeq	r0, r0, r0, lsl #1
	...
d0026524:	00000080 	andeq	r0, r0, r0, lsl #1
d0026528:	00000000 	andeq	r0, r0, r0
d002652c:	00800080 	addeq	r0, r0, r0, lsl #1
	...
d0026958:	64636261 	strbtvs	r6, [r3], #-609	; 0x261
d002695c:	68676665 	stmdavs	r7!, {r0, r2, r5, r6, r9, sl, sp, lr}^
d0026960:	00000000 	andeq	r0, r0, r0
d0026964:	006b6a69 	rsbeq	r6, fp, r9, ror #20
d0026968:	6e656843 	cdpvs	8, 6, cr6, cr5, cr3, {2}
d002696c:	69654620 	stmdbvs	r5!, {r5, r9, sl, lr}^
d0026970:	6e617579 	mcrvs	5, 3, r7, cr1, cr9, {3}
d0026974:	00000000 	andeq	r0, r0, r0
d0026978:	37313032 	undefined instruction 0x37313032
d002697c:	35303134 	ldrcc	r3, [r0, #-308]!	; 0x134
d0026980:	32373033 	eorscc	r3, r7, #51	; 0x33
d0026984:	00000000 	andeq	r0, r0, r0
d0026988:	006e6d6c 	rsbeq	r6, lr, ip, ror #26
d002698c:	206e694c 	rsbcs	r6, lr, ip, asr #18
d0026990:	6d6e754a 	cfstr64vs	mvdx7, [lr, #-296]!	; 0xfffffed8
d0026994:	00676e69 	rsbeq	r6, r7, r9, ror #28
d0026998:	37313032 	undefined instruction 0x37313032
d002699c:	35303134 	ldrcc	r3, [r0, #-308]!	; 0x134
d00269a0:	37353033 	undefined instruction 0x37353033
d00269a4:	00000000 	andeq	r0, r0, r0
d00269a8:	0071706f 	rsbseq	r7, r1, pc, rrx
d00269ac:	5a207557 	bpl	d0843f10 <bss_end+0x81d4e8>
d00269b0:	686e6568 	stmdavs	lr!, {r3, r5, r6, r8, sl, sp, lr}^
d00269b4:	00676e61 	rsbeq	r6, r7, r1, ror #28
d00269b8:	37313032 	undefined instruction 0x37313032
d00269bc:	35303134 	ldrcc	r3, [r0, #-308]!	; 0x134
d00269c0:	35373033 	ldrcc	r3, [r7, #-51]!	; 0x33
d00269c4:	00000000 	andeq	r0, r0, r0
d00269c8:	554e454d 	strbpl	r4, [lr, #-1357]	; 0x54d
d00269cc:	00000000 	andeq	r0, r0, r0
d00269d0:	65726353 	ldrbvs	r6, [r2, #-851]!	; 0x353
d00269d4:	46206e65 	strtmi	r6, [r0], -r5, ror #28
d00269d8:	68736572 	ldmdavs	r3!, {r1, r4, r5, r6, r8, sl, sp, lr}^
d00269dc:	752d3c20 	strvc	r3, [sp, #-3104]!	; 0xc20
d00269e0:	00000070 	andeq	r0, r0, r0, ror r0
d00269e4:	74786554 	ldrbtvc	r6, [r8], #-1364	; 0x554
d00269e8:	20202020 	eorcs	r2, r0, r0, lsr #32
d00269ec:	20202020 	eorcs	r2, r0, r0, lsr #32
d00269f0:	642d3c20 	strtvs	r3, [sp], #-3104	; 0xc20
d00269f4:	006e776f 	rsbeq	r7, lr, pc, ror #14
d00269f8:	756f7247 	strbvc	r7, [pc, #-583]!	; d00267b9 <gImage_pic+0x39e1>
d00269fc:	68502070 	ldmdavs	r0, {r4, r5, r6, sp}^
d0026a00:	206f746f 	rsbcs	r7, pc, pc, ror #8
d0026a04:	6c2d3c20 	stcvs	12, cr3, [sp], #-128	; 0xffffff80
d0026a08:	00746665 	rsbseq	r6, r4, r5, ror #12
d0026a0c:	70617247 	rsbvc	r7, r1, r7, asr #4
d0026a10:	73636968 	cmnvc	r3, #1703936	; 0x1a0000
d0026a14:	20202020 	eorcs	r2, r0, r0, lsr #32
d0026a18:	722d3c20 	eorvc	r3, sp, #8192	; 0x2000
d0026a1c:	74686769 	strbtvc	r6, [r8], #-1897	; 0x769
d0026a20:	00000000 	andeq	r0, r0, r0

Disassembly of section .data:

d0026a24 <pfb>:
d0026a24:	23000000 	movwcs	r0, #0

Disassembly of section .comment:

00000000 <.comment>:
   0:	43434700 	movtmi	r4, #14080	; 0x3700
   4:	5328203a 	teqpl	r8, #58	; 0x3a
   8:	6372756f 	cmnvs	r2, #465567744	; 0x1bc00000
   c:	20797265 	rsbscs	r7, r9, r5, ror #4
  10:	202b2b47 	eorcs	r2, fp, r7, asr #22
  14:	6574694c 	ldrbvs	r6, [r4, #-2380]!	; 0x94c
  18:	30303220 	eorscc	r3, r0, r0, lsr #4
  1c:	2d337139 	ldfcss	f7, [r3, #-228]!	; 0xffffff1c
  20:	20293736 	eorcs	r3, r9, r6, lsr r7
  24:	2e342e34 	mrccs	14, 1, r2, cr4, cr4, {1}
  28:	47000031 	smladxmi	r0, r1, r0, r0
  2c:	203a4343 	eorscs	r4, sl, r3, asr #6
  30:	756f5328 	strbvc	r5, [pc, #-808]!	; fffffd10 <bss_end+0x2ffd92e8>
  34:	72656372 	rsbvc	r6, r5, #-939524095	; 0xc8000001
  38:	2b472079 	blcs	11c8224 <_start-0xcee57dec>
  3c:	694c202b 	stmdbvs	ip, {r0, r1, r3, r5, sp}^
  40:	32206574 	eorcc	r6, r0, #486539264	; 0x1d000000
  44:	71393030 	teqvc	r9, r0, lsr r0
  48:	37362d33 	undefined instruction 0x37362d33
  4c:	2e342029 	cdpcs	0, 3, cr2, cr4, cr9, {1}
  50:	00312e34 	eorseq	r2, r1, r4, lsr lr
  54:	43434700 	movtmi	r4, #14080	; 0x3700
  58:	5328203a 	teqpl	r8, #58	; 0x3a
  5c:	6372756f 	cmnvs	r2, #465567744	; 0x1bc00000
  60:	20797265 	rsbscs	r7, r9, r5, ror #4
  64:	202b2b47 	eorcs	r2, fp, r7, asr #22
  68:	6574694c 	ldrbvs	r6, [r4, #-2380]!	; 0x94c
  6c:	30303220 	eorscc	r3, r0, r0, lsr #4
  70:	2d337139 	ldfcss	f7, [r3, #-228]!	; 0xffffff1c
  74:	20293736 	eorcs	r3, r9, r6, lsr r7
  78:	2e342e34 	mrccs	14, 1, r2, cr4, cr4, {1}
  7c:	Address 0x0000007c is out of bounds.


Disassembly of section .ARM.attributes:

00000000 <.ARM.attributes>:
   0:	00002641 	andeq	r2, r0, r1, asr #12
   4:	61656100 	cmnvs	r5, r0, lsl #2
   8:	01006962 	tsteq	r0, r2, ror #18
   c:	0000001c 	andeq	r0, r0, ip, lsl r0
  10:	45543505 	ldrbmi	r3, [r4, #-1285]	; 0x505
  14:	08040600 	stmdaeq	r4, {r9, sl}
  18:	12010901 	andne	r0, r1, #16384	; 0x4000
  1c:	15011404 	strne	r1, [r1, #-1028]	; 0x404
  20:	18031701 	stmdane	r3, {r0, r8, r9, sl, ip}
  24:	Address 0x00000024 is out of bounds.

