
led.elf:     file format elf32-littlearm


Disassembly of section .text:

d0020010 <_start>:
d0020010:	e59f0070 	ldr	r0, [pc, #112]	; d0020088 <run_on_dram+0x8>
d0020014:	e3a01000 	mov	r1, #0
d0020018:	e5801000 	str	r1, [r0]
d002001c:	e59f0068 	ldr	r0, [pc, #104]	; d002008c <run_on_dram+0xc>
d0020020:	e59f1068 	ldr	r1, [pc, #104]	; d0020090 <run_on_dram+0x10>
d0020024:	e5801000 	str	r1, [r0]
d0020028:	e59fd064 	ldr	sp, [pc, #100]	; d0020094 <run_on_dram+0x14>
d002002c:	ee110f10 	mrc	15, 0, r0, cr1, cr0, {0}
d0020030:	e3800a01 	orr	r0, r0, #4096	; 0x1000
d0020034:	ee010f10 	mcr	15, 0, r0, cr1, cr0, {0}
d0020038:	eb000021 	bl	d00200c4 <sdram_asm_init>
d002003c:	e24f0034 	sub	r0, pc, #52	; 0x34
d0020040:	e59f1050 	ldr	r1, [pc, #80]	; d0020098 <run_on_dram+0x18>
d0020044:	e59f2050 	ldr	r2, [pc, #80]	; d002009c <run_on_dram+0x1c>
d0020048:	e1500001 	cmp	r0, r1
d002004c:	0a000003 	beq	d0020060 <clean_bss>

d0020050 <copy_loop>:
d0020050:	e4903004 	ldr	r3, [r0], #4
d0020054:	e4813004 	str	r3, [r1], #4
d0020058:	e1510002 	cmp	r1, r2
d002005c:	1afffffb 	bne	d0020050 <copy_loop>

d0020060 <clean_bss>:
d0020060:	e59f0034 	ldr	r0, [pc, #52]	; d002009c <run_on_dram+0x1c>
d0020064:	e59f1034 	ldr	r1, [pc, #52]	; d00200a0 <run_on_dram+0x20>
d0020068:	e1500001 	cmp	r0, r1
d002006c:	0a000003 	beq	d0020080 <run_on_dram>
d0020070:	e3a02000 	mov	r2, #0

d0020074 <clear_loop>:
d0020074:	e4802004 	str	r2, [r0], #4
d0020078:	e1500001 	cmp	r0, r1
d002007c:	1afffffc 	bne	d0020074 <clear_loop>

d0020080 <run_on_dram>:
d0020080:	e59ff01c 	ldr	pc, [pc, #28]	; d00200a4 <run_on_dram+0x24>
d0020084:	eafffffe 	b	d0020084 <run_on_dram+0x4>
d0020088:	e2700000 	rsbs	r0, r0, #0
d002008c:	e010e81c 	ands	lr, r0, ip, lsl r8
d0020090:	00000301 	andeq	r0, r0, r1, lsl #6
d0020094:	d0037d80 	andle	r7, r3, r0, lsl #27
d0020098:	d0020010 	andle	r0, r2, r0, lsl r0
d002009c:	d00355d0 	ldrdle	r5, [r3], -r0
d00200a0:	d00355d0 	ldrdle	r5, [r3], -r0
d00200a4:	d0021da4 	andle	r1, r2, r4, lsr #27
d00200a8:	00001a41 	andeq	r1, r0, r1, asr #20
d00200ac:	61656100 	cmnvs	r5, r0, lsl #2
d00200b0:	01006962 	tsteq	r0, r2, ror #18
d00200b4:	00000010 	andeq	r0, r0, r0, lsl r0
d00200b8:	45543505 	ldrbmi	r3, [r4, #-1285]	; 0x505
d00200bc:	08040600 	stmdaeq	r4, {r9, sl}
d00200c0:	00010901 	andeq	r0, r1, r1, lsl #18

d00200c4 <sdram_asm_init>:
d00200c4:	e59f037c 	ldr	r0, [pc, #892]	; d0020448 <find_lock_val1+0x150>
d00200c8:	e3a01000 	mov	r1, #0
d00200cc:	e5801000 	str	r1, [r0]
d00200d0:	e59f0374 	ldr	r0, [pc, #884]	; d002044c <find_lock_val1+0x154>
d00200d4:	e59f1374 	ldr	r1, [pc, #884]	; d0020450 <find_lock_val1+0x158>
d00200d8:	e58013cc 	str	r1, [r0, #972]	; 0x3cc
d00200dc:	e59f136c 	ldr	r1, [pc, #876]	; d0020450 <find_lock_val1+0x158>
d00200e0:	e58013ec 	str	r1, [r0, #1004]	; 0x3ec
d00200e4:	e59f1364 	ldr	r1, [pc, #868]	; d0020450 <find_lock_val1+0x158>
d00200e8:	e580140c 	str	r1, [r0, #1036]	; 0x40c
d00200ec:	e59f135c 	ldr	r1, [pc, #860]	; d0020450 <find_lock_val1+0x158>
d00200f0:	e580142c 	str	r1, [r0, #1068]	; 0x42c
d00200f4:	e59f1354 	ldr	r1, [pc, #852]	; d0020450 <find_lock_val1+0x158>
d00200f8:	e580144c 	str	r1, [r0, #1100]	; 0x44c
d00200fc:	e59f134c 	ldr	r1, [pc, #844]	; d0020450 <find_lock_val1+0x158>
d0020100:	e580146c 	str	r1, [r0, #1132]	; 0x46c
d0020104:	e59f1344 	ldr	r1, [pc, #836]	; d0020450 <find_lock_val1+0x158>
d0020108:	e580148c 	str	r1, [r0, #1164]	; 0x48c
d002010c:	e59f133c 	ldr	r1, [pc, #828]	; d0020450 <find_lock_val1+0x158>
d0020110:	e58014ac 	str	r1, [r0, #1196]	; 0x4ac
d0020114:	e59f1338 	ldr	r1, [pc, #824]	; d0020454 <find_lock_val1+0x15c>
d0020118:	e58014cc 	str	r1, [r0, #1228]	; 0x4cc
d002011c:	e59f0328 	ldr	r0, [pc, #808]	; d002044c <find_lock_val1+0x154>
d0020120:	e59f1328 	ldr	r1, [pc, #808]	; d0020450 <find_lock_val1+0x158>
d0020124:	e58014ec 	str	r1, [r0, #1260]	; 0x4ec
d0020128:	e59f1320 	ldr	r1, [pc, #800]	; d0020450 <find_lock_val1+0x158>
d002012c:	e580150c 	str	r1, [r0, #1292]	; 0x50c
d0020130:	e59f1318 	ldr	r1, [pc, #792]	; d0020450 <find_lock_val1+0x158>
d0020134:	e580152c 	str	r1, [r0, #1324]	; 0x52c
d0020138:	e59f1310 	ldr	r1, [pc, #784]	; d0020450 <find_lock_val1+0x158>
d002013c:	e580154c 	str	r1, [r0, #1356]	; 0x54c
d0020140:	e59f1308 	ldr	r1, [pc, #776]	; d0020450 <find_lock_val1+0x158>
d0020144:	e580156c 	str	r1, [r0, #1388]	; 0x56c
d0020148:	e59f1300 	ldr	r1, [pc, #768]	; d0020450 <find_lock_val1+0x158>
d002014c:	e580158c 	str	r1, [r0, #1420]	; 0x58c
d0020150:	e59f12f8 	ldr	r1, [pc, #760]	; d0020450 <find_lock_val1+0x158>
d0020154:	e58015ac 	str	r1, [r0, #1452]	; 0x5ac
d0020158:	e59f12f0 	ldr	r1, [pc, #752]	; d0020450 <find_lock_val1+0x158>
d002015c:	e58015cc 	str	r1, [r0, #1484]	; 0x5cc
d0020160:	e59f12ec 	ldr	r1, [pc, #748]	; d0020454 <find_lock_val1+0x15c>
d0020164:	e58015ec 	str	r1, [r0, #1516]	; 0x5ec
d0020168:	e3a0020f 	mov	r0, #-268435456	; 0xf0000000
d002016c:	e59f12e4 	ldr	r1, [pc, #740]	; d0020458 <find_lock_val1+0x160>
d0020170:	e5801018 	str	r1, [r0, #24]
d0020174:	e3a01086 	mov	r1, #134	; 0x86
d0020178:	e580101c 	str	r1, [r0, #28]
d002017c:	e59f12d8 	ldr	r1, [pc, #728]	; d002045c <find_lock_val1+0x164>
d0020180:	e5801018 	str	r1, [r0, #24]
d0020184:	e59f12d4 	ldr	r1, [pc, #724]	; d0020460 <find_lock_val1+0x168>
d0020188:	e5801018 	str	r1, [r0, #24]

d002018c <find_lock_val>:
d002018c:	e5901040 	ldr	r1, [r0, #64]	; 0x40
d0020190:	e2012007 	and	r2, r1, #7
d0020194:	e3520007 	cmp	r2, #7
d0020198:	1afffffb 	bne	d002018c <find_lock_val>
d002019c:	e2011dff 	and	r1, r1, #16320	; 0x3fc0
d00201a0:	e1a02901 	lsl	r2, r1, #18
d00201a4:	e3822601 	orr	r2, r2, #1048576	; 0x100000
d00201a8:	e3822a01 	orr	r2, r2, #4096	; 0x1000
d00201ac:	e3821003 	orr	r1, r2, #3
d00201b0:	e5801018 	str	r1, [r0, #24]
d00201b4:	e59f12a8 	ldr	r1, [pc, #680]	; d0020464 <find_lock_val1+0x16c>
d00201b8:	e5801000 	str	r1, [r0]
d00201bc:	e59f12a4 	ldr	r1, [pc, #676]	; d0020468 <find_lock_val1+0x170>
d00201c0:	e5801004 	str	r1, [r0, #4]
d00201c4:	e59f12a0 	ldr	r1, [pc, #672]	; d002046c <find_lock_val1+0x174>
d00201c8:	e5801008 	str	r1, [r0, #8]
d00201cc:	e59f129c 	ldr	r1, [pc, #668]	; d0020470 <find_lock_val1+0x178>
d00201d0:	e580100c 	str	r1, [r0, #12]
d00201d4:	e3a014ff 	mov	r1, #-16777216	; 0xff000000
d00201d8:	e5801014 	str	r1, [r0, #20]
d00201dc:	e59f1290 	ldr	r1, [pc, #656]	; d0020474 <find_lock_val1+0x17c>
d00201e0:	e5801030 	str	r1, [r0, #48]	; 0x30
d00201e4:	e59f128c 	ldr	r1, [pc, #652]	; d0020478 <find_lock_val1+0x180>
d00201e8:	e5801034 	str	r1, [r0, #52]	; 0x34
d00201ec:	e59f1288 	ldr	r1, [pc, #648]	; d002047c <find_lock_val1+0x184>
d00201f0:	e5801038 	str	r1, [r0, #56]	; 0x38
d00201f4:	e59f1284 	ldr	r1, [pc, #644]	; d0020480 <find_lock_val1+0x188>
d00201f8:	e580103c 	str	r1, [r0, #60]	; 0x3c
d00201fc:	e3a01407 	mov	r1, #117440512	; 0x7000000
d0020200:	e5801010 	str	r1, [r0, #16]
d0020204:	e3a01401 	mov	r1, #16777216	; 0x1000000
d0020208:	e5801010 	str	r1, [r0, #16]
d002020c:	e3a01802 	mov	r1, #131072	; 0x20000
d0020210:	e5801010 	str	r1, [r0, #16]
d0020214:	e3a01803 	mov	r1, #196608	; 0x30000
d0020218:	e5801010 	str	r1, [r0, #16]
d002021c:	e3a01b41 	mov	r1, #66560	; 0x10400
d0020220:	e5801010 	str	r1, [r0, #16]
d0020224:	e59f1258 	ldr	r1, [pc, #600]	; d0020484 <find_lock_val1+0x18c>
d0020228:	e5801010 	str	r1, [r0, #16]
d002022c:	e3a01401 	mov	r1, #16777216	; 0x1000000
d0020230:	e5801010 	str	r1, [r0, #16]
d0020234:	e3a01405 	mov	r1, #83886080	; 0x5000000
d0020238:	e5801010 	str	r1, [r0, #16]
d002023c:	e3a01405 	mov	r1, #83886080	; 0x5000000
d0020240:	e5801010 	str	r1, [r0, #16]
d0020244:	e59f123c 	ldr	r1, [pc, #572]	; d0020488 <find_lock_val1+0x190>
d0020248:	e5801010 	str	r1, [r0, #16]
d002024c:	e59f1238 	ldr	r1, [pc, #568]	; d002048c <find_lock_val1+0x194>
d0020250:	e5801010 	str	r1, [r0, #16]
d0020254:	e3a01b41 	mov	r1, #66560	; 0x10400
d0020258:	e5801010 	str	r1, [r0, #16]
d002025c:	e3a01671 	mov	r1, #118489088	; 0x7100000
d0020260:	e5801010 	str	r1, [r0, #16]
d0020264:	e3a01611 	mov	r1, #17825792	; 0x1100000
d0020268:	e5801010 	str	r1, [r0, #16]
d002026c:	e3a01812 	mov	r1, #1179648	; 0x120000
d0020270:	e5801010 	str	r1, [r0, #16]
d0020274:	e3a01813 	mov	r1, #1245184	; 0x130000
d0020278:	e5801010 	str	r1, [r0, #16]
d002027c:	e59f120c 	ldr	r1, [pc, #524]	; d0020490 <find_lock_val1+0x198>
d0020280:	e5801010 	str	r1, [r0, #16]
d0020284:	e59f1208 	ldr	r1, [pc, #520]	; d0020494 <find_lock_val1+0x19c>
d0020288:	e5801010 	str	r1, [r0, #16]
d002028c:	e3a01611 	mov	r1, #17825792	; 0x1100000
d0020290:	e5801010 	str	r1, [r0, #16]
d0020294:	e3a01651 	mov	r1, #84934656	; 0x5100000
d0020298:	e5801010 	str	r1, [r0, #16]
d002029c:	e3a01651 	mov	r1, #84934656	; 0x5100000
d00202a0:	e5801010 	str	r1, [r0, #16]
d00202a4:	e59f11ec 	ldr	r1, [pc, #492]	; d0020498 <find_lock_val1+0x1a0>
d00202a8:	e5801010 	str	r1, [r0, #16]
d00202ac:	e59f11e8 	ldr	r1, [pc, #488]	; d002049c <find_lock_val1+0x1a4>
d00202b0:	e5801010 	str	r1, [r0, #16]
d00202b4:	e59f11d4 	ldr	r1, [pc, #468]	; d0020490 <find_lock_val1+0x198>
d00202b8:	e5801010 	str	r1, [r0, #16]
d00202bc:	e59f11dc 	ldr	r1, [pc, #476]	; d00204a0 <find_lock_val1+0x1a8>
d00202c0:	e5801000 	str	r1, [r0]
d00202c4:	e3e01cff 	mvn	r1, #65280	; 0xff00
d00202c8:	e5801028 	str	r1, [r0, #40]	; 0x28
d00202cc:	e59f1194 	ldr	r1, [pc, #404]	; d0020468 <find_lock_val1+0x170>
d00202d0:	e5801004 	str	r1, [r0, #4]
d00202d4:	e59f01c8 	ldr	r0, [pc, #456]	; d00204a4 <find_lock_val1+0x1ac>
d00202d8:	e59f1178 	ldr	r1, [pc, #376]	; d0020458 <find_lock_val1+0x160>
d00202dc:	e5801018 	str	r1, [r0, #24]
d00202e0:	e3a01086 	mov	r1, #134	; 0x86
d00202e4:	e580101c 	str	r1, [r0, #28]
d00202e8:	e59f116c 	ldr	r1, [pc, #364]	; d002045c <find_lock_val1+0x164>
d00202ec:	e5801018 	str	r1, [r0, #24]
d00202f0:	e59f1168 	ldr	r1, [pc, #360]	; d0020460 <find_lock_val1+0x168>
d00202f4:	e5801018 	str	r1, [r0, #24]

d00202f8 <find_lock_val1>:
d00202f8:	e5901040 	ldr	r1, [r0, #64]	; 0x40
d00202fc:	e2012007 	and	r2, r1, #7
d0020300:	e3520007 	cmp	r2, #7
d0020304:	1afffffb 	bne	d00202f8 <find_lock_val1>
d0020308:	e2011dff 	and	r1, r1, #16320	; 0x3fc0
d002030c:	e1a02901 	lsl	r2, r1, #18
d0020310:	e3822601 	orr	r2, r2, #1048576	; 0x100000
d0020314:	e3822a01 	orr	r2, r2, #4096	; 0x1000
d0020318:	e3821003 	orr	r1, r2, #3
d002031c:	e5801018 	str	r1, [r0, #24]
d0020320:	e59f017c 	ldr	r0, [pc, #380]	; d00204a4 <find_lock_val1+0x1ac>
d0020324:	e59f1138 	ldr	r1, [pc, #312]	; d0020464 <find_lock_val1+0x16c>
d0020328:	e5801000 	str	r1, [r0]
d002032c:	e59f1134 	ldr	r1, [pc, #308]	; d0020468 <find_lock_val1+0x170>
d0020330:	e5801004 	str	r1, [r0, #4]
d0020334:	e59f116c 	ldr	r1, [pc, #364]	; d00204a8 <find_lock_val1+0x1b0>
d0020338:	e5801008 	str	r1, [r0, #8]
d002033c:	e59f1168 	ldr	r1, [pc, #360]	; d00204ac <find_lock_val1+0x1b4>
d0020340:	e580100c 	str	r1, [r0, #12]
d0020344:	e3a014ff 	mov	r1, #-16777216	; 0xff000000
d0020348:	e5801014 	str	r1, [r0, #20]
d002034c:	e59f1120 	ldr	r1, [pc, #288]	; d0020474 <find_lock_val1+0x17c>
d0020350:	e5801030 	str	r1, [r0, #48]	; 0x30
d0020354:	e59f1154 	ldr	r1, [pc, #340]	; d00204b0 <find_lock_val1+0x1b8>
d0020358:	e5801034 	str	r1, [r0, #52]	; 0x34
d002035c:	e59f1118 	ldr	r1, [pc, #280]	; d002047c <find_lock_val1+0x184>
d0020360:	e5801038 	str	r1, [r0, #56]	; 0x38
d0020364:	e59f1148 	ldr	r1, [pc, #328]	; d00204b4 <find_lock_val1+0x1bc>
d0020368:	e580103c 	str	r1, [r0, #60]	; 0x3c
d002036c:	e3a01407 	mov	r1, #117440512	; 0x7000000
d0020370:	e5801010 	str	r1, [r0, #16]
d0020374:	e3a01401 	mov	r1, #16777216	; 0x1000000
d0020378:	e5801010 	str	r1, [r0, #16]
d002037c:	e3a01802 	mov	r1, #131072	; 0x20000
d0020380:	e5801010 	str	r1, [r0, #16]
d0020384:	e3a01803 	mov	r1, #196608	; 0x30000
d0020388:	e5801010 	str	r1, [r0, #16]
d002038c:	e3a01b41 	mov	r1, #66560	; 0x10400
d0020390:	e5801010 	str	r1, [r0, #16]
d0020394:	e59f10e8 	ldr	r1, [pc, #232]	; d0020484 <find_lock_val1+0x18c>
d0020398:	e5801010 	str	r1, [r0, #16]
d002039c:	e3a01401 	mov	r1, #16777216	; 0x1000000
d00203a0:	e5801010 	str	r1, [r0, #16]
d00203a4:	e3a01405 	mov	r1, #83886080	; 0x5000000
d00203a8:	e5801010 	str	r1, [r0, #16]
d00203ac:	e3a01405 	mov	r1, #83886080	; 0x5000000
d00203b0:	e5801010 	str	r1, [r0, #16]
d00203b4:	e59f10cc 	ldr	r1, [pc, #204]	; d0020488 <find_lock_val1+0x190>
d00203b8:	e5801010 	str	r1, [r0, #16]
d00203bc:	e59f10c8 	ldr	r1, [pc, #200]	; d002048c <find_lock_val1+0x194>
d00203c0:	e5801010 	str	r1, [r0, #16]
d00203c4:	e3a01b41 	mov	r1, #66560	; 0x10400
d00203c8:	e5801010 	str	r1, [r0, #16]
d00203cc:	e3a01671 	mov	r1, #118489088	; 0x7100000
d00203d0:	e5801010 	str	r1, [r0, #16]
d00203d4:	e3a01611 	mov	r1, #17825792	; 0x1100000
d00203d8:	e5801010 	str	r1, [r0, #16]
d00203dc:	e3a01812 	mov	r1, #1179648	; 0x120000
d00203e0:	e5801010 	str	r1, [r0, #16]
d00203e4:	e3a01813 	mov	r1, #1245184	; 0x130000
d00203e8:	e5801010 	str	r1, [r0, #16]
d00203ec:	e59f10c4 	ldr	r1, [pc, #196]	; d00204b8 <find_lock_val1+0x1c0>
d00203f0:	e5801010 	str	r1, [r0, #16]
d00203f4:	e59f1098 	ldr	r1, [pc, #152]	; d0020494 <find_lock_val1+0x19c>
d00203f8:	e5801010 	str	r1, [r0, #16]
d00203fc:	e3a01611 	mov	r1, #17825792	; 0x1100000
d0020400:	e5801010 	str	r1, [r0, #16]
d0020404:	e3a01651 	mov	r1, #84934656	; 0x5100000
d0020408:	e5801010 	str	r1, [r0, #16]
d002040c:	e3a01651 	mov	r1, #84934656	; 0x5100000
d0020410:	e5801010 	str	r1, [r0, #16]
d0020414:	e59f107c 	ldr	r1, [pc, #124]	; d0020498 <find_lock_val1+0x1a0>
d0020418:	e5801010 	str	r1, [r0, #16]
d002041c:	e59f1078 	ldr	r1, [pc, #120]	; d002049c <find_lock_val1+0x1a4>
d0020420:	e5801010 	str	r1, [r0, #16]
d0020424:	e59f1064 	ldr	r1, [pc, #100]	; d0020490 <find_lock_val1+0x198>
d0020428:	e5801010 	str	r1, [r0, #16]
d002042c:	e59f106c 	ldr	r1, [pc, #108]	; d00204a0 <find_lock_val1+0x1a8>
d0020430:	e5801000 	str	r1, [r0]
d0020434:	e3e01cff 	mvn	r1, #65280	; 0xff00
d0020438:	e5801028 	str	r1, [r0, #40]	; 0x28
d002043c:	e59f1024 	ldr	r1, [pc, #36]	; d0020468 <find_lock_val1+0x170>
d0020440:	e5801004 	str	r1, [r0, #4]
d0020444:	e1a0f00e 	mov	pc, lr
d0020448:	f1e00000 	undefined instruction 0xf1e00000
d002044c:	e0200000 	eor	r0, r0, r0
d0020450:	0000aaaa 	andeq	sl, r0, sl, lsr #21
d0020454:	00002aaa 	andeq	r2, r0, sl, lsr #21
d0020458:	00101000 	andseq	r1, r0, r0
d002045c:	00101002 	andseq	r1, r0, r2
d0020460:	00101003 	andseq	r1, r0, r3
d0020464:	0fff2010 	svceq	0x00ff2010
d0020468:	00202400 	eoreq	r2, r0, r0, lsl #8
d002046c:	20f01323 	rscscs	r1, r0, r3, lsr #6
d0020470:	30f00312 	rscscc	r0, r0, r2, lsl r3
d0020474:	00000618 	andeq	r0, r0, r8, lsl r6
d0020478:	28233287 	stmdacs	r3!, {r0, r1, r2, r7, r9, ip, sp}
d002047c:	23240304 	teqcs	r4, #268435456	; 0x10000000
d0020480:	09c80232 	stmibeq	r8, {r1, r4, r5, r9}^
d0020484:	00000542 	andeq	r0, r0, r2, asr #10
d0020488:	00000442 	andeq	r0, r0, r2, asr #8
d002048c:	00010780 	andeq	r0, r1, r0, lsl #15
d0020490:	00110400 	andseq	r0, r1, r0, lsl #8
d0020494:	00100542 	andseq	r0, r0, r2, asr #10
d0020498:	00100442 	andseq	r0, r0, r2, asr #8
d002049c:	00110780 	andseq	r0, r1, r0, lsl #15
d00204a0:	0ff02030 	svceq	0x00f02030
d00204a4:	f1400000 	undefined instruction 0xf1400000
d00204a8:	40f01323 	rscsmi	r1, r0, r3, lsr #6
d00204ac:	60e00312 	rscvs	r0, r0, r2, lsl r3
d00204b0:	28233289 	stmdacs	r3!, {r0, r3, r7, r9, ip, sp}
d00204b4:	08280232 	stmdaeq	r8!, {r1, r4, r5, r9}
d00204b8:	00110440 	andseq	r0, r1, r0, asr #8
d00204bc:	00001a41 	andeq	r1, r0, r1, asr #20
d00204c0:	61656100 	cmnvs	r5, r0, lsl #2
d00204c4:	01006962 	tsteq	r0, r2, ror #18
d00204c8:	00000010 	andeq	r0, r0, r0, lsl r0
d00204cc:	45543505 	ldrbmi	r3, [r4, #-1285]	; 0x505
d00204d0:	08040600 	stmdaeq	r4, {r9, sl}
d00204d4:	00010901 	andeq	r0, r1, r1, lsl #18

d00204d8 <led1>:
d00204d8:	e52db004 	push	{fp}		; (str fp, [sp, #-4]!)
d00204dc:	e28db000 	add	fp, sp, #0
d00204e0:	e59f301c 	ldr	r3, [pc, #28]	; d0020504 <led1+0x2c>
d00204e4:	e59f201c 	ldr	r2, [pc, #28]	; d0020508 <led1+0x30>
d00204e8:	e5832000 	str	r2, [r3]
d00204ec:	e59f3018 	ldr	r3, [pc, #24]	; d002050c <led1+0x34>
d00204f0:	e3a02030 	mov	r2, #48	; 0x30
d00204f4:	e5832000 	str	r2, [r3]
d00204f8:	e28bd000 	add	sp, fp, #0
d00204fc:	e8bd0800 	pop	{fp}
d0020500:	e12fff1e 	bx	lr
d0020504:	e0200240 	eor	r0, r0, r0, asr #4
d0020508:	11111111 	tstne	r1, r1, lsl r1
d002050c:	e0200244 	eor	r0, r0, r4, asr #4

d0020510 <led2>:
d0020510:	e52db004 	push	{fp}		; (str fp, [sp, #-4]!)
d0020514:	e28db000 	add	fp, sp, #0
d0020518:	e59f301c 	ldr	r3, [pc, #28]	; d002053c <led2+0x2c>
d002051c:	e59f201c 	ldr	r2, [pc, #28]	; d0020540 <led2+0x30>
d0020520:	e5832000 	str	r2, [r3]
d0020524:	e59f3018 	ldr	r3, [pc, #24]	; d0020544 <led2+0x34>
d0020528:	e3a02020 	mov	r2, #32
d002052c:	e5832000 	str	r2, [r3]
d0020530:	e28bd000 	add	sp, fp, #0
d0020534:	e8bd0800 	pop	{fp}
d0020538:	e12fff1e 	bx	lr
d002053c:	e0200240 	eor	r0, r0, r0, asr #4
d0020540:	11111111 	tstne	r1, r1, lsl r1
d0020544:	e0200244 	eor	r0, r0, r4, asr #4

d0020548 <led3>:
d0020548:	e52db004 	push	{fp}		; (str fp, [sp, #-4]!)
d002054c:	e28db000 	add	fp, sp, #0
d0020550:	e59f301c 	ldr	r3, [pc, #28]	; d0020574 <led3+0x2c>
d0020554:	e59f201c 	ldr	r2, [pc, #28]	; d0020578 <led3+0x30>
d0020558:	e5832000 	str	r2, [r3]
d002055c:	e59f3018 	ldr	r3, [pc, #24]	; d002057c <led3+0x34>
d0020560:	e3a02000 	mov	r2, #0
d0020564:	e5832000 	str	r2, [r3]
d0020568:	e28bd000 	add	sp, fp, #0
d002056c:	e8bd0800 	pop	{fp}
d0020570:	e12fff1e 	bx	lr
d0020574:	e0200240 	eor	r0, r0, r0, asr #4
d0020578:	11111111 	tstne	r1, r1, lsl r1
d002057c:	e0200244 	eor	r0, r0, r4, asr #4

d0020580 <led_blink>:
d0020580:	e92d4800 	push	{fp, lr}
d0020584:	e28db004 	add	fp, sp, #4
d0020588:	e59f3028 	ldr	r3, [pc, #40]	; d00205b8 <led_blink+0x38>
d002058c:	e59f2028 	ldr	r2, [pc, #40]	; d00205bc <led_blink+0x3c>
d0020590:	e5832000 	str	r2, [r3]
d0020594:	e59f3024 	ldr	r3, [pc, #36]	; d00205c0 <led_blink+0x40>
d0020598:	e3a02000 	mov	r2, #0
d002059c:	e5832000 	str	r2, [r3]
d00205a0:	eb000007 	bl	d00205c4 <delay>
d00205a4:	e59f3014 	ldr	r3, [pc, #20]	; d00205c0 <led_blink+0x40>
d00205a8:	e3a02038 	mov	r2, #56	; 0x38
d00205ac:	e5832000 	str	r2, [r3]
d00205b0:	eb000003 	bl	d00205c4 <delay>
d00205b4:	eafffff6 	b	d0020594 <led_blink+0x14>
d00205b8:	e0200240 	eor	r0, r0, r0, asr #4
d00205bc:	11111111 	tstne	r1, r1, lsl r1
d00205c0:	e0200244 	eor	r0, r0, r4, asr #4

d00205c4 <delay>:
d00205c4:	e52db004 	push	{fp}		; (str fp, [sp, #-4]!)
d00205c8:	e28db000 	add	fp, sp, #0
d00205cc:	e24dd00c 	sub	sp, sp, #12
d00205d0:	e59f3030 	ldr	r3, [pc, #48]	; d0020608 <delay+0x44>
d00205d4:	e50b3008 	str	r3, [fp, #-8]
d00205d8:	e51b3008 	ldr	r3, [fp, #-8]
d00205dc:	e3530000 	cmp	r3, #0
d00205e0:	03a02000 	moveq	r2, #0
d00205e4:	13a02001 	movne	r2, #1
d00205e8:	e20220ff 	and	r2, r2, #255	; 0xff
d00205ec:	e2433001 	sub	r3, r3, #1
d00205f0:	e50b3008 	str	r3, [fp, #-8]
d00205f4:	e3520000 	cmp	r2, #0
d00205f8:	1afffff6 	bne	d00205d8 <delay+0x14>
d00205fc:	e28bd000 	add	sp, fp, #0
d0020600:	e8bd0800 	pop	{fp}
d0020604:	e12fff1e 	bx	lr
d0020608:	000dbba0 	andeq	fp, sp, r0, lsr #23

d002060c <raise>:
d002060c:	e52db004 	push	{fp}		; (str fp, [sp, #-4]!)
d0020610:	e28db000 	add	fp, sp, #0
d0020614:	e24dd00c 	sub	sp, sp, #12
d0020618:	e50b0008 	str	r0, [fp, #-8]
d002061c:	e3a03000 	mov	r3, #0
d0020620:	e1a00003 	mov	r0, r3
d0020624:	e28bd000 	add	sp, fp, #0
d0020628:	e8bd0800 	pop	{fp}
d002062c:	e12fff1e 	bx	lr

d0020630 <lcd_init>:
d0020630:	e52db004 	push	{fp}		; (str fp, [sp, #-4]!)
d0020634:	e28db000 	add	fp, sp, #0
d0020638:	e59f317c 	ldr	r3, [pc, #380]	; d00207bc <lcd_init+0x18c>
d002063c:	e59f217c 	ldr	r2, [pc, #380]	; d00207c0 <lcd_init+0x190>
d0020640:	e5832000 	str	r2, [r3]
d0020644:	e59f3178 	ldr	r3, [pc, #376]	; d00207c4 <lcd_init+0x194>
d0020648:	e59f2170 	ldr	r2, [pc, #368]	; d00207c0 <lcd_init+0x190>
d002064c:	e5832000 	str	r2, [r3]
d0020650:	e59f3170 	ldr	r3, [pc, #368]	; d00207c8 <lcd_init+0x198>
d0020654:	e59f2164 	ldr	r2, [pc, #356]	; d00207c0 <lcd_init+0x190>
d0020658:	e5832000 	str	r2, [r3]
d002065c:	e59f3168 	ldr	r3, [pc, #360]	; d00207cc <lcd_init+0x19c>
d0020660:	e59f2158 	ldr	r2, [pc, #344]	; d00207c0 <lcd_init+0x190>
d0020664:	e5832000 	str	r2, [r3]
d0020668:	e59f3160 	ldr	r3, [pc, #352]	; d00207d0 <lcd_init+0x1a0>
d002066c:	e59f215c 	ldr	r2, [pc, #348]	; d00207d0 <lcd_init+0x1a0>
d0020670:	e5922000 	ldr	r2, [r2]
d0020674:	e3c2200f 	bic	r2, r2, #15
d0020678:	e5832000 	str	r2, [r3]
d002067c:	e59f314c 	ldr	r3, [pc, #332]	; d00207d0 <lcd_init+0x1a0>
d0020680:	e59f2148 	ldr	r2, [pc, #328]	; d00207d0 <lcd_init+0x1a0>
d0020684:	e5922000 	ldr	r2, [r2]
d0020688:	e3822001 	orr	r2, r2, #1
d002068c:	e5832000 	str	r2, [r3]
d0020690:	e59f313c 	ldr	r3, [pc, #316]	; d00207d4 <lcd_init+0x1a4>
d0020694:	e59f2138 	ldr	r2, [pc, #312]	; d00207d4 <lcd_init+0x1a4>
d0020698:	e5922000 	ldr	r2, [r2]
d002069c:	e3c22001 	bic	r2, r2, #1
d00206a0:	e5832000 	str	r2, [r3]
d00206a4:	e59f312c 	ldr	r3, [pc, #300]	; d00207d8 <lcd_init+0x1a8>
d00206a8:	e3a02002 	mov	r2, #2
d00206ac:	e5832000 	str	r2, [r3]
d00206b0:	e3a0233e 	mov	r2, #-134217728	; 0xf8000000
d00206b4:	e3a0333e 	mov	r3, #-134217728	; 0xf8000000
d00206b8:	e5931000 	ldr	r1, [r3]
d00206bc:	e59f3118 	ldr	r3, [pc, #280]	; d00207dc <lcd_init+0x1ac>
d00206c0:	e0013003 	and	r3, r1, r3
d00206c4:	e5823000 	str	r3, [r2]
d00206c8:	e3a0333e 	mov	r3, #-134217728	; 0xf8000000
d00206cc:	e3a0233e 	mov	r2, #-134217728	; 0xf8000000
d00206d0:	e5922000 	ldr	r2, [r2]
d00206d4:	e3822003 	orr	r2, r2, #3
d00206d8:	e5832000 	str	r2, [r3]
d00206dc:	e3a0333e 	mov	r3, #-134217728	; 0xf8000000
d00206e0:	e3a0233e 	mov	r2, #-134217728	; 0xf8000000
d00206e4:	e5922000 	ldr	r2, [r2]
d00206e8:	e3822e11 	orr	r2, r2, #272	; 0x110
d00206ec:	e5832000 	str	r2, [r3]
d00206f0:	e59f30e8 	ldr	r3, [pc, #232]	; d00207e0 <lcd_init+0x1b0>
d00206f4:	e59f20e4 	ldr	r2, [pc, #228]	; d00207e0 <lcd_init+0x1b0>
d00206f8:	e5922000 	ldr	r2, [r2]
d00206fc:	e3822060 	orr	r2, r2, #96	; 0x60
d0020700:	e5832000 	str	r2, [r3]
d0020704:	e59f30d8 	ldr	r3, [pc, #216]	; d00207e4 <lcd_init+0x1b4>
d0020708:	e59f20d8 	ldr	r2, [pc, #216]	; d00207e8 <lcd_init+0x1b8>
d002070c:	e5832000 	str	r2, [r3]
d0020710:	e59f30d4 	ldr	r3, [pc, #212]	; d00207ec <lcd_init+0x1bc>
d0020714:	e59f20d4 	ldr	r2, [pc, #212]	; d00207f0 <lcd_init+0x1c0>
d0020718:	e5832000 	str	r2, [r3]
d002071c:	e59f30d0 	ldr	r3, [pc, #208]	; d00207f4 <lcd_init+0x1c4>
d0020720:	e59f20d0 	ldr	r2, [pc, #208]	; d00207f8 <lcd_init+0x1c8>
d0020724:	e5832000 	str	r2, [r3]
d0020728:	e59f30cc 	ldr	r3, [pc, #204]	; d00207fc <lcd_init+0x1cc>
d002072c:	e59f20c8 	ldr	r2, [pc, #200]	; d00207fc <lcd_init+0x1cc>
d0020730:	e5922000 	ldr	r2, [r2]
d0020734:	e3822001 	orr	r2, r2, #1
d0020738:	e5832000 	str	r2, [r3]
d002073c:	e59f30b8 	ldr	r3, [pc, #184]	; d00207fc <lcd_init+0x1cc>
d0020740:	e59f20b4 	ldr	r2, [pc, #180]	; d00207fc <lcd_init+0x1cc>
d0020744:	e5922000 	ldr	r2, [r2]
d0020748:	e3c2203c 	bic	r2, r2, #60	; 0x3c
d002074c:	e5832000 	str	r2, [r3]
d0020750:	e59f20a4 	ldr	r2, [pc, #164]	; d00207fc <lcd_init+0x1cc>
d0020754:	e59f30a0 	ldr	r3, [pc, #160]	; d00207fc <lcd_init+0x1cc>
d0020758:	e5933000 	ldr	r3, [r3]
d002075c:	e3833902 	orr	r3, r3, #32768	; 0x8000
d0020760:	e383302c 	orr	r3, r3, #44	; 0x2c
d0020764:	e5823000 	str	r3, [r2]
d0020768:	e59f3090 	ldr	r3, [pc, #144]	; d0020800 <lcd_init+0x1d0>
d002076c:	e3a02000 	mov	r2, #0
d0020770:	e5832000 	str	r2, [r3]
d0020774:	e59f3088 	ldr	r3, [pc, #136]	; d0020804 <lcd_init+0x1d4>
d0020778:	e59f2088 	ldr	r2, [pc, #136]	; d0020808 <lcd_init+0x1d8>
d002077c:	e5832000 	str	r2, [r3]
d0020780:	e59f3084 	ldr	r3, [pc, #132]	; d002080c <lcd_init+0x1dc>
d0020784:	e3a02a96 	mov	r2, #614400	; 0x96000
d0020788:	e5832000 	str	r2, [r3]
d002078c:	e59f307c 	ldr	r3, [pc, #124]	; d0020810 <lcd_init+0x1e0>
d0020790:	e3a02423 	mov	r2, #587202560	; 0x23000000
d0020794:	e5832000 	str	r2, [r3]
d0020798:	e59f3074 	ldr	r3, [pc, #116]	; d0020814 <lcd_init+0x1e4>
d002079c:	e3a02996 	mov	r2, #2457600	; 0x258000
d00207a0:	e5832000 	str	r2, [r3]
d00207a4:	e59f306c 	ldr	r3, [pc, #108]	; d0020818 <lcd_init+0x1e8>
d00207a8:	e3a02001 	mov	r2, #1
d00207ac:	e5832000 	str	r2, [r3]
d00207b0:	e28bd000 	add	sp, fp, #0
d00207b4:	e8bd0800 	pop	{fp}
d00207b8:	e12fff1e 	bx	lr
d00207bc:	e0200120 	eor	r0, r0, r0, lsr #2
d00207c0:	22222222 	eorcs	r2, r2, #536870914	; 0x20000002
d00207c4:	e0200140 	eor	r0, r0, r0, asr #2
d00207c8:	e0200160 	eor	r0, r0, r0, ror #2
d00207cc:	e0200180 	eor	r0, r0, r0, lsl #3
d00207d0:	e02000a0 	eor	r0, r0, r0, lsr #1
d00207d4:	e02000a4 	eor	r0, r0, r4, lsr #1
d00207d8:	e0107008 	ands	r7, r0, r8
d00207dc:	f3fbfffb 	undefined instruction 0xf3fbfffb
d00207e0:	f8000004 	undefined instruction 0xf8000004
d00207e4:	f8000010 	undefined instruction 0xf8000010
d00207e8:	00091d14 	andeq	r1, r9, r4, lsl sp
d00207ec:	f8000014 	undefined instruction 0xf8000014
d00207f0:	0009ef28 	andeq	lr, r9, r8, lsr #30
d00207f4:	f8000018 	undefined instruction 0xf8000018
d00207f8:	0012bbff 	ldrsheq	fp, [r2], -pc
d00207fc:	f8000020 	undefined instruction 0xf8000020
d0020800:	f8000040 	undefined instruction 0xf8000040
d0020804:	f8000044 	undefined instruction 0xf8000044
d0020808:	001ffa57 	andseq	pc, pc, r7, asr sl
d002080c:	f8000048 	undefined instruction 0xf8000048
d0020810:	f80000a0 	undefined instruction 0xf80000a0
d0020814:	f80000d0 	undefined instruction 0xf80000d0
d0020818:	f8000034 	undefined instruction 0xf8000034

d002081c <lcd_draw_pixel>:
d002081c:	e52db004 	push	{fp}		; (str fp, [sp, #-4]!)
d0020820:	e28db000 	add	fp, sp, #0
d0020824:	e24dd01c 	sub	sp, sp, #28
d0020828:	e50b0010 	str	r0, [fp, #-16]
d002082c:	e50b1014 	str	r1, [fp, #-20]
d0020830:	e50b2018 	str	r2, [fp, #-24]
d0020834:	e3a03423 	mov	r3, #587202560	; 0x23000000
d0020838:	e50b3008 	str	r3, [fp, #-8]
d002083c:	e51b3014 	ldr	r3, [fp, #-20]
d0020840:	e1a03503 	lsl	r3, r3, #10
d0020844:	e1a02003 	mov	r2, r3
d0020848:	e51b3010 	ldr	r3, [fp, #-16]
d002084c:	e0823003 	add	r3, r2, r3
d0020850:	e1a02103 	lsl	r2, r3, #2
d0020854:	e51b3008 	ldr	r3, [fp, #-8]
d0020858:	e0823003 	add	r3, r2, r3
d002085c:	e51b2018 	ldr	r2, [fp, #-24]
d0020860:	e5832000 	str	r2, [r3]
d0020864:	e28bd000 	add	sp, fp, #0
d0020868:	e8bd0800 	pop	{fp}
d002086c:	e12fff1e 	bx	lr

d0020870 <lcd_draw_background>:
d0020870:	e92d4800 	push	{fp, lr}
d0020874:	e28db004 	add	fp, sp, #4
d0020878:	e24dd010 	sub	sp, sp, #16
d002087c:	e50b0010 	str	r0, [fp, #-16]
d0020880:	e3a03000 	mov	r3, #0
d0020884:	e50b3008 	str	r3, [fp, #-8]
d0020888:	ea000013 	b	d00208dc <lcd_draw_background+0x6c>
d002088c:	e3a03000 	mov	r3, #0
d0020890:	e50b300c 	str	r3, [fp, #-12]
d0020894:	ea000009 	b	d00208c0 <lcd_draw_background+0x50>
d0020898:	e51b100c 	ldr	r1, [fp, #-12]
d002089c:	e51b2008 	ldr	r2, [fp, #-8]
d00208a0:	e51b3010 	ldr	r3, [fp, #-16]
d00208a4:	e1a00001 	mov	r0, r1
d00208a8:	e1a01002 	mov	r1, r2
d00208ac:	e1a02003 	mov	r2, r3
d00208b0:	ebffffd9 	bl	d002081c <lcd_draw_pixel>
d00208b4:	e51b300c 	ldr	r3, [fp, #-12]
d00208b8:	e2833001 	add	r3, r3, #1
d00208bc:	e50b300c 	str	r3, [fp, #-12]
d00208c0:	e51b200c 	ldr	r2, [fp, #-12]
d00208c4:	e59f3028 	ldr	r3, [pc, #40]	; d00208f4 <lcd_draw_background+0x84>
d00208c8:	e1520003 	cmp	r2, r3
d00208cc:	9afffff1 	bls	d0020898 <lcd_draw_background+0x28>
d00208d0:	e51b3008 	ldr	r3, [fp, #-8]
d00208d4:	e2833001 	add	r3, r3, #1
d00208d8:	e50b3008 	str	r3, [fp, #-8]
d00208dc:	e51b2008 	ldr	r2, [fp, #-8]
d00208e0:	e59f3010 	ldr	r3, [pc, #16]	; d00208f8 <lcd_draw_background+0x88>
d00208e4:	e1520003 	cmp	r2, r3
d00208e8:	9affffe7 	bls	d002088c <lcd_draw_background+0x1c>
d00208ec:	e24bd004 	sub	sp, fp, #4
d00208f0:	e8bd8800 	pop	{fp, pc}
d00208f4:	000003ff 	strdeq	r0, [r0], -pc
d00208f8:	00000257 	andeq	r0, r0, r7, asr r2

d00208fc <lcd_draw_hline>:
d00208fc:	e92d4800 	push	{fp, lr}
d0020900:	e28db004 	add	fp, sp, #4
d0020904:	e24dd018 	sub	sp, sp, #24
d0020908:	e50b0010 	str	r0, [fp, #-16]
d002090c:	e50b1014 	str	r1, [fp, #-20]
d0020910:	e50b2018 	str	r2, [fp, #-24]
d0020914:	e50b301c 	str	r3, [fp, #-28]
d0020918:	e51b3010 	ldr	r3, [fp, #-16]
d002091c:	e50b3008 	str	r3, [fp, #-8]
d0020920:	ea000009 	b	d002094c <lcd_draw_hline+0x50>
d0020924:	e51b1008 	ldr	r1, [fp, #-8]
d0020928:	e51b2018 	ldr	r2, [fp, #-24]
d002092c:	e51b301c 	ldr	r3, [fp, #-28]
d0020930:	e1a00001 	mov	r0, r1
d0020934:	e1a01002 	mov	r1, r2
d0020938:	e1a02003 	mov	r2, r3
d002093c:	ebffffb6 	bl	d002081c <lcd_draw_pixel>
d0020940:	e51b3008 	ldr	r3, [fp, #-8]
d0020944:	e2833001 	add	r3, r3, #1
d0020948:	e50b3008 	str	r3, [fp, #-8]
d002094c:	e51b2008 	ldr	r2, [fp, #-8]
d0020950:	e51b3014 	ldr	r3, [fp, #-20]
d0020954:	e1520003 	cmp	r2, r3
d0020958:	3afffff1 	bcc	d0020924 <lcd_draw_hline+0x28>
d002095c:	e24bd004 	sub	sp, fp, #4
d0020960:	e8bd8800 	pop	{fp, pc}

d0020964 <glib_line>:
d0020964:	e92d4800 	push	{fp, lr}
d0020968:	e28db004 	add	fp, sp, #4
d002096c:	e24dd020 	sub	sp, sp, #32
d0020970:	e50b0018 	str	r0, [fp, #-24]
d0020974:	e50b101c 	str	r1, [fp, #-28]
d0020978:	e50b2020 	str	r2, [fp, #-32]
d002097c:	e50b3024 	str	r3, [fp, #-36]	; 0x24
d0020980:	e51b2020 	ldr	r2, [fp, #-32]
d0020984:	e51b3018 	ldr	r3, [fp, #-24]
d0020988:	e0633002 	rsb	r3, r3, r2
d002098c:	e50b3010 	str	r3, [fp, #-16]
d0020990:	e51b2024 	ldr	r2, [fp, #-36]	; 0x24
d0020994:	e51b301c 	ldr	r3, [fp, #-28]
d0020998:	e0633002 	rsb	r3, r3, r2
d002099c:	e50b300c 	str	r3, [fp, #-12]
d00209a0:	e51b3010 	ldr	r3, [fp, #-16]
d00209a4:	e3530000 	cmp	r3, #0
d00209a8:	ba0000a1 	blt	d0020c34 <glib_line+0x2d0>
d00209ac:	e51b300c 	ldr	r3, [fp, #-12]
d00209b0:	e3530000 	cmp	r3, #0
d00209b4:	ba00004d 	blt	d0020af0 <glib_line+0x18c>
d00209b8:	e51b2010 	ldr	r2, [fp, #-16]
d00209bc:	e51b300c 	ldr	r3, [fp, #-12]
d00209c0:	e1520003 	cmp	r2, r3
d00209c4:	ba000024 	blt	d0020a5c <glib_line+0xf8>
d00209c8:	e51b3010 	ldr	r3, [fp, #-16]
d00209cc:	e1a02fa3 	lsr	r2, r3, #31
d00209d0:	e0823003 	add	r3, r2, r3
d00209d4:	e1a030c3 	asr	r3, r3, #1
d00209d8:	e51b200c 	ldr	r2, [fp, #-12]
d00209dc:	e0633002 	rsb	r3, r3, r2
d00209e0:	e50b3008 	str	r3, [fp, #-8]
d00209e4:	ea000017 	b	d0020a48 <glib_line+0xe4>
d00209e8:	e51b1018 	ldr	r1, [fp, #-24]
d00209ec:	e51b201c 	ldr	r2, [fp, #-28]
d00209f0:	e59b3004 	ldr	r3, [fp, #4]
d00209f4:	e1a00001 	mov	r0, r1
d00209f8:	e1a01002 	mov	r1, r2
d00209fc:	e1a02003 	mov	r2, r3
d0020a00:	ebffff85 	bl	d002081c <lcd_draw_pixel>
d0020a04:	e51b3008 	ldr	r3, [fp, #-8]
d0020a08:	e3530000 	cmp	r3, #0
d0020a0c:	da000006 	ble	d0020a2c <glib_line+0xc8>
d0020a10:	e51b301c 	ldr	r3, [fp, #-28]
d0020a14:	e2833001 	add	r3, r3, #1
d0020a18:	e50b301c 	str	r3, [fp, #-28]
d0020a1c:	e51b2008 	ldr	r2, [fp, #-8]
d0020a20:	e51b3010 	ldr	r3, [fp, #-16]
d0020a24:	e0633002 	rsb	r3, r3, r2
d0020a28:	e50b3008 	str	r3, [fp, #-8]
d0020a2c:	e51b3018 	ldr	r3, [fp, #-24]
d0020a30:	e2833001 	add	r3, r3, #1
d0020a34:	e50b3018 	str	r3, [fp, #-24]
d0020a38:	e51b2008 	ldr	r2, [fp, #-8]
d0020a3c:	e51b300c 	ldr	r3, [fp, #-12]
d0020a40:	e0823003 	add	r3, r2, r3
d0020a44:	e50b3008 	str	r3, [fp, #-8]
d0020a48:	e51b2018 	ldr	r2, [fp, #-24]
d0020a4c:	e51b3020 	ldr	r3, [fp, #-32]
d0020a50:	e1520003 	cmp	r2, r3
d0020a54:	9affffe3 	bls	d00209e8 <glib_line+0x84>
d0020a58:	ea000119 	b	d0020ec4 <glib_line+0x560>
d0020a5c:	e51b300c 	ldr	r3, [fp, #-12]
d0020a60:	e1a02fa3 	lsr	r2, r3, #31
d0020a64:	e0823003 	add	r3, r2, r3
d0020a68:	e1a030c3 	asr	r3, r3, #1
d0020a6c:	e51b2010 	ldr	r2, [fp, #-16]
d0020a70:	e0633002 	rsb	r3, r3, r2
d0020a74:	e50b3008 	str	r3, [fp, #-8]
d0020a78:	ea000017 	b	d0020adc <glib_line+0x178>
d0020a7c:	e51b1018 	ldr	r1, [fp, #-24]
d0020a80:	e51b201c 	ldr	r2, [fp, #-28]
d0020a84:	e59b3004 	ldr	r3, [fp, #4]
d0020a88:	e1a00001 	mov	r0, r1
d0020a8c:	e1a01002 	mov	r1, r2
d0020a90:	e1a02003 	mov	r2, r3
d0020a94:	ebffff60 	bl	d002081c <lcd_draw_pixel>
d0020a98:	e51b3008 	ldr	r3, [fp, #-8]
d0020a9c:	e3530000 	cmp	r3, #0
d0020aa0:	da000006 	ble	d0020ac0 <glib_line+0x15c>
d0020aa4:	e51b3018 	ldr	r3, [fp, #-24]
d0020aa8:	e2833001 	add	r3, r3, #1
d0020aac:	e50b3018 	str	r3, [fp, #-24]
d0020ab0:	e51b2008 	ldr	r2, [fp, #-8]
d0020ab4:	e51b300c 	ldr	r3, [fp, #-12]
d0020ab8:	e0633002 	rsb	r3, r3, r2
d0020abc:	e50b3008 	str	r3, [fp, #-8]
d0020ac0:	e51b301c 	ldr	r3, [fp, #-28]
d0020ac4:	e2833001 	add	r3, r3, #1
d0020ac8:	e50b301c 	str	r3, [fp, #-28]
d0020acc:	e51b2008 	ldr	r2, [fp, #-8]
d0020ad0:	e51b3010 	ldr	r3, [fp, #-16]
d0020ad4:	e0823003 	add	r3, r2, r3
d0020ad8:	e50b3008 	str	r3, [fp, #-8]
d0020adc:	e51b201c 	ldr	r2, [fp, #-28]
d0020ae0:	e51b3024 	ldr	r3, [fp, #-36]	; 0x24
d0020ae4:	e1520003 	cmp	r2, r3
d0020ae8:	9affffe3 	bls	d0020a7c <glib_line+0x118>
d0020aec:	ea0000f4 	b	d0020ec4 <glib_line+0x560>
d0020af0:	e51b300c 	ldr	r3, [fp, #-12]
d0020af4:	e2633000 	rsb	r3, r3, #0
d0020af8:	e50b300c 	str	r3, [fp, #-12]
d0020afc:	e51b2010 	ldr	r2, [fp, #-16]
d0020b00:	e51b300c 	ldr	r3, [fp, #-12]
d0020b04:	e1520003 	cmp	r2, r3
d0020b08:	ba000024 	blt	d0020ba0 <glib_line+0x23c>
d0020b0c:	e51b3010 	ldr	r3, [fp, #-16]
d0020b10:	e1a02fa3 	lsr	r2, r3, #31
d0020b14:	e0823003 	add	r3, r2, r3
d0020b18:	e1a030c3 	asr	r3, r3, #1
d0020b1c:	e51b200c 	ldr	r2, [fp, #-12]
d0020b20:	e0633002 	rsb	r3, r3, r2
d0020b24:	e50b3008 	str	r3, [fp, #-8]
d0020b28:	ea000017 	b	d0020b8c <glib_line+0x228>
d0020b2c:	e51b1018 	ldr	r1, [fp, #-24]
d0020b30:	e51b201c 	ldr	r2, [fp, #-28]
d0020b34:	e59b3004 	ldr	r3, [fp, #4]
d0020b38:	e1a00001 	mov	r0, r1
d0020b3c:	e1a01002 	mov	r1, r2
d0020b40:	e1a02003 	mov	r2, r3
d0020b44:	ebffff34 	bl	d002081c <lcd_draw_pixel>
d0020b48:	e51b3008 	ldr	r3, [fp, #-8]
d0020b4c:	e3530000 	cmp	r3, #0
d0020b50:	da000006 	ble	d0020b70 <glib_line+0x20c>
d0020b54:	e51b301c 	ldr	r3, [fp, #-28]
d0020b58:	e2433001 	sub	r3, r3, #1
d0020b5c:	e50b301c 	str	r3, [fp, #-28]
d0020b60:	e51b2008 	ldr	r2, [fp, #-8]
d0020b64:	e51b3010 	ldr	r3, [fp, #-16]
d0020b68:	e0633002 	rsb	r3, r3, r2
d0020b6c:	e50b3008 	str	r3, [fp, #-8]
d0020b70:	e51b3018 	ldr	r3, [fp, #-24]
d0020b74:	e2833001 	add	r3, r3, #1
d0020b78:	e50b3018 	str	r3, [fp, #-24]
d0020b7c:	e51b2008 	ldr	r2, [fp, #-8]
d0020b80:	e51b300c 	ldr	r3, [fp, #-12]
d0020b84:	e0823003 	add	r3, r2, r3
d0020b88:	e50b3008 	str	r3, [fp, #-8]
d0020b8c:	e51b2018 	ldr	r2, [fp, #-24]
d0020b90:	e51b3020 	ldr	r3, [fp, #-32]
d0020b94:	e1520003 	cmp	r2, r3
d0020b98:	9affffe3 	bls	d0020b2c <glib_line+0x1c8>
d0020b9c:	ea0000c8 	b	d0020ec4 <glib_line+0x560>
d0020ba0:	e51b300c 	ldr	r3, [fp, #-12]
d0020ba4:	e1a02fa3 	lsr	r2, r3, #31
d0020ba8:	e0823003 	add	r3, r2, r3
d0020bac:	e1a030c3 	asr	r3, r3, #1
d0020bb0:	e51b2010 	ldr	r2, [fp, #-16]
d0020bb4:	e0633002 	rsb	r3, r3, r2
d0020bb8:	e50b3008 	str	r3, [fp, #-8]
d0020bbc:	ea000017 	b	d0020c20 <glib_line+0x2bc>
d0020bc0:	e51b1018 	ldr	r1, [fp, #-24]
d0020bc4:	e51b201c 	ldr	r2, [fp, #-28]
d0020bc8:	e59b3004 	ldr	r3, [fp, #4]
d0020bcc:	e1a00001 	mov	r0, r1
d0020bd0:	e1a01002 	mov	r1, r2
d0020bd4:	e1a02003 	mov	r2, r3
d0020bd8:	ebffff0f 	bl	d002081c <lcd_draw_pixel>
d0020bdc:	e51b3008 	ldr	r3, [fp, #-8]
d0020be0:	e3530000 	cmp	r3, #0
d0020be4:	da000006 	ble	d0020c04 <glib_line+0x2a0>
d0020be8:	e51b3018 	ldr	r3, [fp, #-24]
d0020bec:	e2833001 	add	r3, r3, #1
d0020bf0:	e50b3018 	str	r3, [fp, #-24]
d0020bf4:	e51b2008 	ldr	r2, [fp, #-8]
d0020bf8:	e51b300c 	ldr	r3, [fp, #-12]
d0020bfc:	e0633002 	rsb	r3, r3, r2
d0020c00:	e50b3008 	str	r3, [fp, #-8]
d0020c04:	e51b301c 	ldr	r3, [fp, #-28]
d0020c08:	e2433001 	sub	r3, r3, #1
d0020c0c:	e50b301c 	str	r3, [fp, #-28]
d0020c10:	e51b2008 	ldr	r2, [fp, #-8]
d0020c14:	e51b3010 	ldr	r3, [fp, #-16]
d0020c18:	e0823003 	add	r3, r2, r3
d0020c1c:	e50b3008 	str	r3, [fp, #-8]
d0020c20:	e51b201c 	ldr	r2, [fp, #-28]
d0020c24:	e51b3024 	ldr	r3, [fp, #-36]	; 0x24
d0020c28:	e1520003 	cmp	r2, r3
d0020c2c:	2affffe3 	bcs	d0020bc0 <glib_line+0x25c>
d0020c30:	ea0000a3 	b	d0020ec4 <glib_line+0x560>
d0020c34:	e51b3010 	ldr	r3, [fp, #-16]
d0020c38:	e2633000 	rsb	r3, r3, #0
d0020c3c:	e50b3010 	str	r3, [fp, #-16]
d0020c40:	e51b300c 	ldr	r3, [fp, #-12]
d0020c44:	e3530000 	cmp	r3, #0
d0020c48:	ba00004d 	blt	d0020d84 <glib_line+0x420>
d0020c4c:	e51b2010 	ldr	r2, [fp, #-16]
d0020c50:	e51b300c 	ldr	r3, [fp, #-12]
d0020c54:	e1520003 	cmp	r2, r3
d0020c58:	ba000024 	blt	d0020cf0 <glib_line+0x38c>
d0020c5c:	e51b3010 	ldr	r3, [fp, #-16]
d0020c60:	e1a02fa3 	lsr	r2, r3, #31
d0020c64:	e0823003 	add	r3, r2, r3
d0020c68:	e1a030c3 	asr	r3, r3, #1
d0020c6c:	e51b200c 	ldr	r2, [fp, #-12]
d0020c70:	e0633002 	rsb	r3, r3, r2
d0020c74:	e50b3008 	str	r3, [fp, #-8]
d0020c78:	ea000017 	b	d0020cdc <glib_line+0x378>
d0020c7c:	e51b1018 	ldr	r1, [fp, #-24]
d0020c80:	e51b201c 	ldr	r2, [fp, #-28]
d0020c84:	e59b3004 	ldr	r3, [fp, #4]
d0020c88:	e1a00001 	mov	r0, r1
d0020c8c:	e1a01002 	mov	r1, r2
d0020c90:	e1a02003 	mov	r2, r3
d0020c94:	ebfffee0 	bl	d002081c <lcd_draw_pixel>
d0020c98:	e51b3008 	ldr	r3, [fp, #-8]
d0020c9c:	e3530000 	cmp	r3, #0
d0020ca0:	da000006 	ble	d0020cc0 <glib_line+0x35c>
d0020ca4:	e51b301c 	ldr	r3, [fp, #-28]
d0020ca8:	e2833001 	add	r3, r3, #1
d0020cac:	e50b301c 	str	r3, [fp, #-28]
d0020cb0:	e51b2008 	ldr	r2, [fp, #-8]
d0020cb4:	e51b3010 	ldr	r3, [fp, #-16]
d0020cb8:	e0633002 	rsb	r3, r3, r2
d0020cbc:	e50b3008 	str	r3, [fp, #-8]
d0020cc0:	e51b3018 	ldr	r3, [fp, #-24]
d0020cc4:	e2433001 	sub	r3, r3, #1
d0020cc8:	e50b3018 	str	r3, [fp, #-24]
d0020ccc:	e51b2008 	ldr	r2, [fp, #-8]
d0020cd0:	e51b300c 	ldr	r3, [fp, #-12]
d0020cd4:	e0823003 	add	r3, r2, r3
d0020cd8:	e50b3008 	str	r3, [fp, #-8]
d0020cdc:	e51b2018 	ldr	r2, [fp, #-24]
d0020ce0:	e51b3020 	ldr	r3, [fp, #-32]
d0020ce4:	e1520003 	cmp	r2, r3
d0020ce8:	2affffe3 	bcs	d0020c7c <glib_line+0x318>
d0020cec:	ea000074 	b	d0020ec4 <glib_line+0x560>
d0020cf0:	e51b300c 	ldr	r3, [fp, #-12]
d0020cf4:	e1a02fa3 	lsr	r2, r3, #31
d0020cf8:	e0823003 	add	r3, r2, r3
d0020cfc:	e1a030c3 	asr	r3, r3, #1
d0020d00:	e51b2010 	ldr	r2, [fp, #-16]
d0020d04:	e0633002 	rsb	r3, r3, r2
d0020d08:	e50b3008 	str	r3, [fp, #-8]
d0020d0c:	ea000017 	b	d0020d70 <glib_line+0x40c>
d0020d10:	e51b1018 	ldr	r1, [fp, #-24]
d0020d14:	e51b201c 	ldr	r2, [fp, #-28]
d0020d18:	e59b3004 	ldr	r3, [fp, #4]
d0020d1c:	e1a00001 	mov	r0, r1
d0020d20:	e1a01002 	mov	r1, r2
d0020d24:	e1a02003 	mov	r2, r3
d0020d28:	ebfffebb 	bl	d002081c <lcd_draw_pixel>
d0020d2c:	e51b3008 	ldr	r3, [fp, #-8]
d0020d30:	e3530000 	cmp	r3, #0
d0020d34:	da000006 	ble	d0020d54 <glib_line+0x3f0>
d0020d38:	e51b3018 	ldr	r3, [fp, #-24]
d0020d3c:	e2433001 	sub	r3, r3, #1
d0020d40:	e50b3018 	str	r3, [fp, #-24]
d0020d44:	e51b2008 	ldr	r2, [fp, #-8]
d0020d48:	e51b300c 	ldr	r3, [fp, #-12]
d0020d4c:	e0633002 	rsb	r3, r3, r2
d0020d50:	e50b3008 	str	r3, [fp, #-8]
d0020d54:	e51b301c 	ldr	r3, [fp, #-28]
d0020d58:	e2833001 	add	r3, r3, #1
d0020d5c:	e50b301c 	str	r3, [fp, #-28]
d0020d60:	e51b2008 	ldr	r2, [fp, #-8]
d0020d64:	e51b3010 	ldr	r3, [fp, #-16]
d0020d68:	e0823003 	add	r3, r2, r3
d0020d6c:	e50b3008 	str	r3, [fp, #-8]
d0020d70:	e51b201c 	ldr	r2, [fp, #-28]
d0020d74:	e51b3024 	ldr	r3, [fp, #-36]	; 0x24
d0020d78:	e1520003 	cmp	r2, r3
d0020d7c:	9affffe3 	bls	d0020d10 <glib_line+0x3ac>
d0020d80:	ea00004f 	b	d0020ec4 <glib_line+0x560>
d0020d84:	e51b300c 	ldr	r3, [fp, #-12]
d0020d88:	e2633000 	rsb	r3, r3, #0
d0020d8c:	e50b300c 	str	r3, [fp, #-12]
d0020d90:	e51b2010 	ldr	r2, [fp, #-16]
d0020d94:	e51b300c 	ldr	r3, [fp, #-12]
d0020d98:	e1520003 	cmp	r2, r3
d0020d9c:	ba000024 	blt	d0020e34 <glib_line+0x4d0>
d0020da0:	e51b3010 	ldr	r3, [fp, #-16]
d0020da4:	e1a02fa3 	lsr	r2, r3, #31
d0020da8:	e0823003 	add	r3, r2, r3
d0020dac:	e1a030c3 	asr	r3, r3, #1
d0020db0:	e51b200c 	ldr	r2, [fp, #-12]
d0020db4:	e0633002 	rsb	r3, r3, r2
d0020db8:	e50b3008 	str	r3, [fp, #-8]
d0020dbc:	ea000017 	b	d0020e20 <glib_line+0x4bc>
d0020dc0:	e51b1018 	ldr	r1, [fp, #-24]
d0020dc4:	e51b201c 	ldr	r2, [fp, #-28]
d0020dc8:	e59b3004 	ldr	r3, [fp, #4]
d0020dcc:	e1a00001 	mov	r0, r1
d0020dd0:	e1a01002 	mov	r1, r2
d0020dd4:	e1a02003 	mov	r2, r3
d0020dd8:	ebfffe8f 	bl	d002081c <lcd_draw_pixel>
d0020ddc:	e51b3008 	ldr	r3, [fp, #-8]
d0020de0:	e3530000 	cmp	r3, #0
d0020de4:	da000006 	ble	d0020e04 <glib_line+0x4a0>
d0020de8:	e51b301c 	ldr	r3, [fp, #-28]
d0020dec:	e2433001 	sub	r3, r3, #1
d0020df0:	e50b301c 	str	r3, [fp, #-28]
d0020df4:	e51b2008 	ldr	r2, [fp, #-8]
d0020df8:	e51b3010 	ldr	r3, [fp, #-16]
d0020dfc:	e0633002 	rsb	r3, r3, r2
d0020e00:	e50b3008 	str	r3, [fp, #-8]
d0020e04:	e51b3018 	ldr	r3, [fp, #-24]
d0020e08:	e2433001 	sub	r3, r3, #1
d0020e0c:	e50b3018 	str	r3, [fp, #-24]
d0020e10:	e51b2008 	ldr	r2, [fp, #-8]
d0020e14:	e51b300c 	ldr	r3, [fp, #-12]
d0020e18:	e0823003 	add	r3, r2, r3
d0020e1c:	e50b3008 	str	r3, [fp, #-8]
d0020e20:	e51b2018 	ldr	r2, [fp, #-24]
d0020e24:	e51b3020 	ldr	r3, [fp, #-32]
d0020e28:	e1520003 	cmp	r2, r3
d0020e2c:	2affffe3 	bcs	d0020dc0 <glib_line+0x45c>
d0020e30:	ea000023 	b	d0020ec4 <glib_line+0x560>
d0020e34:	e51b300c 	ldr	r3, [fp, #-12]
d0020e38:	e1a02fa3 	lsr	r2, r3, #31
d0020e3c:	e0823003 	add	r3, r2, r3
d0020e40:	e1a030c3 	asr	r3, r3, #1
d0020e44:	e51b2010 	ldr	r2, [fp, #-16]
d0020e48:	e0633002 	rsb	r3, r3, r2
d0020e4c:	e50b3008 	str	r3, [fp, #-8]
d0020e50:	ea000017 	b	d0020eb4 <glib_line+0x550>
d0020e54:	e51b1018 	ldr	r1, [fp, #-24]
d0020e58:	e51b201c 	ldr	r2, [fp, #-28]
d0020e5c:	e59b3004 	ldr	r3, [fp, #4]
d0020e60:	e1a00001 	mov	r0, r1
d0020e64:	e1a01002 	mov	r1, r2
d0020e68:	e1a02003 	mov	r2, r3
d0020e6c:	ebfffe6a 	bl	d002081c <lcd_draw_pixel>
d0020e70:	e51b3008 	ldr	r3, [fp, #-8]
d0020e74:	e3530000 	cmp	r3, #0
d0020e78:	da000006 	ble	d0020e98 <glib_line+0x534>
d0020e7c:	e51b3018 	ldr	r3, [fp, #-24]
d0020e80:	e2433001 	sub	r3, r3, #1
d0020e84:	e50b3018 	str	r3, [fp, #-24]
d0020e88:	e51b2008 	ldr	r2, [fp, #-8]
d0020e8c:	e51b300c 	ldr	r3, [fp, #-12]
d0020e90:	e0633002 	rsb	r3, r3, r2
d0020e94:	e50b3008 	str	r3, [fp, #-8]
d0020e98:	e51b301c 	ldr	r3, [fp, #-28]
d0020e9c:	e2433001 	sub	r3, r3, #1
d0020ea0:	e50b301c 	str	r3, [fp, #-28]
d0020ea4:	e51b2008 	ldr	r2, [fp, #-8]
d0020ea8:	e51b3010 	ldr	r3, [fp, #-16]
d0020eac:	e0823003 	add	r3, r2, r3
d0020eb0:	e50b3008 	str	r3, [fp, #-8]
d0020eb4:	e51b201c 	ldr	r2, [fp, #-28]
d0020eb8:	e51b3024 	ldr	r3, [fp, #-36]	; 0x24
d0020ebc:	e1520003 	cmp	r2, r3
d0020ec0:	2affffe3 	bcs	d0020e54 <glib_line+0x4f0>
d0020ec4:	e24bd004 	sub	sp, fp, #4
d0020ec8:	e8bd8800 	pop	{fp, pc}

d0020ecc <show_8_16>:
d0020ecc:	e92d4800 	push	{fp, lr}
d0020ed0:	e28db004 	add	fp, sp, #4
d0020ed4:	e24dd020 	sub	sp, sp, #32
d0020ed8:	e50b0018 	str	r0, [fp, #-24]
d0020edc:	e50b101c 	str	r1, [fp, #-28]
d0020ee0:	e50b2020 	str	r2, [fp, #-32]
d0020ee4:	e50b3024 	str	r3, [fp, #-36]	; 0x24
d0020ee8:	e3a03000 	mov	r3, #0
d0020eec:	e50b3008 	str	r3, [fp, #-8]
d0020ef0:	e51b301c 	ldr	r3, [fp, #-28]
d0020ef4:	e50b300c 	str	r3, [fp, #-12]
d0020ef8:	ea000032 	b	d0020fc8 <show_8_16+0xfc>
d0020efc:	e51b3018 	ldr	r3, [fp, #-24]
d0020f00:	e50b3010 	str	r3, [fp, #-16]
d0020f04:	ea000027 	b	d0020fa8 <show_8_16+0xdc>
d0020f08:	e51b2010 	ldr	r2, [fp, #-16]
d0020f0c:	e59f30d0 	ldr	r3, [pc, #208]	; d0020fe4 <show_8_16+0x118>
d0020f10:	e1520003 	cmp	r2, r3
d0020f14:	ca00001d 	bgt	d0020f90 <show_8_16+0xc4>
d0020f18:	e51b200c 	ldr	r2, [fp, #-12]
d0020f1c:	e59f30c4 	ldr	r3, [pc, #196]	; d0020fe8 <show_8_16+0x11c>
d0020f20:	e1520003 	cmp	r2, r3
d0020f24:	ca000019 	bgt	d0020f90 <show_8_16+0xc4>
d0020f28:	e51b3008 	ldr	r3, [fp, #-8]
d0020f2c:	e2832007 	add	r2, r3, #7
d0020f30:	e3530000 	cmp	r3, #0
d0020f34:	b1a03002 	movlt	r3, r2
d0020f38:	e1a031c3 	asr	r3, r3, #3
d0020f3c:	e1a02003 	mov	r2, r3
d0020f40:	e51b3024 	ldr	r3, [fp, #-36]	; 0x24
d0020f44:	e0823003 	add	r3, r2, r3
d0020f48:	e5d33000 	ldrb	r3, [r3]
d0020f4c:	e1a01003 	mov	r1, r3
d0020f50:	e51b2008 	ldr	r2, [fp, #-8]
d0020f54:	e1a03fc2 	asr	r3, r2, #31
d0020f58:	e1a03ea3 	lsr	r3, r3, #29
d0020f5c:	e0822003 	add	r2, r2, r3
d0020f60:	e2022007 	and	r2, r2, #7
d0020f64:	e0633002 	rsb	r3, r3, r2
d0020f68:	e1a03351 	asr	r3, r1, r3
d0020f6c:	e2033001 	and	r3, r3, #1
d0020f70:	e20330ff 	and	r3, r3, #255	; 0xff
d0020f74:	e3530000 	cmp	r3, #0
d0020f78:	0a000004 	beq	d0020f90 <show_8_16+0xc4>
d0020f7c:	e51b3020 	ldr	r3, [fp, #-32]
d0020f80:	e51b0010 	ldr	r0, [fp, #-16]
d0020f84:	e51b100c 	ldr	r1, [fp, #-12]
d0020f88:	e1a02003 	mov	r2, r3
d0020f8c:	ebfffe22 	bl	d002081c <lcd_draw_pixel>
d0020f90:	e51b3008 	ldr	r3, [fp, #-8]
d0020f94:	e2833001 	add	r3, r3, #1
d0020f98:	e50b3008 	str	r3, [fp, #-8]
d0020f9c:	e51b3010 	ldr	r3, [fp, #-16]
d0020fa0:	e2833001 	add	r3, r3, #1
d0020fa4:	e50b3010 	str	r3, [fp, #-16]
d0020fa8:	e51b2010 	ldr	r2, [fp, #-16]
d0020fac:	e51b3018 	ldr	r3, [fp, #-24]
d0020fb0:	e2833008 	add	r3, r3, #8
d0020fb4:	e1520003 	cmp	r2, r3
d0020fb8:	3affffd2 	bcc	d0020f08 <show_8_16+0x3c>
d0020fbc:	e51b300c 	ldr	r3, [fp, #-12]
d0020fc0:	e2833001 	add	r3, r3, #1
d0020fc4:	e50b300c 	str	r3, [fp, #-12]
d0020fc8:	e51b200c 	ldr	r2, [fp, #-12]
d0020fcc:	e51b301c 	ldr	r3, [fp, #-28]
d0020fd0:	e2833010 	add	r3, r3, #16
d0020fd4:	e1520003 	cmp	r2, r3
d0020fd8:	3affffc7 	bcc	d0020efc <show_8_16+0x30>
d0020fdc:	e24bd004 	sub	sp, fp, #4
d0020fe0:	e8bd8800 	pop	{fp, pc}
d0020fe4:	000003ff 	strdeq	r0, [r0], -pc
d0020fe8:	00000257 	andeq	r0, r0, r7, asr r2

d0020fec <show_16_16>:
d0020fec:	e92d4800 	push	{fp, lr}
d0020ff0:	e28db004 	add	fp, sp, #4
d0020ff4:	e24dd020 	sub	sp, sp, #32
d0020ff8:	e50b0018 	str	r0, [fp, #-24]
d0020ffc:	e50b101c 	str	r1, [fp, #-28]
d0021000:	e50b2020 	str	r2, [fp, #-32]
d0021004:	e50b3024 	str	r3, [fp, #-36]	; 0x24
d0021008:	e3a03000 	mov	r3, #0
d002100c:	e50b3008 	str	r3, [fp, #-8]
d0021010:	e51b301c 	ldr	r3, [fp, #-28]
d0021014:	e50b300c 	str	r3, [fp, #-12]
d0021018:	ea000032 	b	d00210e8 <show_16_16+0xfc>
d002101c:	e51b3018 	ldr	r3, [fp, #-24]
d0021020:	e50b3010 	str	r3, [fp, #-16]
d0021024:	ea000027 	b	d00210c8 <show_16_16+0xdc>
d0021028:	e51b2010 	ldr	r2, [fp, #-16]
d002102c:	e59f30d0 	ldr	r3, [pc, #208]	; d0021104 <show_16_16+0x118>
d0021030:	e1520003 	cmp	r2, r3
d0021034:	ca00001d 	bgt	d00210b0 <show_16_16+0xc4>
d0021038:	e51b200c 	ldr	r2, [fp, #-12]
d002103c:	e59f30c4 	ldr	r3, [pc, #196]	; d0021108 <show_16_16+0x11c>
d0021040:	e1520003 	cmp	r2, r3
d0021044:	ca000019 	bgt	d00210b0 <show_16_16+0xc4>
d0021048:	e51b3008 	ldr	r3, [fp, #-8]
d002104c:	e2832007 	add	r2, r3, #7
d0021050:	e3530000 	cmp	r3, #0
d0021054:	b1a03002 	movlt	r3, r2
d0021058:	e1a031c3 	asr	r3, r3, #3
d002105c:	e1a02003 	mov	r2, r3
d0021060:	e51b3024 	ldr	r3, [fp, #-36]	; 0x24
d0021064:	e0823003 	add	r3, r2, r3
d0021068:	e5d33000 	ldrb	r3, [r3]
d002106c:	e1a01003 	mov	r1, r3
d0021070:	e51b2008 	ldr	r2, [fp, #-8]
d0021074:	e1a03fc2 	asr	r3, r2, #31
d0021078:	e1a03ea3 	lsr	r3, r3, #29
d002107c:	e0822003 	add	r2, r2, r3
d0021080:	e2022007 	and	r2, r2, #7
d0021084:	e0633002 	rsb	r3, r3, r2
d0021088:	e1a03351 	asr	r3, r1, r3
d002108c:	e2033001 	and	r3, r3, #1
d0021090:	e20330ff 	and	r3, r3, #255	; 0xff
d0021094:	e3530000 	cmp	r3, #0
d0021098:	0a000004 	beq	d00210b0 <show_16_16+0xc4>
d002109c:	e51b3020 	ldr	r3, [fp, #-32]
d00210a0:	e51b0010 	ldr	r0, [fp, #-16]
d00210a4:	e51b100c 	ldr	r1, [fp, #-12]
d00210a8:	e1a02003 	mov	r2, r3
d00210ac:	ebfffdda 	bl	d002081c <lcd_draw_pixel>
d00210b0:	e51b3008 	ldr	r3, [fp, #-8]
d00210b4:	e2833001 	add	r3, r3, #1
d00210b8:	e50b3008 	str	r3, [fp, #-8]
d00210bc:	e51b3010 	ldr	r3, [fp, #-16]
d00210c0:	e2833001 	add	r3, r3, #1
d00210c4:	e50b3010 	str	r3, [fp, #-16]
d00210c8:	e51b2010 	ldr	r2, [fp, #-16]
d00210cc:	e51b3018 	ldr	r3, [fp, #-24]
d00210d0:	e2833010 	add	r3, r3, #16
d00210d4:	e1520003 	cmp	r2, r3
d00210d8:	3affffd2 	bcc	d0021028 <show_16_16+0x3c>
d00210dc:	e51b300c 	ldr	r3, [fp, #-12]
d00210e0:	e2833001 	add	r3, r3, #1
d00210e4:	e50b300c 	str	r3, [fp, #-12]
d00210e8:	e51b200c 	ldr	r2, [fp, #-12]
d00210ec:	e51b301c 	ldr	r3, [fp, #-28]
d00210f0:	e2833010 	add	r3, r3, #16
d00210f4:	e1520003 	cmp	r2, r3
d00210f8:	3affffc7 	bcc	d002101c <show_16_16+0x30>
d00210fc:	e24bd004 	sub	sp, fp, #4
d0021100:	e8bd8800 	pop	{fp, pc}
d0021104:	000003ff 	strdeq	r0, [r0], -pc
d0021108:	00000257 	andeq	r0, r0, r7, asr r2

d002110c <show_32_32>:
d002110c:	e92d4800 	push	{fp, lr}
d0021110:	e28db004 	add	fp, sp, #4
d0021114:	e24dd020 	sub	sp, sp, #32
d0021118:	e50b0018 	str	r0, [fp, #-24]
d002111c:	e50b101c 	str	r1, [fp, #-28]
d0021120:	e50b2020 	str	r2, [fp, #-32]
d0021124:	e50b3024 	str	r3, [fp, #-36]	; 0x24
d0021128:	e3a03000 	mov	r3, #0
d002112c:	e50b3008 	str	r3, [fp, #-8]
d0021130:	e51b301c 	ldr	r3, [fp, #-28]
d0021134:	e50b300c 	str	r3, [fp, #-12]
d0021138:	ea000032 	b	d0021208 <show_32_32+0xfc>
d002113c:	e51b3018 	ldr	r3, [fp, #-24]
d0021140:	e50b3010 	str	r3, [fp, #-16]
d0021144:	ea000027 	b	d00211e8 <show_32_32+0xdc>
d0021148:	e51b2010 	ldr	r2, [fp, #-16]
d002114c:	e59f30d0 	ldr	r3, [pc, #208]	; d0021224 <show_32_32+0x118>
d0021150:	e1520003 	cmp	r2, r3
d0021154:	ca00001d 	bgt	d00211d0 <show_32_32+0xc4>
d0021158:	e51b200c 	ldr	r2, [fp, #-12]
d002115c:	e59f30c4 	ldr	r3, [pc, #196]	; d0021228 <show_32_32+0x11c>
d0021160:	e1520003 	cmp	r2, r3
d0021164:	ca000019 	bgt	d00211d0 <show_32_32+0xc4>
d0021168:	e51b3008 	ldr	r3, [fp, #-8]
d002116c:	e2832007 	add	r2, r3, #7
d0021170:	e3530000 	cmp	r3, #0
d0021174:	b1a03002 	movlt	r3, r2
d0021178:	e1a031c3 	asr	r3, r3, #3
d002117c:	e1a02003 	mov	r2, r3
d0021180:	e51b3024 	ldr	r3, [fp, #-36]	; 0x24
d0021184:	e0823003 	add	r3, r2, r3
d0021188:	e5d33000 	ldrb	r3, [r3]
d002118c:	e1a01003 	mov	r1, r3
d0021190:	e51b2008 	ldr	r2, [fp, #-8]
d0021194:	e1a03fc2 	asr	r3, r2, #31
d0021198:	e1a03ea3 	lsr	r3, r3, #29
d002119c:	e0822003 	add	r2, r2, r3
d00211a0:	e2022007 	and	r2, r2, #7
d00211a4:	e0633002 	rsb	r3, r3, r2
d00211a8:	e1a03351 	asr	r3, r1, r3
d00211ac:	e2033001 	and	r3, r3, #1
d00211b0:	e20330ff 	and	r3, r3, #255	; 0xff
d00211b4:	e3530000 	cmp	r3, #0
d00211b8:	0a000004 	beq	d00211d0 <show_32_32+0xc4>
d00211bc:	e51b3020 	ldr	r3, [fp, #-32]
d00211c0:	e51b0010 	ldr	r0, [fp, #-16]
d00211c4:	e51b100c 	ldr	r1, [fp, #-12]
d00211c8:	e1a02003 	mov	r2, r3
d00211cc:	ebfffd92 	bl	d002081c <lcd_draw_pixel>
d00211d0:	e51b3008 	ldr	r3, [fp, #-8]
d00211d4:	e2833001 	add	r3, r3, #1
d00211d8:	e50b3008 	str	r3, [fp, #-8]
d00211dc:	e51b3010 	ldr	r3, [fp, #-16]
d00211e0:	e2833001 	add	r3, r3, #1
d00211e4:	e50b3010 	str	r3, [fp, #-16]
d00211e8:	e51b2010 	ldr	r2, [fp, #-16]
d00211ec:	e51b3018 	ldr	r3, [fp, #-24]
d00211f0:	e2833020 	add	r3, r3, #32
d00211f4:	e1520003 	cmp	r2, r3
d00211f8:	3affffd2 	bcc	d0021148 <show_32_32+0x3c>
d00211fc:	e51b300c 	ldr	r3, [fp, #-12]
d0021200:	e2833001 	add	r3, r3, #1
d0021204:	e50b300c 	str	r3, [fp, #-12]
d0021208:	e51b200c 	ldr	r2, [fp, #-12]
d002120c:	e51b301c 	ldr	r3, [fp, #-28]
d0021210:	e2833020 	add	r3, r3, #32
d0021214:	e1520003 	cmp	r2, r3
d0021218:	3affffc7 	bcc	d002113c <show_32_32+0x30>
d002121c:	e24bd004 	sub	sp, fp, #4
d0021220:	e8bd8800 	pop	{fp, pc}
d0021224:	000003ff 	strdeq	r0, [r0], -pc
d0021228:	00000257 	andeq	r0, r0, r7, asr r2

d002122c <lcd_draw_vline>:
d002122c:	e92d4800 	push	{fp, lr}
d0021230:	e28db004 	add	fp, sp, #4
d0021234:	e24dd018 	sub	sp, sp, #24
d0021238:	e50b0010 	str	r0, [fp, #-16]
d002123c:	e50b1014 	str	r1, [fp, #-20]
d0021240:	e50b2018 	str	r2, [fp, #-24]
d0021244:	e50b301c 	str	r3, [fp, #-28]
d0021248:	e51b3014 	ldr	r3, [fp, #-20]
d002124c:	e50b3008 	str	r3, [fp, #-8]
d0021250:	ea000009 	b	d002127c <lcd_draw_vline+0x50>
d0021254:	e51b1010 	ldr	r1, [fp, #-16]
d0021258:	e51b2008 	ldr	r2, [fp, #-8]
d002125c:	e51b301c 	ldr	r3, [fp, #-28]
d0021260:	e1a00001 	mov	r0, r1
d0021264:	e1a01002 	mov	r1, r2
d0021268:	e1a02003 	mov	r2, r3
d002126c:	ebfffd6a 	bl	d002081c <lcd_draw_pixel>
d0021270:	e51b3008 	ldr	r3, [fp, #-8]
d0021274:	e2833001 	add	r3, r3, #1
d0021278:	e50b3008 	str	r3, [fp, #-8]
d002127c:	e51b2008 	ldr	r2, [fp, #-8]
d0021280:	e51b3018 	ldr	r3, [fp, #-24]
d0021284:	e1520003 	cmp	r2, r3
d0021288:	3afffff1 	bcc	d0021254 <lcd_draw_vline+0x28>
d002128c:	e24bd004 	sub	sp, fp, #4
d0021290:	e8bd8800 	pop	{fp, pc}

d0021294 <draw_circular>:
d0021294:	e92d4800 	push	{fp, lr}
d0021298:	e28db004 	add	fp, sp, #4
d002129c:	e24dd028 	sub	sp, sp, #40	; 0x28
d00212a0:	e50b0020 	str	r0, [fp, #-32]
d00212a4:	e50b1024 	str	r1, [fp, #-36]	; 0x24
d00212a8:	e50b2028 	str	r2, [fp, #-40]	; 0x28
d00212ac:	e50b302c 	str	r3, [fp, #-44]	; 0x2c
d00212b0:	e51b3028 	ldr	r3, [fp, #-40]	; 0x28
d00212b4:	e51b2028 	ldr	r2, [fp, #-40]	; 0x28
d00212b8:	e0030392 	mul	r3, r2, r3
d00212bc:	e50b3008 	str	r3, [fp, #-8]
d00212c0:	e3a03000 	mov	r3, #0
d00212c4:	e50b3014 	str	r3, [fp, #-20]
d00212c8:	ea000056 	b	d0021428 <draw_circular+0x194>
d00212cc:	e3a03000 	mov	r3, #0
d00212d0:	e50b3018 	str	r3, [fp, #-24]
d00212d4:	ea00004c 	b	d002140c <draw_circular+0x178>
d00212d8:	e51b2014 	ldr	r2, [fp, #-20]
d00212dc:	e51b3024 	ldr	r3, [fp, #-36]	; 0x24
d00212e0:	e1520003 	cmp	r2, r3
d00212e4:	8a00000c 	bhi	d002131c <draw_circular+0x88>
d00212e8:	e51b2018 	ldr	r2, [fp, #-24]
d00212ec:	e51b3020 	ldr	r3, [fp, #-32]
d00212f0:	e1520003 	cmp	r2, r3
d00212f4:	8a000008 	bhi	d002131c <draw_circular+0x88>
d00212f8:	e51b3014 	ldr	r3, [fp, #-20]
d00212fc:	e51b2024 	ldr	r2, [fp, #-36]	; 0x24
d0021300:	e0633002 	rsb	r3, r3, r2
d0021304:	e50b300c 	str	r3, [fp, #-12]
d0021308:	e51b3018 	ldr	r3, [fp, #-24]
d002130c:	e51b2020 	ldr	r2, [fp, #-32]
d0021310:	e0633002 	rsb	r3, r3, r2
d0021314:	e50b3010 	str	r3, [fp, #-16]
d0021318:	ea000029 	b	d00213c4 <draw_circular+0x130>
d002131c:	e51b2014 	ldr	r2, [fp, #-20]
d0021320:	e51b3024 	ldr	r3, [fp, #-36]	; 0x24
d0021324:	e1520003 	cmp	r2, r3
d0021328:	8a00000c 	bhi	d0021360 <draw_circular+0xcc>
d002132c:	e51b2018 	ldr	r2, [fp, #-24]
d0021330:	e51b3020 	ldr	r3, [fp, #-32]
d0021334:	e1520003 	cmp	r2, r3
d0021338:	3a000008 	bcc	d0021360 <draw_circular+0xcc>
d002133c:	e51b3014 	ldr	r3, [fp, #-20]
d0021340:	e51b2024 	ldr	r2, [fp, #-36]	; 0x24
d0021344:	e0633002 	rsb	r3, r3, r2
d0021348:	e50b300c 	str	r3, [fp, #-12]
d002134c:	e51b2018 	ldr	r2, [fp, #-24]
d0021350:	e51b3020 	ldr	r3, [fp, #-32]
d0021354:	e0633002 	rsb	r3, r3, r2
d0021358:	e50b3010 	str	r3, [fp, #-16]
d002135c:	ea000018 	b	d00213c4 <draw_circular+0x130>
d0021360:	e51b2014 	ldr	r2, [fp, #-20]
d0021364:	e51b3024 	ldr	r3, [fp, #-36]	; 0x24
d0021368:	e1520003 	cmp	r2, r3
d002136c:	3a00000c 	bcc	d00213a4 <draw_circular+0x110>
d0021370:	e51b2018 	ldr	r2, [fp, #-24]
d0021374:	e51b3020 	ldr	r3, [fp, #-32]
d0021378:	e1520003 	cmp	r2, r3
d002137c:	8a000008 	bhi	d00213a4 <draw_circular+0x110>
d0021380:	e51b2014 	ldr	r2, [fp, #-20]
d0021384:	e51b3024 	ldr	r3, [fp, #-36]	; 0x24
d0021388:	e0633002 	rsb	r3, r3, r2
d002138c:	e50b300c 	str	r3, [fp, #-12]
d0021390:	e51b3018 	ldr	r3, [fp, #-24]
d0021394:	e51b2020 	ldr	r2, [fp, #-32]
d0021398:	e0633002 	rsb	r3, r3, r2
d002139c:	e50b3010 	str	r3, [fp, #-16]
d00213a0:	ea000007 	b	d00213c4 <draw_circular+0x130>
d00213a4:	e51b2014 	ldr	r2, [fp, #-20]
d00213a8:	e51b3024 	ldr	r3, [fp, #-36]	; 0x24
d00213ac:	e0633002 	rsb	r3, r3, r2
d00213b0:	e50b300c 	str	r3, [fp, #-12]
d00213b4:	e51b2018 	ldr	r2, [fp, #-24]
d00213b8:	e51b3020 	ldr	r3, [fp, #-32]
d00213bc:	e0633002 	rsb	r3, r3, r2
d00213c0:	e50b3010 	str	r3, [fp, #-16]
d00213c4:	e51b300c 	ldr	r3, [fp, #-12]
d00213c8:	e51b200c 	ldr	r2, [fp, #-12]
d00213cc:	e0020293 	mul	r2, r3, r2
d00213d0:	e51b3010 	ldr	r3, [fp, #-16]
d00213d4:	e51b1010 	ldr	r1, [fp, #-16]
d00213d8:	e0030391 	mul	r3, r1, r3
d00213dc:	e0822003 	add	r2, r2, r3
d00213e0:	e51b3008 	ldr	r3, [fp, #-8]
d00213e4:	e1520003 	cmp	r2, r3
d00213e8:	ca000004 	bgt	d0021400 <draw_circular+0x16c>
d00213ec:	e51b302c 	ldr	r3, [fp, #-44]	; 0x2c
d00213f0:	e51b0018 	ldr	r0, [fp, #-24]
d00213f4:	e51b1014 	ldr	r1, [fp, #-20]
d00213f8:	e1a02003 	mov	r2, r3
d00213fc:	ebfffd06 	bl	d002081c <lcd_draw_pixel>
d0021400:	e51b3018 	ldr	r3, [fp, #-24]
d0021404:	e2833001 	add	r3, r3, #1
d0021408:	e50b3018 	str	r3, [fp, #-24]
d002140c:	e51b2018 	ldr	r2, [fp, #-24]
d0021410:	e59f3028 	ldr	r3, [pc, #40]	; d0021440 <draw_circular+0x1ac>
d0021414:	e1520003 	cmp	r2, r3
d0021418:	daffffae 	ble	d00212d8 <draw_circular+0x44>
d002141c:	e51b3014 	ldr	r3, [fp, #-20]
d0021420:	e2833001 	add	r3, r3, #1
d0021424:	e50b3014 	str	r3, [fp, #-20]
d0021428:	e51b2014 	ldr	r2, [fp, #-20]
d002142c:	e59f3010 	ldr	r3, [pc, #16]	; d0021444 <draw_circular+0x1b0>
d0021430:	e1520003 	cmp	r2, r3
d0021434:	daffffa4 	ble	d00212cc <draw_circular+0x38>
d0021438:	e24bd004 	sub	sp, fp, #4
d002143c:	e8bd8800 	pop	{fp, pc}
d0021440:	00000257 	andeq	r0, r0, r7, asr r2
d0021444:	000003ff 	strdeq	r0, [r0], -pc

d0021448 <draw_ascii_ok32>:
d0021448:	e92d4800 	push	{fp, lr}
d002144c:	e28db004 	add	fp, sp, #4
d0021450:	e24dd018 	sub	sp, sp, #24
d0021454:	e50b0010 	str	r0, [fp, #-16]
d0021458:	e50b1014 	str	r1, [fp, #-20]
d002145c:	e50b2018 	str	r2, [fp, #-24]
d0021460:	e50b301c 	str	r3, [fp, #-28]
d0021464:	e3a03000 	mov	r3, #0
d0021468:	e50b300c 	str	r3, [fp, #-12]
d002146c:	ea00001d 	b	d00214e8 <draw_ascii_ok32+0xa0>
d0021470:	e59f2090 	ldr	r2, [pc, #144]	; d0021508 <draw_ascii_ok32+0xc0>
d0021474:	e51b100c 	ldr	r1, [fp, #-12]
d0021478:	e51b301c 	ldr	r3, [fp, #-28]
d002147c:	e0813003 	add	r3, r1, r3
d0021480:	e5d33000 	ldrb	r3, [r3]
d0021484:	e2433061 	sub	r3, r3, #97	; 0x61
d0021488:	e1a03383 	lsl	r3, r3, #7
d002148c:	e0823003 	add	r3, r2, r3
d0021490:	e50b3008 	str	r3, [fp, #-8]
d0021494:	e51b0010 	ldr	r0, [fp, #-16]
d0021498:	e51b1014 	ldr	r1, [fp, #-20]
d002149c:	e51b2018 	ldr	r2, [fp, #-24]
d00214a0:	e51b3008 	ldr	r3, [fp, #-8]
d00214a4:	ebffff18 	bl	d002110c <show_32_32>
d00214a8:	e51b3010 	ldr	r3, [fp, #-16]
d00214ac:	e2833020 	add	r3, r3, #32
d00214b0:	e50b3010 	str	r3, [fp, #-16]
d00214b4:	e51b2010 	ldr	r2, [fp, #-16]
d00214b8:	e59f304c 	ldr	r3, [pc, #76]	; d002150c <draw_ascii_ok32+0xc4>
d00214bc:	e1520003 	cmp	r2, r3
d00214c0:	9a000005 	bls	d00214dc <draw_ascii_ok32+0x94>
d00214c4:	e51b3010 	ldr	r3, [fp, #-16]
d00214c8:	e2433b01 	sub	r3, r3, #1024	; 0x400
d00214cc:	e50b3010 	str	r3, [fp, #-16]
d00214d0:	e51b3014 	ldr	r3, [fp, #-20]
d00214d4:	e2833020 	add	r3, r3, #32
d00214d8:	e50b3014 	str	r3, [fp, #-20]
d00214dc:	e51b300c 	ldr	r3, [fp, #-12]
d00214e0:	e2833001 	add	r3, r3, #1
d00214e4:	e50b300c 	str	r3, [fp, #-12]
d00214e8:	e51b200c 	ldr	r2, [fp, #-12]
d00214ec:	e51b301c 	ldr	r3, [fp, #-28]
d00214f0:	e0823003 	add	r3, r2, r3
d00214f4:	e5d33000 	ldrb	r3, [r3]
d00214f8:	e3530000 	cmp	r3, #0
d00214fc:	1affffdb 	bne	d0021470 <draw_ascii_ok32+0x28>
d0021500:	e24bd004 	sub	sp, fp, #4
d0021504:	e8bd8800 	pop	{fp, pc}
d0021508:	d00225cc 	andle	r2, r2, ip, asr #11
d002150c:	000003ff 	strdeq	r0, [r0], -pc

d0021510 <lcd_draw_picture>:
d0021510:	e92d4800 	push	{fp, lr}
d0021514:	e28db004 	add	fp, sp, #4
d0021518:	e24dd020 	sub	sp, sp, #32
d002151c:	e50b0020 	str	r0, [fp, #-32]
d0021520:	e3a03000 	mov	r3, #0
d0021524:	e50b300c 	str	r3, [fp, #-12]
d0021528:	e3a03000 	mov	r3, #0
d002152c:	e50b3008 	str	r3, [fp, #-8]
d0021530:	e3a03000 	mov	r3, #0
d0021534:	e50b3018 	str	r3, [fp, #-24]
d0021538:	ea00003e 	b	d0021638 <lcd_draw_picture+0x128>
d002153c:	e3a03000 	mov	r3, #0
d0021540:	e50b3014 	str	r3, [fp, #-20]
d0021544:	ea000034 	b	d002161c <lcd_draw_picture+0x10c>
d0021548:	e51b3008 	ldr	r3, [fp, #-8]
d002154c:	e3530002 	cmp	r3, #2
d0021550:	1a00000e 	bne	d0021590 <lcd_draw_picture+0x80>
d0021554:	e51b2020 	ldr	r2, [fp, #-32]
d0021558:	e51b300c 	ldr	r3, [fp, #-12]
d002155c:	e0823003 	add	r3, r2, r3
d0021560:	e5d33000 	ldrb	r3, [r3]
d0021564:	e1a02003 	mov	r2, r3
d0021568:	e51b3008 	ldr	r3, [fp, #-8]
d002156c:	e2233002 	eor	r3, r3, #2
d0021570:	e0023003 	and	r3, r2, r3
d0021574:	e3530000 	cmp	r3, #0
d0021578:	0a000001 	beq	d0021584 <lcd_draw_picture+0x74>
d002157c:	e3a030c0 	mov	r3, #192	; 0xc0
d0021580:	ea000000 	b	d0021588 <lcd_draw_picture+0x78>
d0021584:	e3e034ff 	mvn	r3, #-16777216	; 0xff000000
d0021588:	e50b3010 	str	r3, [fp, #-16]
d002158c:	ea00000d 	b	d00215c8 <lcd_draw_picture+0xb8>
d0021590:	e51b2020 	ldr	r2, [fp, #-32]
d0021594:	e51b300c 	ldr	r3, [fp, #-12]
d0021598:	e0823003 	add	r3, r2, r3
d002159c:	e5d33000 	ldrb	r3, [r3]
d00215a0:	e1a02003 	mov	r2, r3
d00215a4:	e51b3008 	ldr	r3, [fp, #-8]
d00215a8:	e2233002 	eor	r3, r3, #2
d00215ac:	e0023003 	and	r3, r2, r3
d00215b0:	e3530000 	cmp	r3, #0
d00215b4:	0a000001 	beq	d00215c0 <lcd_draw_picture+0xb0>
d00215b8:	e3a030c0 	mov	r3, #192	; 0xc0
d00215bc:	ea000000 	b	d00215c4 <lcd_draw_picture+0xb4>
d00215c0:	e3e034ff 	mvn	r3, #-16777216	; 0xff000000
d00215c4:	e50b3010 	str	r3, [fp, #-16]
d00215c8:	e51b1018 	ldr	r1, [fp, #-24]
d00215cc:	e51b2014 	ldr	r2, [fp, #-20]
d00215d0:	e51b3010 	ldr	r3, [fp, #-16]
d00215d4:	e1a00001 	mov	r0, r1
d00215d8:	e1a01002 	mov	r1, r2
d00215dc:	e1a02003 	mov	r2, r3
d00215e0:	ebfffc8d 	bl	d002081c <lcd_draw_pixel>
d00215e4:	e51b3008 	ldr	r3, [fp, #-8]
d00215e8:	e3530007 	cmp	r3, #7
d00215ec:	9a000004 	bls	d0021604 <lcd_draw_picture+0xf4>
d00215f0:	e3a03000 	mov	r3, #0
d00215f4:	e50b3008 	str	r3, [fp, #-8]
d00215f8:	e51b300c 	ldr	r3, [fp, #-12]
d00215fc:	e2833001 	add	r3, r3, #1
d0021600:	e50b300c 	str	r3, [fp, #-12]
d0021604:	e51b3008 	ldr	r3, [fp, #-8]
d0021608:	e2833001 	add	r3, r3, #1
d002160c:	e50b3008 	str	r3, [fp, #-8]
d0021610:	e51b3014 	ldr	r3, [fp, #-20]
d0021614:	e2833001 	add	r3, r3, #1
d0021618:	e50b3014 	str	r3, [fp, #-20]
d002161c:	e51b2014 	ldr	r2, [fp, #-20]
d0021620:	e59f3028 	ldr	r3, [pc, #40]	; d0021650 <lcd_draw_picture+0x140>
d0021624:	e1520003 	cmp	r2, r3
d0021628:	9affffc6 	bls	d0021548 <lcd_draw_picture+0x38>
d002162c:	e51b3018 	ldr	r3, [fp, #-24]
d0021630:	e2833001 	add	r3, r3, #1
d0021634:	e50b3018 	str	r3, [fp, #-24]
d0021638:	e51b2018 	ldr	r2, [fp, #-24]
d002163c:	e59f3010 	ldr	r3, [pc, #16]	; d0021654 <lcd_draw_picture+0x144>
d0021640:	e1520003 	cmp	r2, r3
d0021644:	9affffbc 	bls	d002153c <lcd_draw_picture+0x2c>
d0021648:	e24bd004 	sub	sp, fp, #4
d002164c:	e8bd8800 	pop	{fp, pc}
d0021650:	00000257 	andeq	r0, r0, r7, asr r2
d0021654:	000003ff 	strdeq	r0, [r0], -pc

d0021658 <draw_ascii_ok16>:
d0021658:	e92d4800 	push	{fp, lr}
d002165c:	e28db004 	add	fp, sp, #4
d0021660:	e24dd018 	sub	sp, sp, #24
d0021664:	e50b0010 	str	r0, [fp, #-16]
d0021668:	e50b1014 	str	r1, [fp, #-20]
d002166c:	e50b2018 	str	r2, [fp, #-24]
d0021670:	e50b301c 	str	r3, [fp, #-28]
d0021674:	e3a03000 	mov	r3, #0
d0021678:	e50b300c 	str	r3, [fp, #-12]
d002167c:	ea00001d 	b	d00216f8 <draw_ascii_ok16+0xa0>
d0021680:	e59f2090 	ldr	r2, [pc, #144]	; d0021718 <draw_ascii_ok16+0xc0>
d0021684:	e51b100c 	ldr	r1, [fp, #-12]
d0021688:	e51b301c 	ldr	r3, [fp, #-28]
d002168c:	e0813003 	add	r3, r1, r3
d0021690:	e5d33000 	ldrb	r3, [r3]
d0021694:	e2433061 	sub	r3, r3, #97	; 0x61
d0021698:	e1a03283 	lsl	r3, r3, #5
d002169c:	e0823003 	add	r3, r2, r3
d00216a0:	e50b3008 	str	r3, [fp, #-8]
d00216a4:	e51b0010 	ldr	r0, [fp, #-16]
d00216a8:	e51b1014 	ldr	r1, [fp, #-20]
d00216ac:	e51b2018 	ldr	r2, [fp, #-24]
d00216b0:	e51b3008 	ldr	r3, [fp, #-8]
d00216b4:	ebfffe4c 	bl	d0020fec <show_16_16>
d00216b8:	e51b3010 	ldr	r3, [fp, #-16]
d00216bc:	e2833014 	add	r3, r3, #20
d00216c0:	e50b3010 	str	r3, [fp, #-16]
d00216c4:	e51b2010 	ldr	r2, [fp, #-16]
d00216c8:	e59f304c 	ldr	r3, [pc, #76]	; d002171c <draw_ascii_ok16+0xc4>
d00216cc:	e1520003 	cmp	r2, r3
d00216d0:	9a000005 	bls	d00216ec <draw_ascii_ok16+0x94>
d00216d4:	e51b3010 	ldr	r3, [fp, #-16]
d00216d8:	e2433b01 	sub	r3, r3, #1024	; 0x400
d00216dc:	e50b3010 	str	r3, [fp, #-16]
d00216e0:	e51b3014 	ldr	r3, [fp, #-20]
d00216e4:	e2833010 	add	r3, r3, #16
d00216e8:	e50b3014 	str	r3, [fp, #-20]
d00216ec:	e51b300c 	ldr	r3, [fp, #-12]
d00216f0:	e2833001 	add	r3, r3, #1
d00216f4:	e50b300c 	str	r3, [fp, #-12]
d00216f8:	e51b200c 	ldr	r2, [fp, #-12]
d00216fc:	e51b301c 	ldr	r3, [fp, #-28]
d0021700:	e0823003 	add	r3, r2, r3
d0021704:	e5d33000 	ldrb	r3, [r3]
d0021708:	e3530000 	cmp	r3, #0
d002170c:	1affffdb 	bne	d0021680 <draw_ascii_ok16+0x28>
d0021710:	e24bd004 	sub	sp, fp, #4
d0021714:	e8bd8800 	pop	{fp, pc}
d0021718:	d00223ac 	andle	r2, r2, ip, lsr #7
d002171c:	000003ff 	strdeq	r0, [r0], -pc

d0021720 <draw_ascii_ok8>:
d0021720:	e92d4800 	push	{fp, lr}
d0021724:	e28db004 	add	fp, sp, #4
d0021728:	e24dd018 	sub	sp, sp, #24
d002172c:	e50b0010 	str	r0, [fp, #-16]
d0021730:	e50b1014 	str	r1, [fp, #-20]
d0021734:	e50b2018 	str	r2, [fp, #-24]
d0021738:	e50b301c 	str	r3, [fp, #-28]
d002173c:	e3a03000 	mov	r3, #0
d0021740:	e50b300c 	str	r3, [fp, #-12]
d0021744:	ea00001d 	b	d00217c0 <draw_ascii_ok8+0xa0>
d0021748:	e51b200c 	ldr	r2, [fp, #-12]
d002174c:	e51b301c 	ldr	r3, [fp, #-28]
d0021750:	e0823003 	add	r3, r2, r3
d0021754:	e5d33000 	ldrb	r3, [r3]
d0021758:	e2433020 	sub	r3, r3, #32
d002175c:	e1a02203 	lsl	r2, r3, #4
d0021760:	e59f3078 	ldr	r3, [pc, #120]	; d00217e0 <draw_ascii_ok8+0xc0>
d0021764:	e0823003 	add	r3, r2, r3
d0021768:	e50b3008 	str	r3, [fp, #-8]
d002176c:	e51b0010 	ldr	r0, [fp, #-16]
d0021770:	e51b1014 	ldr	r1, [fp, #-20]
d0021774:	e51b2018 	ldr	r2, [fp, #-24]
d0021778:	e51b3008 	ldr	r3, [fp, #-8]
d002177c:	ebfffdd2 	bl	d0020ecc <show_8_16>
d0021780:	e51b3010 	ldr	r3, [fp, #-16]
d0021784:	e2833008 	add	r3, r3, #8
d0021788:	e50b3010 	str	r3, [fp, #-16]
d002178c:	e51b2010 	ldr	r2, [fp, #-16]
d0021790:	e59f304c 	ldr	r3, [pc, #76]	; d00217e4 <draw_ascii_ok8+0xc4>
d0021794:	e1520003 	cmp	r2, r3
d0021798:	9a000005 	bls	d00217b4 <draw_ascii_ok8+0x94>
d002179c:	e51b3010 	ldr	r3, [fp, #-16]
d00217a0:	e2433b01 	sub	r3, r3, #1024	; 0x400
d00217a4:	e50b3010 	str	r3, [fp, #-16]
d00217a8:	e51b3014 	ldr	r3, [fp, #-20]
d00217ac:	e2833010 	add	r3, r3, #16
d00217b0:	e50b3014 	str	r3, [fp, #-20]
d00217b4:	e51b300c 	ldr	r3, [fp, #-12]
d00217b8:	e2833001 	add	r3, r3, #1
d00217bc:	e50b300c 	str	r3, [fp, #-12]
d00217c0:	e51b200c 	ldr	r2, [fp, #-12]
d00217c4:	e51b301c 	ldr	r3, [fp, #-28]
d00217c8:	e0823003 	add	r3, r2, r3
d00217cc:	e5d33000 	ldrb	r3, [r3]
d00217d0:	e3530000 	cmp	r3, #0
d00217d4:	1affffdb 	bne	d0021748 <draw_ascii_ok8+0x28>
d00217d8:	e24bd004 	sub	sp, fp, #4
d00217dc:	e8bd8800 	pop	{fp, pc}
d00217e0:	d0021dbc 	strhle	r1, [r2], -ip
d00217e4:	000003ff 	strdeq	r0, [r0], -pc

d00217e8 <draw_triangle>:
d00217e8:	e92d4800 	push	{fp, lr}
d00217ec:	e28db004 	add	fp, sp, #4
d00217f0:	e24dd020 	sub	sp, sp, #32
d00217f4:	e50b0018 	str	r0, [fp, #-24]
d00217f8:	e50b101c 	str	r1, [fp, #-28]
d00217fc:	e50b2020 	str	r2, [fp, #-32]
d0021800:	e50b3024 	str	r3, [fp, #-36]	; 0x24
d0021804:	e51b2018 	ldr	r2, [fp, #-24]
d0021808:	e51b3020 	ldr	r3, [fp, #-32]
d002180c:	e1520003 	cmp	r2, r3
d0021810:	9a00000b 	bls	d0021844 <draw_triangle+0x5c>
d0021814:	e51b3018 	ldr	r3, [fp, #-24]
d0021818:	e50b3010 	str	r3, [fp, #-16]
d002181c:	e51b3020 	ldr	r3, [fp, #-32]
d0021820:	e50b3018 	str	r3, [fp, #-24]
d0021824:	e51b3010 	ldr	r3, [fp, #-16]
d0021828:	e50b3020 	str	r3, [fp, #-32]
d002182c:	e51b301c 	ldr	r3, [fp, #-28]
d0021830:	e50b3010 	str	r3, [fp, #-16]
d0021834:	e51b3024 	ldr	r3, [fp, #-36]	; 0x24
d0021838:	e50b301c 	str	r3, [fp, #-28]
d002183c:	e51b3010 	ldr	r3, [fp, #-16]
d0021840:	e50b3024 	str	r3, [fp, #-36]	; 0x24
d0021844:	e51b2018 	ldr	r2, [fp, #-24]
d0021848:	e59b3004 	ldr	r3, [fp, #4]
d002184c:	e1520003 	cmp	r2, r3
d0021850:	9a00000b 	bls	d0021884 <draw_triangle+0x9c>
d0021854:	e51b3018 	ldr	r3, [fp, #-24]
d0021858:	e50b3010 	str	r3, [fp, #-16]
d002185c:	e59b3004 	ldr	r3, [fp, #4]
d0021860:	e50b3018 	str	r3, [fp, #-24]
d0021864:	e51b3010 	ldr	r3, [fp, #-16]
d0021868:	e58b3004 	str	r3, [fp, #4]
d002186c:	e51b301c 	ldr	r3, [fp, #-28]
d0021870:	e50b3010 	str	r3, [fp, #-16]
d0021874:	e59b3008 	ldr	r3, [fp, #8]
d0021878:	e50b301c 	str	r3, [fp, #-28]
d002187c:	e51b3010 	ldr	r3, [fp, #-16]
d0021880:	e58b3008 	str	r3, [fp, #8]
d0021884:	e51b2020 	ldr	r2, [fp, #-32]
d0021888:	e59b3004 	ldr	r3, [fp, #4]
d002188c:	e1520003 	cmp	r2, r3
d0021890:	9a00000b 	bls	d00218c4 <draw_triangle+0xdc>
d0021894:	e51b3020 	ldr	r3, [fp, #-32]
d0021898:	e50b3010 	str	r3, [fp, #-16]
d002189c:	e59b3004 	ldr	r3, [fp, #4]
d00218a0:	e50b3020 	str	r3, [fp, #-32]
d00218a4:	e51b3010 	ldr	r3, [fp, #-16]
d00218a8:	e58b3004 	str	r3, [fp, #4]
d00218ac:	e51b3024 	ldr	r3, [fp, #-36]	; 0x24
d00218b0:	e50b3010 	str	r3, [fp, #-16]
d00218b4:	e59b3008 	ldr	r3, [fp, #8]
d00218b8:	e50b3024 	str	r3, [fp, #-36]	; 0x24
d00218bc:	e51b3010 	ldr	r3, [fp, #-16]
d00218c0:	e58b3008 	str	r3, [fp, #8]
d00218c4:	e3a03000 	mov	r3, #0
d00218c8:	e50b300c 	str	r3, [fp, #-12]
d00218cc:	ea000119 	b	d0021d38 <draw_triangle+0x550>
d00218d0:	e3a03000 	mov	r3, #0
d00218d4:	e50b3008 	str	r3, [fp, #-8]
d00218d8:	ea00010f 	b	d0021d1c <draw_triangle+0x534>
d00218dc:	e51b201c 	ldr	r2, [fp, #-28]
d00218e0:	e51b3024 	ldr	r3, [fp, #-36]	; 0x24
d00218e4:	e1520003 	cmp	r2, r3
d00218e8:	33a02000 	movcc	r2, #0
d00218ec:	23a02001 	movcs	r2, #1
d00218f0:	e51b1024 	ldr	r1, [fp, #-36]	; 0x24
d00218f4:	e59b3008 	ldr	r3, [fp, #8]
d00218f8:	e1510003 	cmp	r1, r3
d00218fc:	33a03000 	movcc	r3, #0
d0021900:	23a03001 	movcs	r3, #1
d0021904:	e0023003 	and	r3, r2, r3
d0021908:	e20320ff 	and	r2, r3, #255	; 0xff
d002190c:	e51b101c 	ldr	r1, [fp, #-28]
d0021910:	e51b3024 	ldr	r3, [fp, #-36]	; 0x24
d0021914:	e1510003 	cmp	r1, r3
d0021918:	83a01000 	movhi	r1, #0
d002191c:	93a01001 	movls	r1, #1
d0021920:	e51b0024 	ldr	r0, [fp, #-36]	; 0x24
d0021924:	e59b3008 	ldr	r3, [fp, #8]
d0021928:	e1500003 	cmp	r0, r3
d002192c:	83a03000 	movhi	r3, #0
d0021930:	93a03001 	movls	r3, #1
d0021934:	e0013003 	and	r3, r1, r3
d0021938:	e20330ff 	and	r3, r3, #255	; 0xff
d002193c:	e1823003 	orr	r3, r2, r3
d0021940:	e20330ff 	and	r3, r3, #255	; 0xff
d0021944:	e3530000 	cmp	r3, #0
d0021948:	0a000075 	beq	d0021b24 <draw_triangle+0x33c>
d002194c:	e51b2018 	ldr	r2, [fp, #-24]
d0021950:	e59b3004 	ldr	r3, [fp, #4]
d0021954:	e0633002 	rsb	r3, r3, r2
d0021958:	e51b2024 	ldr	r2, [fp, #-36]	; 0x24
d002195c:	e0020293 	mul	r2, r3, r2
d0021960:	e51b101c 	ldr	r1, [fp, #-28]
d0021964:	e59b3008 	ldr	r3, [fp, #8]
d0021968:	e0633001 	rsb	r3, r3, r1
d002196c:	e51b1020 	ldr	r1, [fp, #-32]
d0021970:	e0030391 	mul	r3, r1, r3
d0021974:	e1520003 	cmp	r2, r3
d0021978:	8a000034 	bhi	d0021a50 <draw_triangle+0x268>
d002197c:	e51b2018 	ldr	r2, [fp, #-24]
d0021980:	e51b3020 	ldr	r3, [fp, #-32]
d0021984:	e0633002 	rsb	r3, r3, r2
d0021988:	e51b2008 	ldr	r2, [fp, #-8]
d002198c:	e0020293 	mul	r2, r3, r2
d0021990:	e51b101c 	ldr	r1, [fp, #-28]
d0021994:	e51b3024 	ldr	r3, [fp, #-36]	; 0x24
d0021998:	e0633001 	rsb	r3, r3, r1
d002199c:	e51b100c 	ldr	r1, [fp, #-12]
d00219a0:	e0030391 	mul	r3, r1, r3
d00219a4:	e1520003 	cmp	r2, r3
d00219a8:	33a03000 	movcc	r3, #0
d00219ac:	23a03001 	movcs	r3, #1
d00219b0:	e20320ff 	and	r2, r3, #255	; 0xff
d00219b4:	e51b1020 	ldr	r1, [fp, #-32]
d00219b8:	e59b3004 	ldr	r3, [fp, #4]
d00219bc:	e0633001 	rsb	r3, r3, r1
d00219c0:	e51b1008 	ldr	r1, [fp, #-8]
d00219c4:	e0010193 	mul	r1, r3, r1
d00219c8:	e51b0024 	ldr	r0, [fp, #-36]	; 0x24
d00219cc:	e59b3008 	ldr	r3, [fp, #8]
d00219d0:	e0633000 	rsb	r3, r3, r0
d00219d4:	e51b000c 	ldr	r0, [fp, #-12]
d00219d8:	e0030390 	mul	r3, r0, r3
d00219dc:	e1510003 	cmp	r1, r3
d00219e0:	33a03000 	movcc	r3, #0
d00219e4:	23a03001 	movcs	r3, #1
d00219e8:	e20330ff 	and	r3, r3, #255	; 0xff
d00219ec:	e0023003 	and	r3, r2, r3
d00219f0:	e20330ff 	and	r3, r3, #255	; 0xff
d00219f4:	e1a02003 	mov	r2, r3
d00219f8:	e51b101c 	ldr	r1, [fp, #-28]
d00219fc:	e59b3008 	ldr	r3, [fp, #8]
d0021a00:	e0633001 	rsb	r3, r3, r1
d0021a04:	e51b100c 	ldr	r1, [fp, #-12]
d0021a08:	e0010193 	mul	r1, r3, r1
d0021a0c:	e51b0018 	ldr	r0, [fp, #-24]
d0021a10:	e59b3004 	ldr	r3, [fp, #4]
d0021a14:	e0633000 	rsb	r3, r3, r0
d0021a18:	e51b0008 	ldr	r0, [fp, #-8]
d0021a1c:	e0030390 	mul	r3, r0, r3
d0021a20:	e1510003 	cmp	r1, r3
d0021a24:	33a03000 	movcc	r3, #0
d0021a28:	23a03001 	movcs	r3, #1
d0021a2c:	e0023003 	and	r3, r2, r3
d0021a30:	e3530000 	cmp	r3, #0
d0021a34:	0a0000b0 	beq	d0021cfc <draw_triangle+0x514>
d0021a38:	e59b300c 	ldr	r3, [fp, #12]
d0021a3c:	e51b000c 	ldr	r0, [fp, #-12]
d0021a40:	e51b1008 	ldr	r1, [fp, #-8]
d0021a44:	e1a02003 	mov	r2, r3
d0021a48:	ebfffb73 	bl	d002081c <lcd_draw_pixel>
d0021a4c:	ea0000af 	b	d0021d10 <draw_triangle+0x528>
d0021a50:	e51b2018 	ldr	r2, [fp, #-24]
d0021a54:	e51b3020 	ldr	r3, [fp, #-32]
d0021a58:	e0633002 	rsb	r3, r3, r2
d0021a5c:	e51b2008 	ldr	r2, [fp, #-8]
d0021a60:	e0020293 	mul	r2, r3, r2
d0021a64:	e51b101c 	ldr	r1, [fp, #-28]
d0021a68:	e51b3024 	ldr	r3, [fp, #-36]	; 0x24
d0021a6c:	e0633001 	rsb	r3, r3, r1
d0021a70:	e51b100c 	ldr	r1, [fp, #-12]
d0021a74:	e0030391 	mul	r3, r1, r3
d0021a78:	e1520003 	cmp	r2, r3
d0021a7c:	83a03000 	movhi	r3, #0
d0021a80:	93a03001 	movls	r3, #1
d0021a84:	e20320ff 	and	r2, r3, #255	; 0xff
d0021a88:	e51b1020 	ldr	r1, [fp, #-32]
d0021a8c:	e59b3004 	ldr	r3, [fp, #4]
d0021a90:	e0633001 	rsb	r3, r3, r1
d0021a94:	e51b1008 	ldr	r1, [fp, #-8]
d0021a98:	e0010193 	mul	r1, r3, r1
d0021a9c:	e51b0024 	ldr	r0, [fp, #-36]	; 0x24
d0021aa0:	e59b3008 	ldr	r3, [fp, #8]
d0021aa4:	e0633000 	rsb	r3, r3, r0
d0021aa8:	e51b000c 	ldr	r0, [fp, #-12]
d0021aac:	e0030390 	mul	r3, r0, r3
d0021ab0:	e1510003 	cmp	r1, r3
d0021ab4:	83a03000 	movhi	r3, #0
d0021ab8:	93a03001 	movls	r3, #1
d0021abc:	e20330ff 	and	r3, r3, #255	; 0xff
d0021ac0:	e0023003 	and	r3, r2, r3
d0021ac4:	e20330ff 	and	r3, r3, #255	; 0xff
d0021ac8:	e1a02003 	mov	r2, r3
d0021acc:	e51b101c 	ldr	r1, [fp, #-28]
d0021ad0:	e59b3008 	ldr	r3, [fp, #8]
d0021ad4:	e0633001 	rsb	r3, r3, r1
d0021ad8:	e51b100c 	ldr	r1, [fp, #-12]
d0021adc:	e0010193 	mul	r1, r3, r1
d0021ae0:	e51b0018 	ldr	r0, [fp, #-24]
d0021ae4:	e59b3004 	ldr	r3, [fp, #4]
d0021ae8:	e0633000 	rsb	r3, r3, r0
d0021aec:	e51b0008 	ldr	r0, [fp, #-8]
d0021af0:	e0030390 	mul	r3, r0, r3
d0021af4:	e1510003 	cmp	r1, r3
d0021af8:	83a03000 	movhi	r3, #0
d0021afc:	93a03001 	movls	r3, #1
d0021b00:	e0023003 	and	r3, r2, r3
d0021b04:	e3530000 	cmp	r3, #0
d0021b08:	0a00007d 	beq	d0021d04 <draw_triangle+0x51c>
d0021b0c:	e59b300c 	ldr	r3, [fp, #12]
d0021b10:	e51b000c 	ldr	r0, [fp, #-12]
d0021b14:	e51b1008 	ldr	r1, [fp, #-8]
d0021b18:	e1a02003 	mov	r2, r3
d0021b1c:	ebfffb3e 	bl	d002081c <lcd_draw_pixel>
d0021b20:	ea00007a 	b	d0021d10 <draw_triangle+0x528>
d0021b24:	e51b2018 	ldr	r2, [fp, #-24]
d0021b28:	e59b3004 	ldr	r3, [fp, #4]
d0021b2c:	e0633002 	rsb	r3, r3, r2
d0021b30:	e51b2024 	ldr	r2, [fp, #-36]	; 0x24
d0021b34:	e0020293 	mul	r2, r3, r2
d0021b38:	e51b101c 	ldr	r1, [fp, #-28]
d0021b3c:	e59b3008 	ldr	r3, [fp, #8]
d0021b40:	e0633001 	rsb	r3, r3, r1
d0021b44:	e51b1020 	ldr	r1, [fp, #-32]
d0021b48:	e0030391 	mul	r3, r1, r3
d0021b4c:	e1520003 	cmp	r2, r3
d0021b50:	8a000034 	bhi	d0021c28 <draw_triangle+0x440>
d0021b54:	e51b2018 	ldr	r2, [fp, #-24]
d0021b58:	e51b3020 	ldr	r3, [fp, #-32]
d0021b5c:	e0633002 	rsb	r3, r3, r2
d0021b60:	e51b2008 	ldr	r2, [fp, #-8]
d0021b64:	e0020293 	mul	r2, r3, r2
d0021b68:	e51b101c 	ldr	r1, [fp, #-28]
d0021b6c:	e51b3024 	ldr	r3, [fp, #-36]	; 0x24
d0021b70:	e0633001 	rsb	r3, r3, r1
d0021b74:	e51b100c 	ldr	r1, [fp, #-12]
d0021b78:	e0030391 	mul	r3, r1, r3
d0021b7c:	e1520003 	cmp	r2, r3
d0021b80:	83a03000 	movhi	r3, #0
d0021b84:	93a03001 	movls	r3, #1
d0021b88:	e20320ff 	and	r2, r3, #255	; 0xff
d0021b8c:	e51b1020 	ldr	r1, [fp, #-32]
d0021b90:	e59b3004 	ldr	r3, [fp, #4]
d0021b94:	e0633001 	rsb	r3, r3, r1
d0021b98:	e51b1008 	ldr	r1, [fp, #-8]
d0021b9c:	e0010193 	mul	r1, r3, r1
d0021ba0:	e51b0024 	ldr	r0, [fp, #-36]	; 0x24
d0021ba4:	e59b3008 	ldr	r3, [fp, #8]
d0021ba8:	e0633000 	rsb	r3, r3, r0
d0021bac:	e51b000c 	ldr	r0, [fp, #-12]
d0021bb0:	e0030390 	mul	r3, r0, r3
d0021bb4:	e1510003 	cmp	r1, r3
d0021bb8:	33a03000 	movcc	r3, #0
d0021bbc:	23a03001 	movcs	r3, #1
d0021bc0:	e20330ff 	and	r3, r3, #255	; 0xff
d0021bc4:	e0023003 	and	r3, r2, r3
d0021bc8:	e20330ff 	and	r3, r3, #255	; 0xff
d0021bcc:	e1a02003 	mov	r2, r3
d0021bd0:	e51b101c 	ldr	r1, [fp, #-28]
d0021bd4:	e59b3008 	ldr	r3, [fp, #8]
d0021bd8:	e0633001 	rsb	r3, r3, r1
d0021bdc:	e51b100c 	ldr	r1, [fp, #-12]
d0021be0:	e0010193 	mul	r1, r3, r1
d0021be4:	e51b0018 	ldr	r0, [fp, #-24]
d0021be8:	e59b3004 	ldr	r3, [fp, #4]
d0021bec:	e0633000 	rsb	r3, r3, r0
d0021bf0:	e51b0008 	ldr	r0, [fp, #-8]
d0021bf4:	e0030390 	mul	r3, r0, r3
d0021bf8:	e1510003 	cmp	r1, r3
d0021bfc:	33a03000 	movcc	r3, #0
d0021c00:	23a03001 	movcs	r3, #1
d0021c04:	e0023003 	and	r3, r2, r3
d0021c08:	e3530000 	cmp	r3, #0
d0021c0c:	0a00003e 	beq	d0021d0c <draw_triangle+0x524>
d0021c10:	e59b300c 	ldr	r3, [fp, #12]
d0021c14:	e51b000c 	ldr	r0, [fp, #-12]
d0021c18:	e51b1008 	ldr	r1, [fp, #-8]
d0021c1c:	e1a02003 	mov	r2, r3
d0021c20:	ebfffafd 	bl	d002081c <lcd_draw_pixel>
d0021c24:	ea000039 	b	d0021d10 <draw_triangle+0x528>
d0021c28:	e51b2018 	ldr	r2, [fp, #-24]
d0021c2c:	e51b3020 	ldr	r3, [fp, #-32]
d0021c30:	e0633002 	rsb	r3, r3, r2
d0021c34:	e51b2008 	ldr	r2, [fp, #-8]
d0021c38:	e0020293 	mul	r2, r3, r2
d0021c3c:	e51b101c 	ldr	r1, [fp, #-28]
d0021c40:	e51b3024 	ldr	r3, [fp, #-36]	; 0x24
d0021c44:	e0633001 	rsb	r3, r3, r1
d0021c48:	e51b100c 	ldr	r1, [fp, #-12]
d0021c4c:	e0030391 	mul	r3, r1, r3
d0021c50:	e1520003 	cmp	r2, r3
d0021c54:	83a03000 	movhi	r3, #0
d0021c58:	93a03001 	movls	r3, #1
d0021c5c:	e20320ff 	and	r2, r3, #255	; 0xff
d0021c60:	e51b1020 	ldr	r1, [fp, #-32]
d0021c64:	e59b3004 	ldr	r3, [fp, #4]
d0021c68:	e0633001 	rsb	r3, r3, r1
d0021c6c:	e51b1008 	ldr	r1, [fp, #-8]
d0021c70:	e0010193 	mul	r1, r3, r1
d0021c74:	e51b0024 	ldr	r0, [fp, #-36]	; 0x24
d0021c78:	e59b3008 	ldr	r3, [fp, #8]
d0021c7c:	e0633000 	rsb	r3, r3, r0
d0021c80:	e51b000c 	ldr	r0, [fp, #-12]
d0021c84:	e0030390 	mul	r3, r0, r3
d0021c88:	e1510003 	cmp	r1, r3
d0021c8c:	33a03000 	movcc	r3, #0
d0021c90:	23a03001 	movcs	r3, #1
d0021c94:	e20330ff 	and	r3, r3, #255	; 0xff
d0021c98:	e0023003 	and	r3, r2, r3
d0021c9c:	e20330ff 	and	r3, r3, #255	; 0xff
d0021ca0:	e1a02003 	mov	r2, r3
d0021ca4:	e51b101c 	ldr	r1, [fp, #-28]
d0021ca8:	e59b3008 	ldr	r3, [fp, #8]
d0021cac:	e0633001 	rsb	r3, r3, r1
d0021cb0:	e51b100c 	ldr	r1, [fp, #-12]
d0021cb4:	e0010193 	mul	r1, r3, r1
d0021cb8:	e51b0018 	ldr	r0, [fp, #-24]
d0021cbc:	e59b3004 	ldr	r3, [fp, #4]
d0021cc0:	e0633000 	rsb	r3, r3, r0
d0021cc4:	e51b0008 	ldr	r0, [fp, #-8]
d0021cc8:	e0030390 	mul	r3, r0, r3
d0021ccc:	e1510003 	cmp	r1, r3
d0021cd0:	83a03000 	movhi	r3, #0
d0021cd4:	93a03001 	movls	r3, #1
d0021cd8:	e0023003 	and	r3, r2, r3
d0021cdc:	e3530000 	cmp	r3, #0
d0021ce0:	0a00000a 	beq	d0021d10 <draw_triangle+0x528>
d0021ce4:	e59b300c 	ldr	r3, [fp, #12]
d0021ce8:	e51b000c 	ldr	r0, [fp, #-12]
d0021cec:	e51b1008 	ldr	r1, [fp, #-8]
d0021cf0:	e1a02003 	mov	r2, r3
d0021cf4:	ebfffac8 	bl	d002081c <lcd_draw_pixel>
d0021cf8:	ea000004 	b	d0021d10 <draw_triangle+0x528>
d0021cfc:	e1a00000 	nop			; (mov r0, r0)
d0021d00:	ea000002 	b	d0021d10 <draw_triangle+0x528>
d0021d04:	e1a00000 	nop			; (mov r0, r0)
d0021d08:	ea000000 	b	d0021d10 <draw_triangle+0x528>
d0021d0c:	e1a00000 	nop			; (mov r0, r0)
d0021d10:	e51b3008 	ldr	r3, [fp, #-8]
d0021d14:	e2833001 	add	r3, r3, #1
d0021d18:	e50b3008 	str	r3, [fp, #-8]
d0021d1c:	e51b2008 	ldr	r2, [fp, #-8]
d0021d20:	e59f3028 	ldr	r3, [pc, #40]	; d0021d50 <draw_triangle+0x568>
d0021d24:	e1520003 	cmp	r2, r3
d0021d28:	dafffeeb 	ble	d00218dc <draw_triangle+0xf4>
d0021d2c:	e51b300c 	ldr	r3, [fp, #-12]
d0021d30:	e2833001 	add	r3, r3, #1
d0021d34:	e50b300c 	str	r3, [fp, #-12]
d0021d38:	e51b200c 	ldr	r2, [fp, #-12]
d0021d3c:	e59f3010 	ldr	r3, [pc, #16]	; d0021d54 <draw_triangle+0x56c>
d0021d40:	e1520003 	cmp	r2, r3
d0021d44:	dafffee1 	ble	d00218d0 <draw_triangle+0xe8>
d0021d48:	e24bd004 	sub	sp, fp, #4
d0021d4c:	e8bd8800 	pop	{fp, pc}
d0021d50:	00000257 	andeq	r0, r0, r7, asr r2
d0021d54:	000003ff 	strdeq	r0, [r0], -pc

d0021d58 <lcd_test>:
d0021d58:	e92d4800 	push	{fp, lr}
d0021d5c:	e28db004 	add	fp, sp, #4
d0021d60:	e24dd010 	sub	sp, sp, #16
d0021d64:	ebfffa31 	bl	d0020630 <lcd_init>
d0021d68:	e3e004ff 	mvn	r0, #-16777216	; 0xff000000
d0021d6c:	ebfffabf 	bl	d0020870 <lcd_draw_background>
d0021d70:	e3a03f96 	mov	r3, #600	; 0x258
d0021d74:	e58d3000 	str	r3, [sp]
d0021d78:	e3a03e19 	mov	r3, #400	; 0x190
d0021d7c:	e58d3004 	str	r3, [sp, #4]
d0021d80:	e3a038ff 	mov	r3, #16711680	; 0xff0000
d0021d84:	e58d3008 	str	r3, [sp, #8]
d0021d88:	e3a00e19 	mov	r0, #400	; 0x190
d0021d8c:	e3a01e19 	mov	r1, #400	; 0x190
d0021d90:	e3a02f7d 	mov	r2, #500	; 0x1f4
d0021d94:	e3a030c8 	mov	r3, #200	; 0xc8
d0021d98:	ebfffe92 	bl	d00217e8 <draw_triangle>
d0021d9c:	e24bd004 	sub	sp, fp, #4
d0021da0:	e8bd8800 	pop	{fp, pc}

d0021da4 <main>:
d0021da4:	e92d4800 	push	{fp, lr}
d0021da8:	e28db004 	add	fp, sp, #4
d0021dac:	ebffffe9 	bl	d0021d58 <lcd_test>
d0021db0:	e3a03000 	mov	r3, #0
d0021db4:	e1a00003 	mov	r0, r3
d0021db8:	e8bd8800 	pop	{fp, pc}

Disassembly of section .rodata:

d0021dbc <ascii_8_16>:
	...
d0021dcc:	08000000 	stmdaeq	r0, {}
d0021dd0:	08080808 	stmdaeq	r8, {r3, fp}
d0021dd4:	00000808 	andeq	r0, r0, r8, lsl #16
d0021dd8:	00001818 	andeq	r1, r0, r8, lsl r8
d0021ddc:	246c4800 	strbtcs	r4, [ip], #-2048	; 0x800
d0021de0:	00000012 	andeq	r0, r0, r2, lsl r0
	...
d0021dec:	24000000 	strcs	r0, [r0]
d0021df0:	127f2424 	rsbsne	r2, pc, #603979776	; 0x24000000
d0021df4:	127f1212 	rsbsne	r1, pc, #536870913	; 0x20000001
d0021df8:	00001212 	andeq	r1, r0, r2, lsl r2
d0021dfc:	1c080000 	stcne	0, cr0, [r8], {0}
d0021e00:	0c0a2a2a 	stceq	10, cr2, [sl], {42}	; 0x2a
d0021e04:	2a282818 	bcs	d0a2be6c <bss_end+0x9f689c>
d0021e08:	08081c2a 	stmdaeq	r8, {r1, r3, r5, sl, fp, ip}
d0021e0c:	22000000 	andcs	r0, r0, #0
d0021e10:	15151525 	ldrne	r1, [r5, #-1317]	; 0x525
d0021e14:	5454582a 	ldrbpl	r5, [r4], #-2090	; 0x82a
d0021e18:	00002254 	andeq	r2, r0, r4, asr r2
d0021e1c:	0c000000 	stceq	0, cr0, [r0], {0}
d0021e20:	0a121212 	beq	d04a6670 <bss_end+0x4710a0>
d0021e24:	11292576 	teqne	r9, r6, ror r5
d0021e28:	00006e91 	muleq	r0, r1, lr
d0021e2c:	04060600 	streq	r0, [r6], #-1536	; 0x600
d0021e30:	00000003 	andeq	r0, r0, r3
	...
d0021e3c:	10204000 	eorne	r4, r0, r0
d0021e40:	08080810 	stmdaeq	r8, {r4, fp}
d0021e44:	10080808 	andne	r0, r8, r8, lsl #16
d0021e48:	00402010 	subeq	r2, r0, r0, lsl r0
d0021e4c:	08040200 	stmdaeq	r4, {r9}
d0021e50:	10101008 	andsne	r1, r0, r8
d0021e54:	08101010 	ldmdaeq	r0, {r4, ip}
d0021e58:	00020408 	andeq	r0, r2, r8, lsl #8
d0021e5c:	00000000 	andeq	r0, r0, r0
d0021e60:	1c6b0808 	stclne	8, cr0, [fp], #-32	; 0xffffffe0
d0021e64:	08086b1c 	stmdaeq	r8, {r2, r3, r4, r8, r9, fp, sp, lr}
	...
d0021e70:	08080808 	stmdaeq	r8, {r3, fp}
d0021e74:	0808087f 	stmdaeq	r8, {r0, r1, r2, r3, r4, r5, r6, fp}
d0021e78:	00000008 	andeq	r0, r0, r8
	...
d0021e88:	03040606 	movweq	r0, #17926	; 0x4606
	...
d0021e94:	000000fe 	strdeq	r0, [r0], -lr
	...
d0021ea8:	00000606 	andeq	r0, r0, r6, lsl #12
d0021eac:	40800000 	addmi	r0, r0, r0
d0021eb0:	10202040 	eorne	r2, r0, r0, asr #32
d0021eb4:	04080810 	streq	r0, [r8], #-2064	; 0x810
d0021eb8:	00020204 	andeq	r0, r2, r4, lsl #4
d0021ebc:	18000000 	stmdane	r0, {}
d0021ec0:	42424224 	submi	r4, r2, #1073741826	; 0x40000002
d0021ec4:	42424242 	submi	r4, r2, #536870916	; 0x20000004
d0021ec8:	00001824 	andeq	r1, r0, r4, lsr #16
d0021ecc:	08000000 	stmdaeq	r0, {}
d0021ed0:	0808080e 	stmdaeq	r8, {r1, r2, r3, fp}
d0021ed4:	08080808 	stmdaeq	r8, {r3, fp}
d0021ed8:	00003e08 	andeq	r3, r0, r8, lsl #28
d0021edc:	3c000000 	stccc	0, cr0, [r0], {0}
d0021ee0:	20424242 	subcs	r4, r2, r2, asr #4
d0021ee4:	04081020 	streq	r1, [r8], #-32
d0021ee8:	00007e42 	andeq	r7, r0, r2, asr #28
d0021eec:	3c000000 	stccc	0, cr0, [r0], {0}
d0021ef0:	18204242 	stmdane	r0!, {r1, r6, r9, lr}
d0021ef4:	42404020 	submi	r4, r0, #32
d0021ef8:	00001c22 	andeq	r1, r0, r2, lsr #24
d0021efc:	20000000 	andcs	r0, r0, r0
d0021f00:	24242830 	strtcs	r2, [r4], #-2096	; 0x830
d0021f04:	207e2222 	rsbscs	r2, lr, r2, lsr #4
d0021f08:	00007820 	andeq	r7, r0, r0, lsr #16
d0021f0c:	7e000000 	cdpvc	0, 0, cr0, cr0, cr0, {0}
d0021f10:	1a020202 	bne	d00a2720 <bss_end+0x6d150>
d0021f14:	42404026 	submi	r4, r0, #38	; 0x26
d0021f18:	00001c22 	andeq	r1, r0, r2, lsr #24
d0021f1c:	38000000 	stmdacc	r0, {}
d0021f20:	1a020224 	bne	d00a27b8 <bss_end+0x6d1e8>
d0021f24:	42424226 	submi	r4, r2, #1610612738	; 0x60000002
d0021f28:	00001824 	andeq	r1, r0, r4, lsr #16
d0021f2c:	7e000000 	cdpvc	0, 0, cr0, cr0, cr0, {0}
d0021f30:	10102222 	andsne	r2, r0, r2, lsr #4
d0021f34:	08080808 	stmdaeq	r8, {r3, fp}
d0021f38:	00000808 	andeq	r0, r0, r8, lsl #16
d0021f3c:	3c000000 	stccc	0, cr0, [r0], {0}
d0021f40:	24424242 	strbcs	r4, [r2], #-578	; 0x242
d0021f44:	42422418 	submi	r2, r2, #402653184	; 0x18000000
d0021f48:	00003c42 	andeq	r3, r0, r2, asr #24
d0021f4c:	18000000 	stmdane	r0, {}
d0021f50:	42424224 	submi	r4, r2, #1073741826	; 0x40000002
d0021f54:	40405864 	submi	r5, r0, r4, ror #16
d0021f58:	00001c24 	andeq	r1, r0, r4, lsr #24
d0021f5c:	00000000 	andeq	r0, r0, r0
d0021f60:	18180000 	ldmdane	r8, {}
d0021f64:	00000000 	andeq	r0, r0, r0
d0021f68:	00001818 	andeq	r1, r0, r8, lsl r8
d0021f6c:	00000000 	andeq	r0, r0, r0
d0021f70:	08000000 	stmdaeq	r0, {}
d0021f74:	00000000 	andeq	r0, r0, r0
d0021f78:	04080800 	streq	r0, [r8], #-2048	; 0x800
d0021f7c:	40000000 	andmi	r0, r0, r0
d0021f80:	04081020 	streq	r1, [r8], #-32
d0021f84:	10080402 	andne	r0, r8, r2, lsl #8
d0021f88:	00004020 	andeq	r4, r0, r0, lsr #32
d0021f8c:	00000000 	andeq	r0, r0, r0
d0021f90:	007f0000 	rsbseq	r0, pc, r0
d0021f94:	007f0000 	rsbseq	r0, pc, r0
d0021f98:	00000000 	andeq	r0, r0, r0
d0021f9c:	02000000 	andeq	r0, r0, #0
d0021fa0:	20100804 	andscs	r0, r0, r4, lsl #16
d0021fa4:	08102040 	ldmdaeq	r0, {r6, sp}
d0021fa8:	00000204 	andeq	r0, r0, r4, lsl #4
d0021fac:	3c000000 	stccc	0, cr0, [r0], {0}
d0021fb0:	40464242 	submi	r4, r6, r2, asr #4
d0021fb4:	00101020 	andseq	r1, r0, r0, lsr #32
d0021fb8:	00001818 	andeq	r1, r0, r8, lsl r8
d0021fbc:	1c000000 	stcne	0, cr0, [r0], {0}
d0021fc0:	55555a22 	ldrbpl	r5, [r5, #-2594]	; 0xa22
d0021fc4:	422d5555 	eormi	r5, sp, #356515840	; 0x15400000
d0021fc8:	00001c22 	andeq	r1, r0, r2, lsr #24
d0021fcc:	08000000 	stmdaeq	r0, {}
d0021fd0:	14141808 	ldrne	r1, [r4], #-2056	; 0x808
d0021fd4:	42223c24 	eormi	r3, r2, #9216	; 0x2400
d0021fd8:	0000e742 	andeq	lr, r0, r2, asr #14
d0021fdc:	1f000000 	svcne	0x00000000
d0021fe0:	1e222222 	cdpne	2, 2, cr2, cr2, cr2, {1}
d0021fe4:	42424222 	submi	r4, r2, #536870914	; 0x20000002
d0021fe8:	00001f22 	andeq	r1, r0, r2, lsr #30
d0021fec:	7c000000 	stcvc	0, cr0, [r0], {0}
d0021ff0:	01014242 	tsteq	r1, r2, asr #4
d0021ff4:	42010101 	andmi	r0, r1, #1073741824	; 0x40000000
d0021ff8:	00001c22 	andeq	r1, r0, r2, lsr #24
d0021ffc:	1f000000 	svcne	0x00000000
d0022000:	42424222 	submi	r4, r2, #536870914	; 0x20000002
d0022004:	42424242 	submi	r4, r2, #536870916	; 0x20000004
d0022008:	00001f22 	andeq	r1, r0, r2, lsr #30
d002200c:	3f000000 	svccc	0x00000000
d0022010:	1e121242 	cdpne	2, 1, cr1, cr2, cr2, {2}
d0022014:	42021212 	andmi	r1, r2, #536870913	; 0x20000001
d0022018:	00003f42 	andeq	r3, r0, r2, asr #30
d002201c:	3f000000 	svccc	0x00000000
d0022020:	1e121242 	cdpne	2, 1, cr1, cr2, cr2, {2}
d0022024:	02021212 	andeq	r1, r2, #536870913	; 0x20000001
d0022028:	00000702 	andeq	r0, r0, r2, lsl #14
d002202c:	3c000000 	stccc	0, cr0, [r0], {0}
d0022030:	01012222 	tsteq	r1, r2, lsr #4
d0022034:	22217101 	eorcs	r7, r1, #1073741824	; 0x40000000
d0022038:	00001c22 	andeq	r1, r0, r2, lsr #24
d002203c:	e7000000 	str	r0, [r0, -r0]
d0022040:	42424242 	submi	r4, r2, #536870916	; 0x20000004
d0022044:	4242427e 	submi	r4, r2, #-536870905	; 0xe0000007
d0022048:	0000e742 	andeq	lr, r0, r2, asr #14
d002204c:	3e000000 	cdpcc	0, 0, cr0, cr0, cr0, {0}
d0022050:	08080808 	stmdaeq	r8, {r3, fp}
d0022054:	08080808 	stmdaeq	r8, {r3, fp}
d0022058:	00003e08 	andeq	r3, r0, r8, lsl #28
d002205c:	7c000000 	stcvc	0, cr0, [r0], {0}
d0022060:	10101010 	andsne	r1, r0, r0, lsl r0
d0022064:	10101010 	andsne	r1, r0, r0, lsl r0
d0022068:	0f111010 	svceq	0x00111010
d002206c:	77000000 	strvc	r0, [r0, -r0]
d0022070:	0e0a1222 	cdpeq	2, 0, cr1, cr10, cr2, {1}
d0022074:	2212120a 	andscs	r1, r2, #-1610612736	; 0xa0000000
d0022078:	00007722 	andeq	r7, r0, r2, lsr #14
d002207c:	07000000 	streq	r0, [r0, -r0]
d0022080:	02020202 	andeq	r0, r2, #536870912	; 0x20000000
d0022084:	02020202 	andeq	r0, r2, #536870912	; 0x20000000
d0022088:	00007f42 	andeq	r7, r0, r2, asr #30
d002208c:	77000000 	strvc	r0, [r0, -r0]
d0022090:	36363636 	undefined instruction 0x36363636
d0022094:	2a2a2a2a 	bcs	d0aac944 <bss_end+0xa77374>
d0022098:	00006b2a 	andeq	r6, r0, sl, lsr #22
d002209c:	e3000000 	movw	r0, #0
d00220a0:	4a4a4646 	bmi	d12b39c0 <bss_end+0x127e3f0>
d00220a4:	62525252 	subsvs	r5, r2, #536870917	; 0x20000005
d00220a8:	00004762 	andeq	r4, r0, r2, ror #14
d00220ac:	1c000000 	stcne	0, cr0, [r0], {0}
d00220b0:	41414122 	cmpmi	r1, r2, lsr #2
d00220b4:	41414141 	cmpmi	r1, r1, asr #2
d00220b8:	00001c22 	andeq	r1, r0, r2, lsr #24
d00220bc:	3f000000 	svccc	0x00000000
d00220c0:	42424242 	submi	r4, r2, #536870916	; 0x20000004
d00220c4:	0202023e 	andeq	r0, r2, #-536870909	; 0xe0000003
d00220c8:	00000702 	andeq	r0, r0, r2, lsl #14
d00220cc:	1c000000 	stcne	0, cr0, [r0], {0}
d00220d0:	41414122 	cmpmi	r1, r2, lsr #2
d00220d4:	534d4141 	movtpl	r4, #53569	; 0xd141
d00220d8:	00601c32 	rsbeq	r1, r0, r2, lsr ip
d00220dc:	3f000000 	svccc	0x00000000
d00220e0:	3e424242 	cdpcc	2, 4, cr4, cr2, cr2, {2}
d00220e4:	22221212 	eorcs	r1, r2, #536870913	; 0x20000001
d00220e8:	0000c742 	andeq	ip, r0, r2, asr #14
d00220ec:	7c000000 	stcvc	0, cr0, [r0], {0}
d00220f0:	04024242 	streq	r4, [r2], #-578	; 0x242
d00220f4:	42402018 	submi	r2, r0, #24
d00220f8:	00003e42 	andeq	r3, r0, r2, asr #28
d00220fc:	7f000000 	svcvc	0x00000000
d0022100:	08080849 	stmdaeq	r8, {r0, r3, r6, fp}
d0022104:	08080808 	stmdaeq	r8, {r3, fp}
d0022108:	00001c08 	andeq	r1, r0, r8, lsl #24
d002210c:	e7000000 	str	r0, [r0, -r0]
d0022110:	42424242 	submi	r4, r2, #536870916	; 0x20000004
d0022114:	42424242 	submi	r4, r2, #536870916	; 0x20000004
d0022118:	00003c42 	andeq	r3, r0, r2, asr #24
d002211c:	e7000000 	str	r0, [r0, -r0]
d0022120:	24224242 	strtcs	r4, [r2], #-578	; 0x242
d0022124:	18141424 	ldmdane	r4, {r2, r5, sl, ip}
d0022128:	00000808 	andeq	r0, r0, r8, lsl #16
d002212c:	6b000000 	blvs	d0022134 <ascii_8_16+0x378>
d0022130:	49494949 	stmdbmi	r9, {r0, r3, r6, r8, fp, lr}^
d0022134:	22365555 	eorscs	r5, r6, #356515840	; 0x15400000
d0022138:	00002222 	andeq	r2, r0, r2, lsr #4
d002213c:	e7000000 	str	r0, [r0, -r0]
d0022140:	18242442 	stmdane	r4!, {r1, r6, sl, sp}
d0022144:	24241818 	strtcs	r1, [r4], #-2072	; 0x818
d0022148:	0000e742 	andeq	lr, r0, r2, asr #14
d002214c:	77000000 	strvc	r0, [r0, -r0]
d0022150:	14142222 	ldrne	r2, [r4], #-546	; 0x222
d0022154:	08080808 	stmdaeq	r8, {r3, fp}
d0022158:	00001c08 	andeq	r1, r0, r8, lsl #24
d002215c:	7e000000 	cdpvc	0, 0, cr0, cr0, cr0, {0}
d0022160:	10102021 	andsne	r2, r0, r1, lsr #32
d0022164:	42040408 	andmi	r0, r4, #134217728	; 0x8000000
d0022168:	00003f42 	andeq	r3, r0, r2, asr #30
d002216c:	08087800 	stmdaeq	r8, {fp, ip, sp, lr}
d0022170:	08080808 	stmdaeq	r8, {r3, fp}
d0022174:	08080808 	stmdaeq	r8, {r3, fp}
d0022178:	00780808 	rsbseq	r0, r8, r8, lsl #16
d002217c:	02020000 	andeq	r0, r2, #0
d0022180:	08080404 	stmdaeq	r8, {r2, sl}
d0022184:	20101008 	andscs	r1, r0, r8
d0022188:	40402020 	submi	r2, r0, r0, lsr #32
d002218c:	10101e00 	andsne	r1, r0, r0, lsl #28
d0022190:	10101010 	andsne	r1, r0, r0, lsl r0
d0022194:	10101010 	andsne	r1, r0, r0, lsl r0
d0022198:	001e1010 	andseq	r1, lr, r0, lsl r0
d002219c:	00443800 	subeq	r3, r4, r0, lsl #16
	...
d00221b8:	ff000000 	undefined instruction 0xff000000
d00221bc:	00080600 	andeq	r0, r8, r0, lsl #12
	...
d00221d0:	3c000000 	stccc	0, cr0, [r0], {0}
d00221d4:	42447842 	submi	r7, r4, #4325376	; 0x420000
d00221d8:	0000fc42 	andeq	pc, r0, r2, asr #24
d00221dc:	03000000 	movweq	r0, #0
d00221e0:	1a020202 	bne	d00a29f0 <bss_end+0x6d420>
d00221e4:	42424226 	submi	r4, r2, #1610612738	; 0x60000002
d00221e8:	00001a26 	andeq	r1, r0, r6, lsr #20
d00221ec:	00000000 	andeq	r0, r0, r0
d00221f0:	38000000 	stmdacc	r0, {}
d00221f4:	02020244 	andeq	r0, r2, #1073741828	; 0x40000004
d00221f8:	00003844 	andeq	r3, r0, r4, asr #16
d00221fc:	60000000 	andvs	r0, r0, r0
d0022200:	78404040 	stmdavc	r0, {r6, lr}^
d0022204:	42424244 	submi	r4, r2, #1073741828	; 0x40000004
d0022208:	0000d864 	andeq	sp, r0, r4, ror #16
d002220c:	00000000 	andeq	r0, r0, r0
d0022210:	3c000000 	stccc	0, cr0, [r0], {0}
d0022214:	02027e42 	andeq	r7, r2, #1056	; 0x420
d0022218:	00003c42 	andeq	r3, r0, r2, asr #24
d002221c:	f0000000 	undefined instruction 0xf0000000
d0022220:	7e080888 	cdpvc	8, 0, cr0, cr8, cr8, {4}
d0022224:	08080808 	stmdaeq	r8, {r3, fp}
d0022228:	00003e08 	andeq	r3, r0, r8, lsl #28
d002222c:	00000000 	andeq	r0, r0, r0
d0022230:	7c000000 	stcvc	0, cr0, [r0], {0}
d0022234:	021c2222 	andseq	r2, ip, #536870914	; 0x20000002
d0022238:	3c42423c 	sfmcc	f4, 2, [r2], {60}	; (stclcc 2, cr4, [r2], {60})	; 0x3c
d002223c:	03000000 	movweq	r0, #0
d0022240:	3a020202 	bcc	d00a2a50 <bss_end+0x6d480>
d0022244:	42424246 	submi	r4, r2, #1610612740	; 0x60000004
d0022248:	0000e742 	andeq	lr, r0, r2, asr #14
d002224c:	0c000000 	stceq	0, cr0, [r0], {0}
d0022250:	0e00000c 	cdpeq	0, 0, cr0, cr0, cr12, {0}
d0022254:	08080808 	stmdaeq	r8, {r3, fp}
d0022258:	00003e08 	andeq	r3, r0, r8, lsl #28
d002225c:	30000000 	andcc	r0, r0, r0
d0022260:	38000030 	stmdacc	r0, {r4, r5}
d0022264:	20202020 	eorcs	r2, r0, r0, lsr #32
d0022268:	1e222020 	cdpne	0, 2, cr2, cr2, cr0, {1}
d002226c:	03000000 	movweq	r0, #0
d0022270:	72020202 	andvc	r0, r2, #536870912	; 0x20000000
d0022274:	12160a12 	andsne	r0, r6, #73728	; 0x12000
d0022278:	00007722 	andeq	r7, r0, r2, lsr #14
d002227c:	0e000000 	cdpeq	0, 0, cr0, cr0, cr0, {0}
d0022280:	08080808 	stmdaeq	r8, {r3, fp}
d0022284:	08080808 	stmdaeq	r8, {r3, fp}
d0022288:	00003e08 	andeq	r3, r0, r8, lsl #28
d002228c:	00000000 	andeq	r0, r0, r0
d0022290:	7f000000 	svcvc	0x00000000
d0022294:	92929292 	addsls	r9, r2, #536870921	; 0x20000009
d0022298:	0000b792 	muleq	r0, r2, r7
d002229c:	00000000 	andeq	r0, r0, r0
d00222a0:	3b000000 	blcc	d00222a8 <ascii_8_16+0x4ec>
d00222a4:	42424246 	submi	r4, r2, #1610612740	; 0x60000004
d00222a8:	0000e742 	andeq	lr, r0, r2, asr #14
d00222ac:	00000000 	andeq	r0, r0, r0
d00222b0:	3c000000 	stccc	0, cr0, [r0], {0}
d00222b4:	42424242 	submi	r4, r2, #536870916	; 0x20000004
d00222b8:	00003c42 	andeq	r3, r0, r2, asr #24
d00222bc:	00000000 	andeq	r0, r0, r0
d00222c0:	1b000000 	blne	d00222c8 <ascii_8_16+0x50c>
d00222c4:	42424226 	submi	r4, r2, #1610612738	; 0x60000002
d00222c8:	07021e22 	streq	r1, [r2, -r2, lsr #28]
d00222cc:	00000000 	andeq	r0, r0, r0
d00222d0:	78000000 	stmdavc	r0, {}
d00222d4:	42424244 	submi	r4, r2, #1073741828	; 0x40000004
d00222d8:	e0407844 	sub	r7, r0, r4, asr #16
d00222dc:	00000000 	andeq	r0, r0, r0
d00222e0:	77000000 	strvc	r0, [r0, -r0]
d00222e4:	0404044c 	streq	r0, [r4], #-1100	; 0x44c
d00222e8:	00001f04 	andeq	r1, r0, r4, lsl #30
d00222ec:	00000000 	andeq	r0, r0, r0
d00222f0:	7c000000 	stcvc	0, cr0, [r0], {0}
d00222f4:	403c0242 	eorsmi	r0, ip, r2, asr #4
d00222f8:	00003e42 	andeq	r3, r0, r2, asr #28
d00222fc:	00000000 	andeq	r0, r0, r0
d0022300:	3e080800 	cdpcc	8, 0, cr0, cr8, cr0, {0}
d0022304:	08080808 	stmdaeq	r8, {r3, fp}
d0022308:	00003008 	andeq	r3, r0, r8
d002230c:	00000000 	andeq	r0, r0, r0
d0022310:	63000000 	movwvs	r0, #0
d0022314:	42424242 	submi	r4, r2, #536870916	; 0x20000004
d0022318:	0000dc62 	andeq	sp, r0, r2, ror #24
d002231c:	00000000 	andeq	r0, r0, r0
d0022320:	e7000000 	str	r0, [r0, -r0]
d0022324:	14242442 	strtne	r2, [r4], #-1090	; 0x442
d0022328:	00000808 	andeq	r0, r0, r8, lsl #16
d002232c:	00000000 	andeq	r0, r0, r0
d0022330:	eb000000 	bl	d0022338 <ascii_8_16+0x57c>
d0022334:	55554949 	ldrbpl	r4, [r5, #-2377]	; 0x949
d0022338:	00002222 	andeq	r2, r0, r2, lsr #4
d002233c:	00000000 	andeq	r0, r0, r0
d0022340:	76000000 	strvc	r0, [r0], -r0
d0022344:	18181824 	ldmdane	r8, {r2, r5, fp, ip}
d0022348:	00006e24 	andeq	r6, r0, r4, lsr #28
d002234c:	00000000 	andeq	r0, r0, r0
d0022350:	e7000000 	str	r0, [r0, -r0]
d0022354:	14242442 	strtne	r2, [r4], #-1090	; 0x442
d0022358:	07080818 	smladeq	r8, r8, r8, r0
d002235c:	00000000 	andeq	r0, r0, r0
d0022360:	7e000000 	cdpvc	0, 0, cr0, cr0, cr0, {0}
d0022364:	08081022 	stmdaeq	r8, {r1, r5, ip}
d0022368:	00007e44 	andeq	r7, r0, r4, asr #28
d002236c:	2020c000 	eorcs	ip, r0, r0
d0022370:	10202020 	eorne	r2, r0, r0, lsr #32
d0022374:	20202020 	eorcs	r2, r0, r0, lsr #32
d0022378:	00c02020 	sbceq	r2, r0, r0, lsr #32
d002237c:	10101010 	andsne	r1, r0, r0, lsl r0
d0022380:	10101010 	andsne	r1, r0, r0, lsl r0
d0022384:	10101010 	andsne	r1, r0, r0, lsl r0
d0022388:	10101010 	andsne	r1, r0, r0, lsl r0
d002238c:	08080600 	stmdaeq	r8, {r9, sl}
d0022390:	10080808 	andne	r0, r8, r8, lsl #16
d0022394:	08080808 	stmdaeq	r8, {r3, fp}
d0022398:	00060808 	andeq	r0, r6, r8, lsl #16
d002239c:	00c2320c 	sbceq	r3, r2, ip, lsl #4
	...

d00223ac <ascii_16_16>:
d00223ac:	01100090 	ldrbeq	r0, [r0, r0]
d00223b0:	010c3ff8 	strdeq	r3, [ip, -r8]
d00223b4:	01091ffa 	strdeq	r1, [r9, -sl]
d00223b8:	01081ff8 	strdeq	r1, [r8, -r8]
d00223bc:	00883ff8 	strdeq	r3, [r8], r8
d00223c0:	02a07fff 	adceq	r7, r0, #1020	; 0x3fc
d00223c4:	188c0490 	stmne	ip, {r4, r7, sl}
d00223c8:	00806083 	addeq	r6, r0, r3, lsl #1
d00223cc:	02200410 	eoreq	r0, r0, #268435456	; 0x10000000
d00223d0:	00803ffe 	strdeq	r3, [r0], lr
d00223d4:	1ffc0080 	svcne	0x00fc0080
d00223d8:	00800080 	addeq	r0, r0, r0, lsl #1
d00223dc:	00807fff 	strdeq	r7, [r0], pc
d00223e0:	3ffe0080 	svccc	0x00fe0080
d00223e4:	02200140 	eoreq	r0, r0, #16
d00223e8:	70070c18 	andvc	r0, r7, r8, lsl ip
d00223ec:	00800080 	addeq	r0, r0, r0, lsl #1
d00223f0:	00800080 	addeq	r0, r0, r0, lsl #1
d00223f4:	7fff0080 	svcvc	0x00ff0080
d00223f8:	00800080 	addeq	r0, r0, r0, lsl #1
d00223fc:	01400140 	cmpeq	r0, r0, asr #2
d0022400:	02200220 	eoreq	r0, r0, #2
d0022404:	08080410 	stmdaeq	r8, {r4, sl}
d0022408:	60031004 	andvs	r1, r3, r4
d002240c:	10881044 	addne	r1, r8, r4, asr #32
d0022410:	04000888 	streq	r0, [r0], #-2184	; 0x888
d0022414:	40027ffe 	strdmi	r7, [r2], -lr
d0022418:	07f82001 	ldrbeq	r2, [r8, r1]!
d002241c:	01800200 	orreq	r0, r0, r0, lsl #4
d0022420:	00807fff 	strdeq	r7, [r0], pc
d0022424:	00800080 	addeq	r0, r0, r0, lsl #1
d0022428:	004000a0 	subeq	r0, r0, r0, lsr #1
d002242c:	24021400 	strcs	r1, [r2], #-1024	; 0x400
d0022430:	7fe40404 	svcvc	0x00e40404
d0022434:	04200420 	strteq	r0, [r0], #-1056	; 0x420
d0022438:	25e42427 	strbcs	r2, [r4, #1063]!	; 0x427
d002243c:	15242524 	strne	r2, [r4, #-1316]!	; 0x524
d0022440:	09341524 	ldmdbeq	r4!, {r2, r5, r8, sl, ip}
d0022444:	5494496c 	ldrpl	r4, [r4], #2412	; 0x96c
d0022448:	41086210 	tstmi	r8, r0, lsl r2
d002244c:	1e100008 	cdpne	0, 1, cr0, cr0, cr8, {0}
d0022450:	124412fe 	subne	r1, r4, #-536870897	; 0xe000000f
d0022454:	61ff1228 	mvnsvs	r1, r8, lsr #4
d0022458:	3f940008 	svccc	0x00940008
d002245c:	22282273 	eorcs	r2, r8, #805306375	; 0x30000007
d0022460:	14b31464 	ldrtne	r1, [r3], #1124	; 0x464
d0022464:	142408a8 	strtne	r0, [r4], #-2216	; 0x8a8
d0022468:	4190222b 	orrsmi	r2, r0, fp, lsr #4
d002246c:	10881044 	addne	r1, r8, r4, asr #32
d0022470:	04000888 	streq	r0, [r0], #-2184	; 0x888
d0022474:	40027ffe 	strdmi	r7, [r2], -lr
d0022478:	07f82001 	ldrbeq	r2, [r8, r1]!
d002247c:	01800200 	orreq	r0, r0, r0, lsl #4
d0022480:	00807fff 	strdeq	r7, [r0], pc
d0022484:	00800080 	addeq	r0, r0, r0, lsl #1
d0022488:	004000a0 	subeq	r0, r0, r0, lsr #1
d002248c:	041e0200 	ldreq	r0, [lr], #-512	; 0x200
d0022490:	404a7fd2 	ldrdmi	r7, [sl], #-242	; 0xffffff0e
d0022494:	1f86202a 	svcne	0x0086202a
d0022498:	0012000a 	andseq	r0, r2, sl
d002249c:	09127fd2 	ldmdbeq	r2, {r1, r4, r6, r7, r8, r9, sl, fp, ip, sp, lr}
d00224a0:	090a0916 	stmdbeq	sl, {r1, r2, r4, r8, fp}
d00224a4:	48824882 	stmmi	r2, {r1, r7, fp, lr}
d00224a8:	00227042 	eoreq	r7, r2, r2, asr #32
d00224ac:	021e0200 	andseq	r0, lr, #0
d00224b0:	7fea0212 	svcvc	0x00ea0212
d00224b4:	0486010a 	streq	r0, [r6], #266	; 0x10a
d00224b8:	0452048a 	ldrbeq	r0, [r2], #-1162	; 0x48a
d00224bc:	04123fd2 	ldreq	r3, [r2], #-4050	; 0xfd2
d00224c0:	248a1496 	strcs	r1, [sl], #1174	; 0x496
d00224c4:	44224442 	strtmi	r4, [r2], #-1090	; 0x442
d00224c8:	02020502 	andeq	r0, r2, #8388608	; 0x800000
d00224cc:	03ff0000 	mvnseq	r0, #0
d00224d0:	22000200 	andcs	r0, r0, #0
d00224d4:	0a001200 	beq	d0026cdc <gImage_pic+0x4310>
d00224d8:	0a000600 	beq	d0023ce0 <gImage_pic+0x1314>
d00224dc:	22001200 	andcs	r1, r0, #0
d00224e0:	04000400 	streq	r0, [r0], #-1024	; 0x400
d00224e4:	50004800 	andpl	r4, r0, r0, lsl #16
d00224e8:	40006000 	andmi	r6, r0, r0
d00224ec:	08200420 	stmdaeq	r0!, {r5, sl}
d00224f0:	03ff7c40 	mvnseq	r7, #16384	; 0x4000
d00224f4:	42000100 	andmi	r0, r0, #0
d00224f8:	77f84c40 	ldrbvc	r4, [r8, r0, asr #24]!
d00224fc:	06480428 	strbeq	r0, [r8], -r8, lsr #8
d0022500:	1ff80008 	svcne	0x00f80008
d0022504:	11fe1000 	mvnsne	r1, r0
d0022508:	08001400 	stmdaeq	r0, {sl, ip}
d002250c:	04080408 	streq	r0, [r8], #-1032	; 0x408
d0022510:	04080408 	streq	r0, [r8], #-1032	; 0x408
d0022514:	04087fbf 	streq	r7, [r8], #-4031	; 0xfbf
d0022518:	0e1c0e0c 	cdpeq	14, 1, cr0, cr12, cr12, {0}
d002251c:	150a152a 	strne	r1, [sl, #-1322]	; 0x52a
d0022520:	44482489 	strbmi	r2, [r8], #-1161	; 0x489
d0022524:	04080428 	streq	r0, [r8], #-1064	; 0x428
d0022528:	04080408 	streq	r0, [r8], #-1032	; 0x408
d002252c:	02080208 	andeq	r0, r8, #-2147483648	; 0x80000000
d0022530:	3f04013c 	svccc	0x0004013c
d0022534:	207d2082 	rsbscs	r2, sp, r2, lsl #1
d0022538:	22082108 	andcs	r2, r8, #2
d002253c:	2808223f 	stmdacs	r8, {r0, r1, r2, r3, r4, r5, r9, sp}
d0022540:	22082408 	andcs	r2, r8, #134217728	; 0x8000000
d0022544:	201821a8 	andscs	r2, r8, r8, lsr #3
d0022548:	08001408 	stmdaeq	r0, {r3, sl, ip}
d002254c:	02080208 	andeq	r0, r8, #-2147483648	; 0x80000000
d0022550:	20843f3c 	addcs	r3, r4, ip, lsr pc
d0022554:	0a3d1142 	beq	d0f66a64 <bss_end+0xf31494>
d0022558:	02080408 	andeq	r0, r8, #134217728	; 0x8000000
d002255c:	3f88013f 	svccc	0x0088013f
d0022560:	21082148 	tstcs	r8, r8, asr #2
d0022564:	21182128 	tstcs	r8, r8, lsr #2
d0022568:	21003f08 	tstcs	r0, r8, lsl #30
d002256c:	0ff80000 	svceq	0x00f80000
d0022570:	08080808 	stmdaeq	r8, {r3, fp}
d0022574:	00000ff8 	strdeq	r0, [r0], -r8
d0022578:	1ffc0000 	svcne	0x00fc0000
d002257c:	00800080 	addeq	r0, r0, r0, lsl #1
d0022580:	01407fff 	strdeq	r7, [r0, #-255]	; 0xffffff01
d0022584:	04100220 	ldreq	r0, [r0], #-544	; 0x220
d0022588:	6003180c 	andvs	r1, r3, ip, lsl #16
d002258c:	3fc80008 	svccc	0x00c80008
d0022590:	00480048 	subeq	r0, r8, r8, asr #32
d0022594:	00481f7f 	subeq	r1, r8, pc, ror pc
d0022598:	3fe80048 	svccc	0x00e80048
d002259c:	254c0558 	strbcs	r0, [ip, #-1368]	; 0x558
d00225a0:	0948154b 	stmdbeq	r8, {r0, r1, r3, r6, r8, sl, ip}^
d00225a4:	11280948 	teqne	r8, r8, asr #18
d00225a8:	4314252a 	tstmi	r4, #176160768	; 0xa800000
d00225ac:	04040208 	streq	r0, [r4], #-520	; 0x208
d00225b0:	3fa2003e 	svccc	0x00a2003e
d00225b4:	002a0026 	eoreq	r0, sl, r6, lsr #32
d00225b8:	093f0f2a 	ldmdbeq	pc!, {r1, r3, r5, r8, r9, sl, fp}
d00225bc:	09260922 	stmdbeq	r6!, {r1, r5, r8, fp}
d00225c0:	492a092a 	stmdbmi	sl!, {r1, r3, r5, r8, fp}
d00225c4:	48a24922 	stmiami	r2!, {r1, r5, r8, fp, lr}
d00225c8:	005170aa 	subseq	r7, r1, sl, lsr #1

d00225cc <jmu_32_32>:
	...
d00225e0:	00208000 	eoreq	r8, r0, r0
d00225e4:	0070e000 	rsbseq	lr, r0, r0
d00225e8:	00303000 	eorseq	r3, r0, r0
d00225ec:	00081000 	andeq	r1, r8, r0
d00225f0:	01e40800 	mvneq	r0, r0, lsl #16
d00225f4:	00fe0400 	rscseq	r0, lr, r0, lsl #8
d00225f8:	007f1e00 	rsbseq	r1, pc, r0, lsl #28
d00225fc:	00f99f00 	rscseq	r9, r9, r0, lsl #30
d0022600:	007e0b00 	rsbseq	r0, lr, r0, lsl #22
d0022604:	003f0900 	eorseq	r0, pc, r0, lsl #18
d0022608:	00f80c00 	rscseq	r0, r8, r0, lsl #24
d002260c:	003e0c00 	eorseq	r0, lr, r0, lsl #24
d0022610:	01db8c00 	bicseq	r8, fp, r0, lsl #24
d0022614:	00fc0c00 	rscseq	r0, ip, r0, lsl #24
d0022618:	000f8800 	andeq	r8, pc, r0, lsl #16
d002261c:	030c0800 	movweq	r0, #51200	; 0xc800
d0022620:	07fc0800 	ldrbeq	r0, [ip, r0, lsl #16]!
d0022624:	007ff000 	rsbseq	pc, pc, r0
d0022628:	00183f80 	andseq	r3, r8, r0, lsl #31
d002262c:	031801c0 	tsteq	r8, #48	; 0x30
d0022630:	03980040 	orrseq	r0, r8, #64	; 0x40
d0022634:	03883800 	orreq	r3, r8, #0
d0022638:	000c7c00 	andeq	r7, ip, r0, lsl #24
d002263c:	00078400 	andeq	r8, r7, r0, lsl #8
d0022640:	00010000 	andeq	r0, r1, r0
	...
d0022664:	00e00000 	rsceq	r0, r0, r0
d0022668:	00e03000 	rsceq	r3, r0, r0
d002266c:	00307800 	eorseq	r7, r0, r0, lsl #16
d0022670:	000c3800 	andeq	r3, ip, r0, lsl #16
d0022674:	00230000 	eoreq	r0, r3, r0
d0022678:	007e8000 	rsbseq	r8, lr, r0
d002267c:	003ff000 	eorseq	pc, pc, r0
d0022680:	0007f800 	andeq	pc, r7, r0, lsl #16
d0022684:	00278000 	eoreq	r8, r7, r0
d0022688:	007f6000 	rsbseq	r6, pc, r0
d002268c:	003ff800 	eorseq	pc, pc, r0, lsl #16
d0022690:	0003f800 	andeq	pc, r3, r0, lsl #16
d0022694:	007f0000 	rsbseq	r0, pc, r0
d0022698:	00fff800 	rscseq	pc, pc, r0, lsl #16
d002269c:	007ffc00 	rsbseq	pc, pc, r0, lsl #24
d00226a0:	00030000 	andeq	r0, r3, r0
d00226a4:	00038000 	andeq	r8, r3, r0
d00226a8:	07ffe000 	ldrbeq	lr, [pc, r0]!
d00226ac:	07ffffc0 	ldrbeq	pc, [pc, r0, asr #31]!
d00226b0:	0007ffc0 	andeq	pc, r7, r0, asr #31
d00226b4:	0000e000 	andeq	lr, r0, r0
d00226b8:	00f07000 	rscseq	r7, r0, r0
d00226bc:	00f03000 	rscseq	r3, r0, r0
d00226c0:	00e00800 	rsceq	r0, r0, r0, lsl #16
d00226c4:	00000400 	andeq	r0, r0, r0, lsl #8
	...
d00226e8:	000e0000 	andeq	r0, lr, r0
d00226ec:	000e0000 	andeq	r0, lr, r0
d00226f0:	00070000 	andeq	r0, r7, r0
d00226f4:	00070000 	andeq	r0, r7, r0
d00226f8:	00030000 	andeq	r0, r3, r0
d00226fc:	00030000 	andeq	r0, r3, r0
d0022700:	00030000 	andeq	r0, r3, r0
d0022704:	00370000 	eorseq	r0, r7, r0
d0022708:	00ff8000 	rscseq	r8, pc, r0
d002270c:	007ff800 	rsbseq	pc, pc, r0, lsl #16
d0022710:	0007fe00 	andeq	pc, r7, r0, lsl #28
d0022714:	0001fe00 	andeq	pc, r1, r0, lsl #28
d0022718:	0001c000 	andeq	ip, r1, r0
d002271c:	0000c000 	andeq	ip, r0, r0
d0022720:	0000e000 	andeq	lr, r0, r0
d0022724:	00006000 	andeq	r6, r0, r0
d0022728:	00033000 	andeq	r3, r3, r0
d002272c:	00071800 	andeq	r1, r7, r0, lsl #16
d0022730:	003e0c00 	eorseq	r0, lr, r0, lsl #24
d0022734:	03fc0600 	mvnseq	r0, #0
d0022738:	3ff00300 	svccc	0x00f00300
d002273c:	0f000080 	svceq	0x00000080
d0022740:	00000040 	andeq	r0, r0, r0, asr #32
d0022744:	00000020 	andeq	r0, r0, r0, lsr #32
	...
d0022764:	00c00000 	sbceq	r0, r0, r0
d0022768:	00e03000 	rsceq	r3, r0, r0
d002276c:	00e3f000 	rsceq	pc, r3, r0
d0022770:	0011d800 	andseq	sp, r1, r0, lsl #16
d0022774:	00080800 	andeq	r0, r8, r0, lsl #16
d0022778:	00000000 	andeq	r0, r0, r0
d002277c:	03f00000 	mvnseq	r0, #0
d0022780:	07ffc600 	ldrbeq	ip, [pc, r0, lsl #12]!
d0022784:	031ffe00 	tstpeq	pc, #0
d0022788:	03807f00 	orreq	r7, r0, #0
d002278c:	00180380 	andseq	r0, r8, r0, lsl #7
d0022790:	007f8380 	rsbseq	r8, pc, r0, lsl #7
d0022794:	0037e180 	eorseq	lr, r7, r0, lsl #3
d0022798:	00383180 	eorseq	r3, r8, r0, lsl #3
d002279c:	001c3000 	andseq	r3, ip, r0
d00227a0:	000e0000 	andeq	r0, lr, r0
d00227a4:	00fe0000 	rscseq	r0, lr, r0
d00227a8:	00ffc000 	rscseq	ip, pc, r0
d00227ac:	00fff000 	rscseq	pc, pc, r0
d00227b0:	003ff000 	eorseq	pc, pc, r0
d00227b4:	00100000 	andseq	r0, r0, r0
d00227b8:	00080000 	andeq	r0, r8, r0
d00227bc:	00040000 	andeq	r0, r4, r0
d00227c0:	0003c000 	andeq	ip, r3, r0
d00227c4:	0001c000 	andeq	ip, r1, r0
	...
d00227e0:	00100000 	andseq	r0, r0, r0
d00227e4:	00300000 	eorseq	r0, r0, r0
d00227e8:	02301800 	eorseq	r1, r0, #0
d00227ec:	07301c00 	ldreq	r1, [r0, -r0, lsl #24]!
d00227f0:	07b01e00 	ldreq	r1, [r0, r0, lsl #28]!
d00227f4:	03200600 	teqeq	r0, #0
d00227f8:	00600000 	rsbeq	r0, r0, r0
d00227fc:	01608000 	cmneq	r0, r0
d0022800:	01fcc000 	mvnseq	ip, r0
d0022804:	004f4000 	subeq	r4, pc, r0
d0022808:	00615800 	rsbeq	r5, r1, r0, lsl #16
d002280c:	06d8ef00 	ldrbeq	lr, [r8], r0, lsl #30
d0022810:	07c463f8 	undefined instruction 0x07c463f8
d0022814:	0682613c 	undefined instruction 0x0682613c
d0022818:	07bf208c 	ldreq	r2, [pc, ip, lsl #1]!
d002281c:	07bff0c0 	ldreq	pc, [pc, r0, asr #1]!
d0022820:	0331e8c0 	teqeq	r1, #12582912	; 0xc00000
d0022824:	03302d80 	teqeq	r0, #8192	; 0x2000
d0022828:	03902780 	orrseq	r2, r0, #33554432	; 0x2000000
d002282c:	028c2380 	addeq	r2, ip, #2
d0022830:	06462180 	strbeq	r2, [r6], -r0, lsl #3
d0022834:	042021c0 	strteq	r2, [r0], #-448	; 0x1c0
d0022838:	0c1800c0 	ldceq	0, cr0, [r8], {192}	; 0xc0
d002283c:	38040040 	stmdacc	r4, {r6}
d0022840:	10020000 	andne	r0, r2, r0
	...
d0022864:	00002000 	andeq	r2, r0, r0
d0022868:	00003000 	andeq	r3, r0, r0
d002286c:	03003000 	movweq	r3, #0
d0022870:	03980000 	orrseq	r0, r8, #0
d0022874:	02f86000 	rscseq	r6, r8, #0
d0022878:	03387e00 	teqeq	r8, #0
d002287c:	01083f80 	smlabbeq	r8, r0, pc, r3
d0022880:	0f0c7dc0 	svceq	0x000c7dc0
d0022884:	0f046e40 	svceq	0x00046e40
d0022888:	03043b00 	movweq	r3, #19200	; 0x4b00
d002288c:	01867d00 	orreq	r7, r6, r0, lsl #26
d0022890:	00427f00 	subeq	r7, r2, r0, lsl #30
d0022894:	07b01fc0 	ldreq	r1, [r0, r0, asr #31]!
d0022898:	07f80fe0 	ldrbeq	r0, [r8, r0, ror #31]!
d002289c:	07fc6f00 	ldrbeq	r6, [ip, r0, lsl #30]!
d00228a0:	07fc1980 	ldrbeq	r1, [ip, r0, lsl #19]!
d00228a4:	031c33c0 	tsteq	ip, #3
d00228a8:	038077c0 	orreq	r7, r0, #50331648	; 0x3000000
d00228ac:	01cf33e0 	biceq	r3, pc, r0, ror #7
d00228b0:	00fe33e0 	rscseq	r3, lr, r0, ror #7
d00228b4:	0ffc1180 	svceq	0x00fc1180
d00228b8:	7fff1840 	svcvc	0x00ff1840
d00228bc:	1e01fe20 	cdpne	14, 0, cr15, cr1, cr0, {1}
d00228c0:	00000200 	andeq	r0, r0, r0, lsl #4
	...
d00228e4:	00c00000 	sbceq	r0, r0, r0
d00228e8:	00e03000 	rsceq	r3, r0, r0
d00228ec:	00e3f000 	rsceq	pc, r3, r0
d00228f0:	0011d800 	andseq	sp, r1, r0, lsl #16
d00228f4:	00080800 	andeq	r0, r8, r0, lsl #16
d00228f8:	00000000 	andeq	r0, r0, r0
d00228fc:	03f00000 	mvnseq	r0, #0
d0022900:	07ffc600 	ldrbeq	ip, [pc, r0, lsl #12]!
d0022904:	031ffe00 	tstpeq	pc, #0
d0022908:	03807f00 	orreq	r7, r0, #0
d002290c:	00180380 	andseq	r0, r8, r0, lsl #7
d0022910:	007f8380 	rsbseq	r8, pc, r0, lsl #7
d0022914:	0037e180 	eorseq	lr, r7, r0, lsl #3
d0022918:	00383180 	eorseq	r3, r8, r0, lsl #3
d002291c:	001c3000 	andseq	r3, ip, r0
d0022920:	000e0000 	andeq	r0, lr, r0
d0022924:	00fe0000 	rscseq	r0, lr, r0
d0022928:	00ffc000 	rscseq	ip, pc, r0
d002292c:	00fff000 	rscseq	pc, pc, r0
d0022930:	003ff000 	eorseq	pc, pc, r0
d0022934:	00100000 	andseq	r0, r0, r0
d0022938:	00080000 	andeq	r0, r8, r0
d002293c:	00040000 	andeq	r0, r4, r0
d0022940:	0003c000 	andeq	ip, r3, r0
d0022944:	0001c000 	andeq	ip, r1, r0
	...
d0022964:	00400000 	subeq	r0, r0, r0
d0022968:	00f00000 	rscseq	r0, r0, r0
d002296c:	00701800 	rsbseq	r1, r0, r0, lsl #16
d0022970:	00083f80 	andeq	r3, r8, r0, lsl #31
d0022974:	00003fc0 	andeq	r3, r0, r0, asr #31
d0022978:	07e233c0 	strbeq	r3, [r2, r0, asr #7]!
d002297c:	07ff1800 	ldrbeq	r1, [pc, r0, lsl #16]!
d0022980:	061f8d00 	ldreq	r8, [pc], -r0, lsl #26
d0022984:	03038f80 	movweq	r8, #16256	; 0x3f80
d0022988:	0000dec0 	andeq	sp, r0, r0, asr #29
d002298c:	0038dcc0 	eorseq	sp, r8, r0, asr #25
d0022990:	00381840 	eorseq	r1, r8, r0, asr #16
d0022994:	00041860 	andeq	r1, r4, r0, ror #16
d0022998:	00e20860 	rsceq	r0, r2, r0, ror #16
d002299c:	007d0e20 	rsbseq	r0, sp, r0, lsr #28
d00229a0:	002f0760 	eoreq	r0, pc, r0, ror #14
d00229a4:	0411c060 	ldreq	ip, [r1], #-96	; 0x60
d00229a8:	04084060 	streq	r4, [r8], #-96	; 0x60
d00229ac:	181c0060 	ldmdane	ip, {r5, r6}
d00229b0:	183e0040 	ldmdane	lr!, {r6}
d00229b4:	0c3f8040 	ldceq	0, cr8, [pc], #-256	; 0xffffff00
d00229b8:	07f180c0 	ldrbeq	r8, [r1, r0, asr #1]!
d00229bc:	00000080 	andeq	r0, r0, r0, lsl #1
	...

d00229cc <gImage_pic>:
d00229cc:	00000080 	andeq	r0, r0, r0, lsl #1
	...
d00229d8:	ba888800 	blt	ce2449e0 <_start-0x1ddb630>
d00229dc:	fbfbfbbb 	blx	cff218d2 <_start-0xfe73e>
d00229e0:	fbffffff 	blx	d00229e6 <gImage_pic+0x1a>
d00229e4:	fffffffb 	undefined instruction 0xfffffffb
d00229e8:	fbffffff 	blx	d00229ee <gImage_pic+0x22>
d00229ec:	bbbbbbbb 	bllt	cef118e0 <_start-0x110e730>
d00229f0:	bbfbfbbb 	bllt	cff218e4 <_start-0xfe72c>
d00229f4:	fafbfbfb 	blx	cff219e8 <_start-0xfe628>
d00229f8:	a8fbffff 	ldmge	fp!, {r0, r1, r2, r3, r4, r5, r6, r7, r8, r9, sl, fp, ip, sp, lr, pc}^
d00229fc:	00000080 	andeq	r0, r0, r0, lsl #1
d0022a00:	00800000 	addeq	r0, r0, r0
d0022a04:	00000000 	andeq	r0, r0, r0
d0022a08:	bbabaa0a 	bllt	ceb0d238 <_start-0x1512dd8>
d0022a0c:	fbfbbbbb 	blx	cff11902 <_start-0x10e70e>
d0022a10:	fbfbfbfb 	blx	cff21a06 <_start-0xfe60a>
d0022a14:	00fbfbfb 	ldrshteq	pc, [fp], #187	; 0xbb
	...
d0022a24:	7ffd0100 	svcvc	0x00fd0100
d0022a28:	ffffffff 	undefined instruction 0xffffffff
d0022a2c:	ffffffff 	undefined instruction 0xffffffff
d0022a30:	ffffffff 	undefined instruction 0xffffffff
d0022a34:	ffffffff 	undefined instruction 0xffffffff
d0022a38:	ffffffff 	undefined instruction 0xffffffff
d0022a3c:	ffffffff 	undefined instruction 0xffffffff
d0022a40:	7fffffff 	svcvc	0x00ffffff
d0022a44:	00f0ffff 	ldrshteq	pc, [r0], #255	; 0xff
	...
d0022a50:	01000000 	tsteq	r0, r0
d0022a54:	ffff7f55 	undefined instruction 0xffff7f55
d0022a58:	ffffffff 	undefined instruction 0xffffffff
d0022a5c:	ffffffff 	undefined instruction 0xffffffff
d0022a60:	0000ffff 	strdeq	pc, [r0], -pc
	...
d0022a70:	eeeeaa22 	vfma.f32	s21, s28, s5
d0022a74:	eeeeeeee 	cdp	14, 14, cr14, cr14, cr14, {7}
d0022a78:	efeeeeee 	svc	0x00eeeeee
d0022a7c:	efefefee 	svc	0x00efefee
d0022a80:	eeaeeeee 	cdp	14, 10, cr14, cr14, cr14, {7}
d0022a84:	eeeeeeee 	cdp	14, 14, cr14, cr14, cr14, {7}
d0022a88:	eeeeeeee 	cdp	14, 14, cr14, cr14, cr14, {7}
d0022a8c:	eeafeeee 	cdp	14, 10, cr14, cr15, cr14, {7}
d0022a90:	0000aaee 	andeq	sl, r0, lr, ror #21
	...
d0022a9c:	aa2a0000 	bge	d0aa2aa4 <bss_end+0xa6d4d4>
d0022aa0:	eeaeaeaa 	cdp	14, 10, cr10, cr14, cr10, {5}
d0022aa4:	eeeeeeee 	cdp	14, 14, cr14, cr14, cr14, {7}
d0022aa8:	eeeeeeee 	cdp	14, 14, cr14, cr14, cr14, {7}
d0022aac:	000000ee 	andeq	r0, r0, lr, ror #1
	...
d0022ab8:	07000000 	streq	r0, [r0, -r0]
d0022abc:	fffffff5 	undefined instruction 0xfffffff5
d0022ac0:	ffffffff 	undefined instruction 0xffffffff
d0022ac4:	ffffffff 	undefined instruction 0xffffffff
d0022ac8:	ffffffff 	undefined instruction 0xffffffff
d0022acc:	ffffffff 	undefined instruction 0xffffffff
d0022ad0:	ffffffff 	undefined instruction 0xffffffff
d0022ad4:	ffffffff 	undefined instruction 0xffffffff
d0022ad8:	ffffdfff 	undefined instruction 0xffffdfff
d0022adc:	000000f0 	strdeq	r0, [r0], r0
	...
d0022ae8:	ff550500 	undefined instruction 0xff550500
d0022aec:	ffffffff 	undefined instruction 0xffffffff
d0022af0:	ffffffff 	undefined instruction 0xffffffff
d0022af4:	ffffffff 	undefined instruction 0xffffffff
	...
d0022b04:	ab8a8800 	blge	ce2c4b0c <_start-0x1d5b504>
d0022b08:	bfbfbbff 	svclt	0x00bfbbff
d0022b0c:	bffbffff 	svclt	0x00fbffff
d0022b10:	ffffffff 	undefined instruction 0xffffffff
d0022b14:	fbffffff 	blx	d0022b1a <gImage_pic+0x14e>
d0022b18:	bbbbbbbb 	bllt	cef11a0c <_start-0x110e604>
d0022b1c:	bffbbfbf 	svclt	0x00fbbfbf
d0022b20:	bbffffbf 	bllt	d0022a24 <gImage_pic+0x58>
d0022b24:	aaffffaf 	bge	d00229e8 <gImage_pic+0x1c>
d0022b28:	00000080 	andeq	r0, r0, r0, lsl #1
	...
d0022b34:	bbaaaaaa 	bllt	ceacd5e4 <_start-0x1552a2c>
d0022b38:	bfbfbfbb 	svclt	0x00bfbfbb
d0022b3c:	bfffffff 	svclt	0x00ffffff
d0022b40:	00bfbfbf 	ldrhteq	fp, [pc], pc
	...
d0022b50:	fff71f00 	undefined instruction 0xfff71f00
d0022b54:	ffffffff 	undefined instruction 0xffffffff
d0022b58:	ffffffff 	undefined instruction 0xffffffff
d0022b5c:	ffffffff 	undefined instruction 0xffffffff
d0022b60:	ffffffff 	undefined instruction 0xffffffff
d0022b64:	ffffffff 	undefined instruction 0xffffffff
d0022b68:	ffffffff 	undefined instruction 0xffffffff
d0022b6c:	f7ffffff 	undefined instruction 0xf7ffffff
d0022b70:	00fdffff 	ldrshteq	pc, [sp], #255	; 0xff
	...
d0022b7c:	15000000 	strne	r0, [r0]
d0022b80:	ffffff77 	undefined instruction 0xffffff77
d0022b84:	ffffffff 	undefined instruction 0xffffffff
d0022b88:	ffffffff 	undefined instruction 0xffffffff
d0022b8c:	0000ffff 	strdeq	pc, [r0], -pc
	...
d0022b9c:	eeeeaa2a 	vfma.f32	s21, s28, s21
d0022ba0:	eeeeeeee 	cdp	14, 14, cr14, cr14, cr14, {7}
d0022ba4:	eeeeeeee 	cdp	14, 14, cr14, cr14, cr14, {7}
d0022ba8:	eeeeeeee 	cdp	14, 14, cr14, cr14, cr14, {7}
d0022bac:	eeeeeeee 	cdp	14, 14, cr14, cr14, cr14, {7}
d0022bb0:	eeeeeeee 	cdp	14, 14, cr14, cr14, cr14, {7}
d0022bb4:	eeeeeeee 	cdp	14, 14, cr14, cr14, cr14, {7}
d0022bb8:	feebeeee 	cdp2	14, 14, cr14, cr11, cr14, {7}
d0022bbc:	00a0eafe 	strdeq	lr, [r0], lr
	...
d0022bc8:	aaaa0200 	bge	ceaa33d0 <_start-0x157cc40>
d0022bcc:	eeaaeaaa 	vfma.f32	s28, s21, s21
d0022bd0:	eeeeeeee 	cdp	14, 14, cr14, cr14, cr14, {7}
d0022bd4:	eeeeeeee 	cdp	14, 14, cr14, cr14, cr14, {7}
d0022bd8:	000000ee 	andeq	r0, r0, lr, ror #1
	...
d0022be4:	7f000000 	svcvc	0x00000000
d0022be8:	ffffffdf 	undefined instruction 0xffffffdf
d0022bec:	ffffffff 	undefined instruction 0xffffffff
d0022bf0:	ffffffff 	undefined instruction 0xffffffff
d0022bf4:	ffffffff 	undefined instruction 0xffffffff
d0022bf8:	ffffffff 	undefined instruction 0xffffffff
d0022bfc:	ffffffff 	undefined instruction 0xffffffff
d0022c00:	ffffffff 	undefined instruction 0xffffffff
d0022c04:	fffff9ff 	undefined instruction 0xfffff9ff
d0022c08:	000000ff 	strdeq	r0, [r0], -pc
	...
d0022c14:	fddd5500 	ldc2l	5, cr5, [sp]
d0022c18:	ffffffff 	undefined instruction 0xffffffff
d0022c1c:	ffffffff 	undefined instruction 0xffffffff
d0022c20:	ffffffff 	undefined instruction 0xffffffff
d0022c24:	00008000 	andeq	r8, r0, r0
d0022c28:	00008000 	andeq	r8, r0, r0
d0022c2c:	00008000 	andeq	r8, r0, r0
d0022c30:	abbb8800 	blge	cef04c38 <_start-0x111b3d8>
d0022c34:	fffbbbbb 	undefined instruction 0xfffbbbbb
d0022c38:	fffbfbfb 	undefined instruction 0xfffbfbfb
d0022c3c:	ffffffff 	undefined instruction 0xffffffff
d0022c40:	fbffffff 	blx	d0022c46 <gImage_pic+0x27a>
d0022c44:	fbfbfbbb 	blx	cff21b3a <_start-0xfe4d6>
d0022c48:	fffbfbbb 	undefined instruction 0xfffbfbbb
d0022c4c:	fbfbfbfb 	blx	cff21c42 <_start-0xfe3ce>
d0022c50:	fbffffbb 	blx	d0022b46 <gImage_pic+0x17a>
d0022c54:	008080a8 	addeq	r8, r0, r8, lsr #1
d0022c58:	00000000 	andeq	r0, r0, r0
d0022c5c:	8a000000 	bhi	d0022c64 <gImage_pic+0x298>
d0022c60:	bbabaaaa 	bllt	ceb0d710 <_start-0x1512900>
d0022c64:	fbfbfbbb 	blx	cff21b5a <_start-0xfe4b6>
d0022c68:	fbfbfbfb 	blx	cff21c5e <_start-0xfe3b2>
d0022c6c:	00fbfbfb 	ldrshteq	pc, [fp], #187	; 0xbb
	...
d0022c7c:	ffff7f00 	undefined instruction 0xffff7f00
d0022c80:	ffffffff 	undefined instruction 0xffffffff
d0022c84:	ffffffff 	undefined instruction 0xffffffff
d0022c88:	ffffffff 	undefined instruction 0xffffffff
d0022c8c:	ffffffff 	undefined instruction 0xffffffff
d0022c90:	ffffffff 	undefined instruction 0xffffffff
d0022c94:	ffffffff 	undefined instruction 0xffffffff
d0022c98:	fdffffff 	ldc2l	15, cr15, [pc, #1020]!	; 0x3fc
d0022c9c:	f0ffffff 	undefined instruction 0xf0ffffff
	...
d0022ca8:	57110000 	ldrpl	r0, [r1, -r0]
d0022cac:	ffffff7f 	undefined instruction 0xffffff7f
d0022cb0:	ffffffff 	undefined instruction 0xffffffff
d0022cb4:	ffffffff 	undefined instruction 0xffffffff
d0022cb8:	0000ffff 	strdeq	pc, [r0], -pc
	...
d0022cc4:	02020000 	andeq	r0, r2, #0
d0022cc8:	eeeeaeee 	cdp	14, 14, cr10, cr14, cr14, {7}
d0022ccc:	eeeeeeee 	cdp	14, 14, cr14, cr14, cr14, {7}
d0022cd0:	eeefeeee 	cdp	14, 14, cr14, cr15, cr14, {7}
d0022cd4:	eeefefef 	cdp	15, 14, cr14, cr15, cr15, {7}
d0022cd8:	eeeeeeee 	cdp	14, 14, cr14, cr14, cr14, {7}
d0022cdc:	eeeeeeee 	cdp	14, 14, cr14, cr14, cr14, {7}
d0022ce0:	eeeeeeee 	cdp	14, 14, cr14, cr14, cr14, {7}
d0022ce4:	ffeeeeee 	undefined instruction 0xffeeeeee
d0022ce8:	00aaeeff 	strdeq	lr, [sl], pc
	...
d0022cf4:	aaaaaa00 	bge	ceacd4fc <_start-0x1552b14>
d0022cf8:	eeeeaeaa 	cdp	14, 14, cr10, cr14, cr10, {5}
d0022cfc:	eeeeeeee 	cdp	14, 14, cr14, cr14, cr14, {7}
d0022d00:	eeeeeeee 	cdp	14, 14, cr14, cr14, cr14, {7}
d0022d04:	000000ee 	andeq	r0, r0, lr, ror #1
	...
d0022d10:	fd050000 	stc2	0, cr0, [r5]
d0022d14:	ffffffff 	undefined instruction 0xffffffff
d0022d18:	ffffffff 	undefined instruction 0xffffffff
d0022d1c:	ffffffff 	undefined instruction 0xffffffff
d0022d20:	ffffffff 	undefined instruction 0xffffffff
d0022d24:	ffffffff 	undefined instruction 0xffffffff
d0022d28:	ffffffff 	undefined instruction 0xffffffff
d0022d2c:	ffffffff 	undefined instruction 0xffffffff
d0022d30:	fffffeff 	undefined instruction 0xfffffeff
d0022d34:	0000fcff 	strdeq	pc, [r0], -pc
	...
d0022d40:	dfdfdd45 	svcle	0x00dfdd45
d0022d44:	ffffffff 	undefined instruction 0xffffffff
d0022d48:	ffffffff 	undefined instruction 0xffffffff
d0022d4c:	ffffffff 	undefined instruction 0xffffffff
	...
d0022d5c:	bfba8b08 	svclt	0x00ba8b08
d0022d60:	bfbfffbb 	svclt	0x00bfffbb
d0022d64:	ffffbfbf 	undefined instruction 0xffffbfbf
d0022d68:	ffffffff 	undefined instruction 0xffffffff
d0022d6c:	bfffffff 	svclt	0x00ffffff
d0022d70:	fbbfbbbb 	blx	cf011c66 <_start-0x100e3aa>
d0022d74:	ffbfffbf 	undefined instruction 0xffbfffbf
d0022d78:	ffffbbff 	undefined instruction 0xffffbbff
d0022d7c:	ffffbfba 	undefined instruction 0xffffbfba
d0022d80:	008888ba 	strheq	r8, [r8], sl
d0022d84:	00000000 	andeq	r0, r0, r0
d0022d88:	aa0a0000 	bge	d02a2d90 <bss_end+0x26d7c0>
d0022d8c:	bbaaaaaa 	bllt	ceacd83c <_start-0x15527d4>
d0022d90:	ffbfbfbf 	undefined instruction 0xffbfbfbf
d0022d94:	bfffffff 	svclt	0x00ffffff
d0022d98:	00bfbfbf 	ldrhteq	fp, [pc], pc
	...
d0022da8:	fffff307 	undefined instruction 0xfffff307
d0022dac:	ffffffff 	undefined instruction 0xffffffff
d0022db0:	ffffffff 	undefined instruction 0xffffffff
d0022db4:	ffffffff 	undefined instruction 0xffffffff
d0022db8:	ffffffff 	undefined instruction 0xffffffff
d0022dbc:	ffffffff 	undefined instruction 0xffffffff
d0022dc0:	ffffffff 	undefined instruction 0xffffffff
d0022dc4:	ffffffff 	undefined instruction 0xffffffff
d0022dc8:	ffffff7f 	undefined instruction 0xffffff7f
	...
d0022dd4:	57550100 	ldrbpl	r0, [r5, -r0, lsl #2]
d0022dd8:	ffffff7f 	undefined instruction 0xffffff7f
d0022ddc:	ffffffff 	undefined instruction 0xffffffff
d0022de0:	ffffffff 	undefined instruction 0xffffffff
d0022de4:	0000ffff 	strdeq	pc, [r0], -pc
	...
d0022df0:	2a080000 	bcs	d0222df8 <bss_end+0x1ed828>
d0022df4:	eeeeeeaa 	cdp	14, 14, cr14, cr14, cr10, {5}
d0022df8:	eeeeeeee 	cdp	14, 14, cr14, cr14, cr14, {7}
d0022dfc:	eeeeeeee 	cdp	14, 14, cr14, cr14, cr14, {7}
d0022e00:	eeeeeeee 	cdp	14, 14, cr14, cr14, cr14, {7}
d0022e04:	aeeeeeee 	cdpge	14, 14, cr14, cr14, cr14, {7}
d0022e08:	eeeeeeee 	cdp	14, 14, cr14, cr14, cr14, {7}
d0022e0c:	eeeeeeee 	cdp	14, 14, cr14, cr14, cr14, {7}
d0022e10:	beeaeeee 	cdplt	14, 14, cr14, cr10, cr14, {7}
d0022e14:	aaeafefe 	bge	cfae2a14 <_start-0x53d5fc>
d0022e18:	00000080 	andeq	r0, r0, r0, lsl #1
d0022e1c:	00000000 	andeq	r0, r0, r0
d0022e20:	aaaaaa2a 	bge	ceacd6d0 <_start-0x1552940>
d0022e24:	eeeeaaaa 	vfma.f32	s21, s29, s21
d0022e28:	eeeeeeee 	cdp	14, 14, cr14, cr14, cr14, {7}
d0022e2c:	eeeeeeee 	cdp	14, 14, cr14, cr14, cr14, {7}
d0022e30:	000000ee 	andeq	r0, r0, lr, ror #1
	...
d0022e3c:	ff1f0000 	undefined instruction 0xff1f0000
d0022e40:	ffffffff 	undefined instruction 0xffffffff
d0022e44:	ffffffff 	undefined instruction 0xffffffff
d0022e48:	ffffffff 	undefined instruction 0xffffffff
d0022e4c:	ffffffff 	undefined instruction 0xffffffff
d0022e50:	ffffffff 	undefined instruction 0xffffffff
d0022e54:	ffffffff 	undefined instruction 0xffffffff
d0022e58:	ffffffff 	undefined instruction 0xffffffff
d0022e5c:	ffdfffff 	undefined instruction 0xffdfffff
d0022e60:	00fcffff 	ldrshteq	pc, [ip], #255	; 0xff
d0022e64:	00000000 	andeq	r0, r0, r0
d0022e68:	05000000 	streq	r0, [r0]
d0022e6c:	ffddddd5 	undefined instruction 0xffddddd5
d0022e70:	ffffffff 	undefined instruction 0xffffffff
d0022e74:	ffffffff 	undefined instruction 0xffffffff
d0022e78:	ffffffff 	undefined instruction 0xffffffff
d0022e7c:	00000000 	andeq	r0, r0, r0
d0022e80:	00800080 	addeq	r0, r0, r0, lsl #1
d0022e84:	00000000 	andeq	r0, r0, r0
d0022e88:	fbababa8 	blx	ceb0dd32 <_start-0x15122de>
d0022e8c:	fbfbfbfb 	blx	cff21e82 <_start-0xfe18e>
d0022e90:	fffffbfb 	undefined instruction 0xfffffbfb
d0022e94:	ffffffff 	undefined instruction 0xffffffff
d0022e98:	fbffffff 	blx	d0022e9e <gImage_pic+0x4d2>
d0022e9c:	fbfbbbfb 	blx	cff11e92 <_start-0x10e17e>
d0022ea0:	fffffbff 	undefined instruction 0xfffffbff
d0022ea4:	fbfbfbff 	blx	cff21eaa <_start-0xfe166>
d0022ea8:	ffffbffb 	undefined instruction 0xffffbffb
d0022eac:	80a8bafb 	strdhi	fp, [r8], fp
d0022eb0:	00808080 	addeq	r8, r0, r0, lsl #1
d0022eb4:	aaaa0080 	bge	ceaa30bc <_start-0x157cf54>
d0022eb8:	bbabaaaa 	bllt	ceb0d968 <_start-0x15126a8>
d0022ebc:	fbfbfbfb 	blx	cff21eb2 <_start-0xfe15e>
d0022ec0:	fbfffbfb 	blx	d0021eb6 <ascii_8_16+0xfa>
d0022ec4:	00fbfbfb 	ldrshteq	pc, [fp], #187	; 0xbb
	...
d0022ed4:	ffffff7f 	undefined instruction 0xffffff7f
d0022ed8:	ffffffff 	undefined instruction 0xffffffff
d0022edc:	ffffffff 	undefined instruction 0xffffffff
d0022ee0:	ffffffff 	undefined instruction 0xffffffff
d0022ee4:	ffffffff 	undefined instruction 0xffffffff
d0022ee8:	ffffffff 	undefined instruction 0xffffffff
d0022eec:	ffffffff 	undefined instruction 0xffffffff
d0022ef0:	ffffffff 	undefined instruction 0xffffffff
d0022ef4:	ffffffdf 	undefined instruction 0xffffffdf
d0022ef8:	0000f0ff 	strdeq	pc, [r0], -pc
d0022efc:	00000000 	andeq	r0, r0, r0
d0022f00:	57551501 	ldrbpl	r1, [r5, -r1, lsl #10]
d0022f04:	ffffffff 	undefined instruction 0xffffffff
d0022f08:	ffffffff 	undefined instruction 0xffffffff
d0022f0c:	ffffffff 	undefined instruction 0xffffffff
d0022f10:	0000ffff 	strdeq	pc, [r0], -pc
	...
d0022f1c:	aaa20000 	bge	ce8a2f24 <_start-0x177d0ec>
d0022f20:	eeeeeeae 	cdp	14, 14, cr14, cr14, cr14, {5}
d0022f24:	eeeeeeee 	cdp	14, 14, cr14, cr14, cr14, {7}
d0022f28:	efeeefee 	svc	0x00eeefee
d0022f2c:	eeefefef 	cdp	15, 14, cr14, cr15, cr15, {7}
d0022f30:	eeeeeeee 	cdp	14, 14, cr14, cr14, cr14, {7}
d0022f34:	eeefefee 	cdp	15, 14, cr14, cr15, cr14, {7}
d0022f38:	eeefefef 	cdp	15, 14, cr14, cr15, cr15, {7}
d0022f3c:	efeeeeee 	svc	0x00eeeeee
d0022f40:	aeeeefff 	mcrge	15, 7, lr, cr14, cr15, {7}
d0022f44:	0000a2aa 	andeq	sl, r0, sl, lsr #5
d0022f48:	0a000000 	beq	d0022f50 <gImage_pic+0x584>
d0022f4c:	aaaaaaaa 	bge	ceacd9fc <_start-0x1552614>
d0022f50:	eeeeaeae 	cdp	14, 14, cr10, cr14, cr14, {5}
d0022f54:	eeeeeeee 	cdp	14, 14, cr14, cr14, cr14, {7}
d0022f58:	eeeeeeee 	cdp	14, 14, cr14, cr14, cr14, {7}
d0022f5c:	000000ee 	andeq	r0, r0, lr, ror #1
	...
d0022f68:	ff5f0000 	undefined instruction 0xff5f0000
d0022f6c:	ffffffff 	undefined instruction 0xffffffff
d0022f70:	ffffffff 	undefined instruction 0xffffffff
d0022f74:	ffffffff 	undefined instruction 0xffffffff
d0022f78:	ffffffff 	undefined instruction 0xffffffff
d0022f7c:	ffffffff 	undefined instruction 0xffffffff
d0022f80:	ffffffff 	undefined instruction 0xffffffff
d0022f84:	ffffffff 	undefined instruction 0xffffffff
d0022f88:	ffe7ffff 	undefined instruction 0xffe7ffff
d0022f8c:	ffffffff 	undefined instruction 0xffffffff
d0022f90:	000000c0 	andeq	r0, r0, r0, asr #1
d0022f94:	45040000 	strmi	r0, [r4]
d0022f98:	ffffdd5d 	undefined instruction 0xffffdd5d
d0022f9c:	ffffffff 	undefined instruction 0xffffffff
d0022fa0:	ffffffff 	undefined instruction 0xffffffff
d0022fa4:	ffffffff 	undefined instruction 0xffffffff
	...
d0022fb4:	bbbfba8a 	bllt	cf0119e4 <_start-0x100e62c>
d0022fb8:	bfbbbfff 	svclt	0x00bbbfff
d0022fbc:	ffffffff 	undefined instruction 0xffffffff
d0022fc0:	ffffffff 	undefined instruction 0xffffffff
d0022fc4:	ffffffff 	undefined instruction 0xffffffff
d0022fc8:	bfbbbbfb 	svclt	0x00bbbbfb
d0022fcc:	ffffbfff 	undefined instruction 0xffffbfff
d0022fd0:	bffffbff 	svclt	0x00fffbff
d0022fd4:	ffffabbb 	undefined instruction 0xffffabbb
d0022fd8:	aafbffff 	bge	cff22fdc <_start-0xfd034>
d0022fdc:	000088aa 	andeq	r8, r0, sl, lsr #17
d0022fe0:	aaaaaa08 	bge	ceacd808 <_start-0x1552808>
d0022fe4:	bfbbabaa 	svclt	0x00bbabaa
d0022fe8:	bfffbfbf 	svclt	0x00ffbfbf
d0022fec:	bfbbffbf 	svclt	0x00bbffbf
d0022ff0:	00bfbfff 	ldrshteq	fp, [pc], pc
	...
d0022ffc:	01000000 	tsteq	r0, r0
d0023000:	ffffff7f 	undefined instruction 0xffffff7f
d0023004:	ffffffff 	undefined instruction 0xffffffff
d0023008:	ffffffff 	undefined instruction 0xffffffff
d002300c:	ffffffff 	undefined instruction 0xffffffff
d0023010:	ffffffff 	undefined instruction 0xffffffff
d0023014:	ffffffff 	undefined instruction 0xffffffff
d0023018:	ffffffff 	undefined instruction 0xffffffff
d002301c:	ffffffff 	undefined instruction 0xffffffff
d0023020:	ffff7ff1 	undefined instruction 0xffff7ff1
d0023024:	d0ffffff 	ldrshtle	pc, [pc, #255]	; d002312b <gImage_pic+0x75f>
d0023028:	00000000 	andeq	r0, r0, r0
d002302c:	ff555511 	undefined instruction 0xff555511
d0023030:	ffffffff 	undefined instruction 0xffffffff
d0023034:	ffffffff 	undefined instruction 0xffffffff
d0023038:	ffffffff 	undefined instruction 0xffffffff
d002303c:	0000ffff 	strdeq	pc, [r0], -pc
	...
d0023048:	aa2a0200 	bge	d0aa3850 <bss_end+0xa6e280>
d002304c:	eaeeeeee 	b	cfbdec0c <_start-0x441404>
d0023050:	eeeeeeee 	cdp	14, 14, cr14, cr14, cr14, {7}
d0023054:	eeeeeeee 	cdp	14, 14, cr14, cr14, cr14, {7}
d0023058:	eeeeeeee 	cdp	14, 14, cr14, cr14, cr14, {7}
d002305c:	eeeeeeee 	cdp	14, 14, cr14, cr14, cr14, {7}
d0023060:	eeeeeaea 	vfms.f32	s29, s29, s21
d0023064:	eeeeeeee 	cdp	14, 14, cr14, cr14, cr14, {7}
d0023068:	eaeeeeee 	b	cfbdec28 <_start-0x4413e8>
d002306c:	fefefeaa 	cdp2	14, 15, cr15, cr14, cr10, {5}
d0023070:	aaaaeaee 	bge	ceaddc30 <_start-0x15423e0>
d0023074:	aa2a0000 	bge	d0aa307c <bss_end+0xa6daac>
d0023078:	aaaaaaaa 	bge	ceacdb28 <_start-0x15524e8>
d002307c:	eeeeeeee 	cdp	14, 14, cr14, cr14, cr14, {7}
d0023080:	eeeeeeee 	cdp	14, 14, cr14, cr14, cr14, {7}
d0023084:	eeeeeeee 	cdp	14, 14, cr14, cr14, cr14, {7}
d0023088:	000000ee 	andeq	r0, r0, lr, ror #1
	...
d0023094:	ff7f0400 	undefined instruction 0xff7f0400
d0023098:	ffffffff 	undefined instruction 0xffffffff
d002309c:	ffffffff 	undefined instruction 0xffffffff
d00230a0:	ffffffff 	undefined instruction 0xffffffff
d00230a4:	ffffffff 	undefined instruction 0xffffffff
d00230a8:	ffffffff 	undefined instruction 0xffffffff
d00230ac:	ffffffff 	undefined instruction 0xffffffff
d00230b0:	ffffffff 	undefined instruction 0xffffffff
d00230b4:	45fcffff 	ldrbmi	pc, [ip, #4095]!	; 0xfff
d00230b8:	ffffffff 	undefined instruction 0xffffffff
d00230bc:	00f4fdff 	ldrshteq	pc, [r4], #223	; 0xdf
d00230c0:	5d440000 	stclpl	0, cr0, [r4]
d00230c4:	ffffdfdd 	undefined instruction 0xffffdfdd
d00230c8:	ffffffff 	undefined instruction 0xffffffff
d00230cc:	ffffffff 	undefined instruction 0xffffffff
d00230d0:	ffffffff 	undefined instruction 0xffffffff
	...
d00230dc:	8a008000 	bhi	d00430e4 <bss_end+0xdb14>
d00230e0:	fbbbab8a 	blx	cef0df12 <_start-0x11120fe>
d00230e4:	fbfbbbbb 	blx	cff11fda <_start-0x10e036>
d00230e8:	fffffffb 	undefined instruction 0xfffffffb
d00230ec:	ffffffff 	undefined instruction 0xffffffff
d00230f0:	ffffffff 	undefined instruction 0xffffffff
d00230f4:	bbbbfbff 	bllt	cef220f8 <_start-0x10fdf18>
d00230f8:	fffbfbbb 	undefined instruction 0xfffbfbbb
d00230fc:	fbfbfbff 	blx	cff22102 <_start-0xfdf0e>
d0023100:	bfaabafb 	svclt	0x00aabafb
d0023104:	fbffffff 	blx	d002310a <gImage_pic+0x73e>
d0023108:	8888aaba 	stmhi	r8, {r1, r3, r4, r5, r7, r9, fp, sp, pc}
d002310c:	aaaaaaaa 	bge	ceacdbbc <_start-0x1552454>
d0023110:	fbbbbbab 	blx	cef11fc6 <_start-0x110e04a>
d0023114:	fbfbfbfb 	blx	cff2210a <_start-0xfdf06>
d0023118:	fbfbfbfb 	blx	cff2210e <_start-0xfdf02>
d002311c:	00fbfbfb 	ldrshteq	pc, [fp], #187	; 0xbb
	...
d0023128:	05000000 	streq	r0, [r0]
d002312c:	ffffffff 	undefined instruction 0xffffffff
d0023130:	ffffffff 	undefined instruction 0xffffffff
d0023134:	ffffffff 	undefined instruction 0xffffffff
d0023138:	ffffffff 	undefined instruction 0xffffffff
d002313c:	ffffffff 	undefined instruction 0xffffffff
d0023140:	ffffffff 	undefined instruction 0xffffffff
d0023144:	ffffffff 	undefined instruction 0xffffffff
d0023148:	ffffffff 	undefined instruction 0xffffffff
d002314c:	ff5755fd 	undefined instruction 0xff5755fd
d0023150:	ffffffff 	undefined instruction 0xffffffff
d0023154:	010100f5 	strdeq	r0, [r1, -r5]
d0023158:	ff575511 	undefined instruction 0xff575511
d002315c:	ffffffff 	undefined instruction 0xffffffff
d0023160:	ffffffff 	undefined instruction 0xffffffff
d0023164:	ffffffff 	undefined instruction 0xffffffff
d0023168:	0000ffff 	strdeq	pc, [r0], -pc
	...
d0023174:	aeaa0a00 	vfmage.f32	s0, s20, s0
d0023178:	eeeeeeee 	cdp	14, 14, cr14, cr14, cr14, {7}
d002317c:	eeeeeeee 	cdp	14, 14, cr14, cr14, cr14, {7}
d0023180:	eeefeeee 	cdp	14, 14, cr14, cr15, cr14, {7}
d0023184:	efefefef 	svc	0x00efefef
d0023188:	eeeeeeee 	cdp	14, 14, cr14, cr14, cr14, {7}
d002318c:	eeeeeeee 	cdp	14, 14, cr14, cr14, cr14, {7}
d0023190:	eeefaeee 	cdp	14, 14, cr10, cr15, cr14, {7}
d0023194:	eaeeeeee 	b	cfbded54 <_start-0x4412bc>
d0023198:	efafaaaa 	svc	0x00afaaaa
d002319c:	aaeaeeef 	bge	cfaded60 <_start-0x5412b0>
d00231a0:	aaaaaaaa 	bge	ceacdc50 <_start-0x15523c0>
d00231a4:	aeaaaaaa 	vfmage.f32	s20, s21, s21
d00231a8:	eeeeeeee 	cdp	14, 14, cr14, cr14, cr14, {7}
d00231ac:	eeeeeeee 	cdp	14, 14, cr14, cr14, cr14, {7}
d00231b0:	eeeeeeee 	cdp	14, 14, cr14, cr14, cr14, {7}
d00231b4:	000000ee 	andeq	r0, r0, lr, ror #1
	...
d00231c0:	ffdf5100 	undefined instruction 0xffdf5100
d00231c4:	ffffffff 	undefined instruction 0xffffffff
d00231c8:	ffffffff 	undefined instruction 0xffffffff
d00231cc:	ffffffff 	undefined instruction 0xffffffff
d00231d0:	ffffffff 	undefined instruction 0xffffffff
d00231d4:	ffffffff 	undefined instruction 0xffffffff
d00231d8:	ffffffff 	undefined instruction 0xffffffff
d00231dc:	ffffffff 	undefined instruction 0xffffffff
d00231e0:	45fcffff 	ldrbmi	pc, [ip, #4095]!	; 0xfff
d00231e4:	ffff0f54 	undefined instruction 0xffff0f54
d00231e8:	00dcffff 	ldrsheq	pc, [ip], #255	; 0xff
d00231ec:	45450400 	strbmi	r0, [r5, #-1024]	; 0x400
d00231f0:	ffffffdd 	undefined instruction 0xffffffdd
d00231f4:	ffffffff 	undefined instruction 0xffffffff
d00231f8:	ffffffff 	undefined instruction 0xffffffff
d00231fc:	ffffffff 	undefined instruction 0xffffffff
	...
d0023208:	08000000 	stmdaeq	r0, {}
d002320c:	bbbfbbab 	bllt	cf0120c0 <_start-0x100df50>
d0023210:	ffbfbfbb 	undefined instruction 0xffbfbfbb
d0023214:	ffffffff 	undefined instruction 0xffffffff
d0023218:	ffffffff 	undefined instruction 0xffffffff
d002321c:	ffffffff 	undefined instruction 0xffffffff
d0023220:	bbbbfbff 	bllt	cef22224 <_start-0x10fddec>
d0023224:	bbbbfbbb 	bllt	cef22118 <_start-0x10fdef8>
d0023228:	ffbfffff 	undefined instruction 0xffbfffff
d002322c:	aaaababf 	bge	cead1d30 <_start-0x154e2e0>
d0023230:	ffffbfaa 	undefined instruction 0xffffbfaa
d0023234:	aaaaaaba 	bge	ceacdd24 <_start-0x15522ec>
d0023238:	aaaaaaaa 	bge	ceacdce8 <_start-0x1552328>
d002323c:	bbbfbbab 	bllt	cf0120f0 <_start-0x100df20>
d0023240:	ffbfffbf 	undefined instruction 0xffbfffbf
d0023244:	fbbfbfbf 	blx	cf01314a <_start-0x100cec6>
d0023248:	00bbbfbf 	ldrhteq	fp, [fp], pc
	...
d0023254:	63000000 	movwvs	r0, #0
d0023258:	ffffff3f 	undefined instruction 0xffffff3f
d002325c:	ffffffff 	undefined instruction 0xffffffff
d0023260:	ffffffff 	undefined instruction 0xffffffff
d0023264:	ffffffff 	undefined instruction 0xffffffff
d0023268:	ffffffff 	undefined instruction 0xffffffff
d002326c:	ffffffff 	undefined instruction 0xffffffff
d0023270:	ffffffff 	undefined instruction 0xffffffff
d0023274:	ffffffff 	undefined instruction 0xffffffff
d0023278:	515555ff 	ldrshpl	r5, [r5, #-95]	; 0xffffffa1
d002327c:	ffffff17 	undefined instruction 0xffffff17
d0023280:	11111115 	tstne	r1, r5, lsl r1
d0023284:	ff7f7755 	undefined instruction 0xff7f7755
d0023288:	ffffffff 	undefined instruction 0xffffffff
d002328c:	ffffffff 	undefined instruction 0xffffffff
d0023290:	ffffffff 	undefined instruction 0xffffffff
d0023294:	0000ffff 	strdeq	pc, [r0], -pc
	...
d00232a0:	aeaa2200 	cdpge	2, 10, cr2, cr10, cr0, {0}
d00232a4:	eeeeeeee 	cdp	14, 14, cr14, cr14, cr14, {7}
d00232a8:	eeeeeeee 	cdp	14, 14, cr14, cr14, cr14, {7}
d00232ac:	eeeeeeee 	cdp	14, 14, cr14, cr14, cr14, {7}
d00232b0:	eeeeeeee 	cdp	14, 14, cr14, cr14, cr14, {7}
d00232b4:	eeeeeeee 	cdp	14, 14, cr14, cr14, cr14, {7}
d00232b8:	eeeeeaee 	vfms.f32	s29, s29, s29
d00232bc:	eeeeeaea 	vfms.f32	s29, s29, s21
d00232c0:	eeeeeeee 	cdp	14, 14, cr14, cr14, cr14, {7}
d00232c4:	aaaaaaaa 	bge	ceacdd74 <_start-0x155229c>
d00232c8:	aaaaaaaa 	bge	ceacdd78 <_start-0x1552298>
d00232cc:	aaaaaaaa 	bge	ceacdd7c <_start-0x1552294>
d00232d0:	eeeeaaaa 	vfma.f32	s21, s29, s21
d00232d4:	eeeeeeee 	cdp	14, 14, cr14, cr14, cr14, {7}
d00232d8:	eeeeeeee 	cdp	14, 14, cr14, cr14, cr14, {7}
d00232dc:	eeeeeeee 	cdp	14, 14, cr14, cr14, cr14, {7}
d00232e0:	000000ee 	andeq	r0, r0, lr, ror #1
	...
d00232ec:	ff7f4700 	undefined instruction 0xff7f4700
d00232f0:	ffffffff 	undefined instruction 0xffffffff
d00232f4:	ffffffff 	undefined instruction 0xffffffff
d00232f8:	ffffffff 	undefined instruction 0xffffffff
d00232fc:	ffffffff 	undefined instruction 0xffffffff
d0023300:	ffffffff 	undefined instruction 0xffffffff
d0023304:	ffffffff 	undefined instruction 0xffffffff
d0023308:	ffffffff 	undefined instruction 0xffffffff
d002330c:	d5ffffff 	ldrble	pc, [pc, #4095]!	; d0024313 <gImage_pic+0x1947>
d0023310:	00504454 	subseq	r4, r0, r4, asr r4
d0023314:	00004000 	andeq	r4, r0, r0
d0023318:	dd554404 	cfldrdle	mvd4, [r5, #-16]
d002331c:	ffffffff 	undefined instruction 0xffffffff
d0023320:	ffffffff 	undefined instruction 0xffffffff
d0023324:	ffffffff 	undefined instruction 0xffffffff
d0023328:	ffffffff 	undefined instruction 0xffffffff
	...
d0023334:	a8000000 	stmdage	r0, {}
d0023338:	fbfbbbaa 	blx	cff121ea <_start-0x10de26>
d002333c:	fbfbfbfb 	blx	cff22332 <_start-0xfdcde>
d0023340:	fffffbff 	undefined instruction 0xfffffbff
d0023344:	ffffffff 	undefined instruction 0xffffffff
d0023348:	ffffffff 	undefined instruction 0xffffffff
d002334c:	bbbbfbff 	bllt	cef22350 <_start-0x10fdcc0>
d0023350:	bbbbbbbb 	bllt	cef12244 <_start-0x110ddcc>
d0023354:	fbfbffff 	blx	cff2335a <_start-0xfccb6>
d0023358:	aaaabbfb 	bge	cead234c <_start-0x154dcc4>
d002335c:	aaaaaaaa 	bge	ceacde0c <_start-0x1552204>
d0023360:	aaaaaaaa 	bge	ceacde10 <_start-0x1552200>
d0023364:	abababaa 	blge	ceb0e214 <_start-0x1511dfc>
d0023368:	fbfbbbfb 	blx	cff1235e <_start-0x10dcb2>
d002336c:	fbfbfbfb 	blx	cff22362 <_start-0xfdcae>
d0023370:	fbfbfbfb 	blx	cff22366 <_start-0xfdcaa>
d0023374:	00fbfbfb 	ldrshteq	pc, [fp], #187	; 0xbb
	...
d0023380:	df010000 	svcle	0x00010000
d0023384:	ffffffff 	undefined instruction 0xffffffff
d0023388:	ffffffff 	undefined instruction 0xffffffff
d002338c:	ffffffff 	undefined instruction 0xffffffff
d0023390:	ffffffff 	undefined instruction 0xffffffff
d0023394:	ffffffff 	undefined instruction 0xffffffff
d0023398:	ffffffff 	undefined instruction 0xffffffff
d002339c:	ffffffff 	undefined instruction 0xffffffff
d00233a0:	ffffffff 	undefined instruction 0xffffffff
d00233a4:	5755f5ff 	smmlsrpl	r5, pc, r5, pc
d00233a8:	515151f5 	ldrshpl	r5, [r1, #-21]	; 0xffffffeb
d00233ac:	77551111 	smmlavc	r5, r1, r1, r1
d00233b0:	ffffffff 	undefined instruction 0xffffffff
d00233b4:	ffffffff 	undefined instruction 0xffffffff
d00233b8:	ffffffff 	undefined instruction 0xffffffff
d00233bc:	ffffffff 	undefined instruction 0xffffffff
d00233c0:	0000ffff 	strdeq	pc, [r0], -pc
	...
d00233cc:	eeae2200 	cdp	2, 10, cr2, cr14, cr0, {0}
d00233d0:	eeeeeeae 	cdp	14, 14, cr14, cr14, cr14, {5}
d00233d4:	efeeeeee 	svc	0x00eeeeee
d00233d8:	efeeefee 	svc	0x00eeefee
d00233dc:	efeeefef 	svc	0x00eeefef
d00233e0:	eeeeefef 	cdp	15, 14, cr14, cr14, cr15, {7}
d00233e4:	eeeeeeee 	cdp	14, 14, cr14, cr14, cr14, {7}
d00233e8:	eeefeeee 	cdp	14, 14, cr14, cr15, cr14, {7}
d00233ec:	eaeeeeee 	b	cfbdefac <_start-0x441064>
d00233f0:	aaaaaaaa 	bge	ceacdea0 <_start-0x1552170>
d00233f4:	aaaaaaaa 	bge	ceacdea4 <_start-0x155216c>
d00233f8:	aaaaaaaa 	bge	ceacdea8 <_start-0x1552168>
d00233fc:	eeeeaeaa 	cdp	14, 14, cr10, cr14, cr10, {5}
d0023400:	eeeeeeee 	cdp	14, 14, cr14, cr14, cr14, {7}
d0023404:	eeeeeeee 	cdp	14, 14, cr14, cr14, cr14, {7}
d0023408:	eeeeeeee 	cdp	14, 14, cr14, cr14, cr14, {7}
d002340c:	000000ee 	andeq	r0, r0, lr, ror #1
	...
d0023418:	ffff1f05 	undefined instruction 0xffff1f05
d002341c:	ffffffff 	undefined instruction 0xffffffff
d0023420:	ffffffff 	undefined instruction 0xffffffff
d0023424:	ffffffff 	undefined instruction 0xffffffff
d0023428:	ffffffff 	undefined instruction 0xffffffff
d002342c:	ffffffff 	undefined instruction 0xffffffff
d0023430:	ffffffff 	undefined instruction 0xffffffff
d0023434:	ffffffff 	undefined instruction 0xffffffff
d0023438:	ffffffff 	undefined instruction 0xffffffff
d002343c:	dddd5ddd 	ldclle	13, cr5, [sp, #884]	; 0x374
d0023440:	dd55d5dd 	cfldr64le	mvdx13, [r5, #-884]	; 0xfffffc8c
d0023444:	ffffdfdd 	undefined instruction 0xffffdfdd
d0023448:	ffffffff 	undefined instruction 0xffffffff
d002344c:	ffffffff 	undefined instruction 0xffffffff
d0023450:	ffffffff 	undefined instruction 0xffffffff
d0023454:	ffffffff 	undefined instruction 0xffffffff
	...
d0023460:	8a000000 	bhi	d0023468 <gImage_pic+0xa9c>
d0023464:	bbbbbbab 	bllt	cef12318 <_start-0x110dcf8>
d0023468:	bfffbfbf 	svclt	0x00ffbfbf
d002346c:	ffffffff 	undefined instruction 0xffffffff
d0023470:	ffffffff 	undefined instruction 0xffffffff
d0023474:	ffffffff 	undefined instruction 0xffffffff
d0023478:	bbbbffff 	bllt	cef2347c <_start-0x10fcb94>
d002347c:	bbbbbbbb 	bllt	cef12370 <_start-0x110dca0>
d0023480:	bfbfbfbb 	svclt	0x00bfbfbb
d0023484:	aabbbbfb 	bge	cef12478 <_start-0x110db98>
d0023488:	aaaaaaaa 	bge	ceacdf38 <_start-0x15520d8>
d002348c:	aaaaaaaa 	bge	ceacdf3c <_start-0x15520d4>
d0023490:	bbbbbbab 	bllt	cef12344 <_start-0x110dccc>
d0023494:	bfbfbfbf 	svclt	0x00bfbfbf
d0023498:	bfbfbfbf 	svclt	0x00bfbfbf
d002349c:	bfffbfbb 	svclt	0x00ffbfbb
d00234a0:	00bbbfbf 	ldrhteq	fp, [fp], pc
	...
d00234ac:	7f070000 	svcvc	0x00070000
d00234b0:	ffffffff 	undefined instruction 0xffffffff
d00234b4:	ffffffff 	undefined instruction 0xffffffff
d00234b8:	ffffffff 	undefined instruction 0xffffffff
d00234bc:	ffffffff 	undefined instruction 0xffffffff
d00234c0:	ffffffff 	undefined instruction 0xffffffff
d00234c4:	ffffffff 	undefined instruction 0xffffffff
d00234c8:	ffffffff 	undefined instruction 0xffffffff
d00234cc:	ffffffff 	undefined instruction 0xffffffff
d00234d0:	fffdffff 	undefined instruction 0xfffdffff
d00234d4:	7ff75f75 	svcvc	0x00f75f75
d00234d8:	ffff7777 	undefined instruction 0xffff7777
d00234dc:	ffffffff 	undefined instruction 0xffffffff
d00234e0:	ffffffff 	undefined instruction 0xffffffff
d00234e4:	ffffffff 	undefined instruction 0xffffffff
d00234e8:	ffffffff 	undefined instruction 0xffffffff
d00234ec:	0000ffff 	strdeq	pc, [r0], -pc
	...
d00234f8:	eaaaaa02 	b	ceacdd08 <_start-0x1552308>
d00234fc:	eeeeeaee 	vfms.f32	s29, s29, s29
d0023500:	eeeeeeee 	cdp	14, 14, cr14, cr14, cr14, {7}
d0023504:	eeeeeeee 	cdp	14, 14, cr14, cr14, cr14, {7}
d0023508:	eeeeeeee 	cdp	14, 14, cr14, cr14, cr14, {7}
d002350c:	eeeefeee 	cdp	14, 14, cr15, cr14, cr14, {7}
d0023510:	eaeaeaea 	b	cfade0c0 <_start-0x541f50>
d0023514:	eeeeeeea 	cdp	14, 14, cr14, cr14, cr10, {7}
d0023518:	eaeeeeee 	b	cfbdf0d8 <_start-0x440f38>
d002351c:	aaaaaaea 	bge	ceace0cc <_start-0x1551f44>
d0023520:	aaaaaaaa 	bge	ceacdfd0 <_start-0x1552040>
d0023524:	eeaaaaaa 	vfma.f32	s20, s21, s21
d0023528:	eeeeeeee 	cdp	14, 14, cr14, cr14, cr14, {7}
d002352c:	eeeeeeee 	cdp	14, 14, cr14, cr14, cr14, {7}
d0023530:	eeeeeeee 	cdp	14, 14, cr14, cr14, cr14, {7}
d0023534:	eeeeeeee 	cdp	14, 14, cr14, cr14, cr14, {7}
d0023538:	000000ee 	andeq	r0, r0, lr, ror #1
	...
d0023544:	ffffff05 	undefined instruction 0xffffff05
d0023548:	ffffffff 	undefined instruction 0xffffffff
d002354c:	ffffffff 	undefined instruction 0xffffffff
d0023550:	ffffffff 	undefined instruction 0xffffffff
d0023554:	ffffffff 	undefined instruction 0xffffffff
d0023558:	ffffffff 	undefined instruction 0xffffffff
d002355c:	ffffffff 	undefined instruction 0xffffffff
d0023560:	ffffffff 	undefined instruction 0xffffffff
d0023564:	ffffffff 	undefined instruction 0xffffffff
d0023568:	fdfffdff 	ldc2l	13, cr15, [pc, #1020]!	; 0x3fc
d002356c:	fdfdddfd 	ldc2l	13, cr13, [sp, #1012]!	; 0x3f4
d0023570:	ffffffff 	undefined instruction 0xffffffff
d0023574:	ffffffff 	undefined instruction 0xffffffff
d0023578:	ffffffff 	undefined instruction 0xffffffff
d002357c:	ffffffff 	undefined instruction 0xffffffff
d0023580:	ffffffff 	undefined instruction 0xffffffff
d0023584:	00000000 	andeq	r0, r0, r0
d0023588:	80008000 	andhi	r8, r0, r0
d002358c:	8a000000 	bhi	d0023594 <gImage_pic+0xbc8>
d0023590:	bbbbbbab 	bllt	cef12444 <_start-0x110dbcc>
d0023594:	fffbfbfb 	undefined instruction 0xfffbfbfb
d0023598:	ffffffff 	undefined instruction 0xffffffff
d002359c:	ffffffff 	undefined instruction 0xffffffff
d00235a0:	ffffffff 	undefined instruction 0xffffffff
d00235a4:	bbbbfbff 	bllt	cef225a8 <_start-0x10fda68>
d00235a8:	bbbbbbbb 	bllt	cef1249c <_start-0x110db74>
d00235ac:	fbfbfbbb 	blx	cff224a2 <_start-0xfdb6e>
d00235b0:	bbbbbbbb 	bllt	cef124a4 <_start-0x110db6c>
d00235b4:	abababaa 	blge	ceb0e464 <_start-0x1511bac>
d00235b8:	bbbaaaab 	bllt	ceece06c <_start-0x1151fa4>
d00235bc:	fbfbbbbb 	blx	cff124b2 <_start-0x10db5e>
d00235c0:	fbfbfbfb 	blx	cff225b6 <_start-0xfda5a>
d00235c4:	fbfbfbfb 	blx	cff225ba <_start-0xfda56>
d00235c8:	fbfbfbfb 	blx	cff225be <_start-0xfda52>
d00235cc:	00fbfbfb 	ldrshteq	pc, [fp], #187	; 0xbb
	...
d00235d8:	ff170100 	undefined instruction 0xff170100
d00235dc:	ffffffff 	undefined instruction 0xffffffff
d00235e0:	ffffffff 	undefined instruction 0xffffffff
d00235e4:	ffffffff 	undefined instruction 0xffffffff
d00235e8:	ffffffff 	undefined instruction 0xffffffff
d00235ec:	ffffffff 	undefined instruction 0xffffffff
d00235f0:	ffffffff 	undefined instruction 0xffffffff
d00235f4:	ffffffff 	undefined instruction 0xffffffff
d00235f8:	ffffffff 	undefined instruction 0xffffffff
d00235fc:	ffffffff 	undefined instruction 0xffffffff
d0023600:	ffffffff 	undefined instruction 0xffffffff
d0023604:	ffffffff 	undefined instruction 0xffffffff
d0023608:	ffffffff 	undefined instruction 0xffffffff
d002360c:	ffffffff 	undefined instruction 0xffffffff
d0023610:	ffffffff 	undefined instruction 0xffffffff
d0023614:	ffffffff 	undefined instruction 0xffffffff
d0023618:	0000ffff 	strdeq	pc, [r0], -pc
	...
d0023624:	aeaaaa02 	vfmage.f32	s20, s20, s4
d0023628:	eeeeeeee 	cdp	14, 14, cr14, cr14, cr14, {7}
d002362c:	eeeeeeee 	cdp	14, 14, cr14, cr14, cr14, {7}
d0023630:	eeefeeef 	cdp	14, 14, cr14, cr15, cr15, {7}
d0023634:	eeefeeef 	cdp	14, 14, cr14, cr15, cr15, {7}
d0023638:	eeeeefef 	cdp	15, 14, cr14, cr14, cr15, {7}
d002363c:	aeaeeeee 	cdpge	14, 10, cr14, cr14, cr14, {7}
d0023640:	eeeeaeae 	cdp	14, 14, cr10, cr14, cr14, {5}
d0023644:	aeeeeeee 	cdpge	14, 14, cr14, cr14, cr14, {7}
d0023648:	aaaaaeae 	bge	ceacf108 <_start-0x1550f08>
d002364c:	aaaaaaaa 	bge	ceace0fc <_start-0x1551f14>
d0023650:	eeeeaeae 	cdp	14, 14, cr10, cr14, cr14, {5}
d0023654:	eeeeeeee 	cdp	14, 14, cr14, cr14, cr14, {7}
d0023658:	eeeeeeee 	cdp	14, 14, cr14, cr14, cr14, {7}
d002365c:	eeeeeeee 	cdp	14, 14, cr14, cr14, cr14, {7}
d0023660:	eeeeeeee 	cdp	14, 14, cr14, cr14, cr14, {7}
d0023664:	000000ee 	andeq	r0, r0, lr, ror #1
	...
d0023670:	ffffff0d 	undefined instruction 0xffffff0d
d0023674:	ffffffff 	undefined instruction 0xffffffff
d0023678:	ffffffff 	undefined instruction 0xffffffff
d002367c:	ffffffff 	undefined instruction 0xffffffff
d0023680:	ffffffff 	undefined instruction 0xffffffff
d0023684:	ffffffff 	undefined instruction 0xffffffff
d0023688:	ffffffff 	undefined instruction 0xffffffff
d002368c:	ffffffff 	undefined instruction 0xffffffff
d0023690:	ffffffff 	undefined instruction 0xffffffff
d0023694:	ffffffff 	undefined instruction 0xffffffff
d0023698:	ffffffff 	undefined instruction 0xffffffff
d002369c:	ffffffff 	undefined instruction 0xffffffff
d00236a0:	ffffffff 	undefined instruction 0xffffffff
d00236a4:	ffffffff 	undefined instruction 0xffffffff
d00236a8:	ffffffff 	undefined instruction 0xffffffff
d00236ac:	ffffffff 	undefined instruction 0xffffffff
	...
d00236b8:	8a0a0000 	bhi	d02a36c0 <bss_end+0x26e0f0>
d00236bc:	bfbbbbab 	svclt	0x00bbbbab
d00236c0:	ffffffbf 	undefined instruction 0xffffffbf
d00236c4:	ffffffff 	undefined instruction 0xffffffff
d00236c8:	ffffffff 	undefined instruction 0xffffffff
d00236cc:	ffffffff 	undefined instruction 0xffffffff
d00236d0:	bbbbfbff 	bllt	cef226d4 <_start-0x10fd93c>
d00236d4:	bbbbbbbb 	bllt	cef125c8 <_start-0x110da48>
d00236d8:	ffbfbbbb 	undefined instruction 0xffbfbbbb
d00236dc:	bbbbbbbb 	bllt	cef125d0 <_start-0x110da40>
d00236e0:	bbbbbbba 	bllt	cef125d0 <_start-0x110da40>
d00236e4:	bbbbbbbb 	bllt	cef125d8 <_start-0x110da38>
d00236e8:	bfbfbbbb 	svclt	0x00bfbbbb
d00236ec:	bbbfffbf 	bllt	cf0235f0 <_start-0xffca20>
d00236f0:	bfbfffbf 	svclt	0x00bfffbf
d00236f4:	bbbfbbbf 	bllt	cf0125f8 <_start-0x100da18>
d00236f8:	00bbbbbf 	ldrhteq	fp, [fp], pc
	...
d0023704:	ff1d0000 	undefined instruction 0xff1d0000
d0023708:	ffffffff 	undefined instruction 0xffffffff
d002370c:	ffffffff 	undefined instruction 0xffffffff
d0023710:	ffffffff 	undefined instruction 0xffffffff
d0023714:	ffffffff 	undefined instruction 0xffffffff
d0023718:	ffffffff 	undefined instruction 0xffffffff
d002371c:	ffffffff 	undefined instruction 0xffffffff
d0023720:	ffffffff 	undefined instruction 0xffffffff
d0023724:	ffffffff 	undefined instruction 0xffffffff
d0023728:	ffffffff 	undefined instruction 0xffffffff
d002372c:	ffffffff 	undefined instruction 0xffffffff
d0023730:	ffffffff 	undefined instruction 0xffffffff
d0023734:	ffffffff 	undefined instruction 0xffffffff
d0023738:	ffffffff 	undefined instruction 0xffffffff
d002373c:	ffffffff 	undefined instruction 0xffffffff
d0023740:	ffffffff 	undefined instruction 0xffffffff
d0023744:	0000ffff 	strdeq	pc, [r0], -pc
	...
d0023750:	eaae2a02 	b	cebadf60 <_start-0x14720b0>
d0023754:	eeeeeeee 	cdp	14, 14, cr14, cr14, cr14, {7}
d0023758:	eeeeeeee 	cdp	14, 14, cr14, cr14, cr14, {7}
d002375c:	eeeeeeee 	cdp	14, 14, cr14, cr14, cr14, {7}
d0023760:	eeeeeeee 	cdp	14, 14, cr14, cr14, cr14, {7}
d0023764:	eeeeeeee 	cdp	14, 14, cr14, cr14, cr14, {7}
d0023768:	eaeaeaea 	b	cfade318 <_start-0x541cf8>
d002376c:	eeeaeaea 	vfms.f32	s29, s21, s21
d0023770:	aafeeeee 	bge	cffdf330 <_start-0x40ce0>
d0023774:	aaaaaaaa 	bge	ceace224 <_start-0x1551dec>
d0023778:	eaeeeaaa 	b	cfbde228 <_start-0x441de8>
d002377c:	eeeeeeee 	cdp	14, 14, cr14, cr14, cr14, {7}
d0023780:	eeeeeeee 	cdp	14, 14, cr14, cr14, cr14, {7}
d0023784:	eeeeeeee 	cdp	14, 14, cr14, cr14, cr14, {7}
d0023788:	eeeeeeee 	cdp	14, 14, cr14, cr14, cr14, {7}
d002378c:	eeeeeeee 	cdp	14, 14, cr14, cr14, cr14, {7}
d0023790:	000000ee 	andeq	r0, r0, lr, ror #1
	...
d002379c:	ffffdf1d 	undefined instruction 0xffffdf1d
d00237a0:	ffffffff 	undefined instruction 0xffffffff
d00237a4:	ffffffff 	undefined instruction 0xffffffff
d00237a8:	ffffffff 	undefined instruction 0xffffffff
d00237ac:	ffffffff 	undefined instruction 0xffffffff
d00237b0:	ffffffff 	undefined instruction 0xffffffff
d00237b4:	ffffffff 	undefined instruction 0xffffffff
d00237b8:	ffffffff 	undefined instruction 0xffffffff
d00237bc:	fffffdff 	undefined instruction 0xfffffdff
d00237c0:	ffffffff 	undefined instruction 0xffffffff
d00237c4:	ffffffff 	undefined instruction 0xffffffff
d00237c8:	ffffffff 	undefined instruction 0xffffffff
d00237cc:	ffffffff 	undefined instruction 0xffffffff
d00237d0:	ffffffff 	undefined instruction 0xffffffff
d00237d4:	ffffffff 	undefined instruction 0xffffffff
d00237d8:	ffffffff 	undefined instruction 0xffffffff
d00237dc:	00000080 	andeq	r0, r0, r0, lsl #1
d00237e0:	00800000 	addeq	r0, r0, r0
d00237e4:	aa8a0000 	bge	ce2a37ec <_start-0x1d7c824>
d00237e8:	fbbbbbbb 	blx	cef126de <_start-0x110d932>
d00237ec:	fffffbfb 	undefined instruction 0xfffffbfb
d00237f0:	ffffffff 	undefined instruction 0xffffffff
d00237f4:	ffffffff 	undefined instruction 0xffffffff
d00237f8:	ffffffff 	undefined instruction 0xffffffff
d00237fc:	bbbbfbff 	bllt	cef22800 <_start-0x10fd810>
d0023800:	bbbbbbbb 	bllt	cef126f4 <_start-0x110d91c>
d0023804:	fffbbbbb 	undefined instruction 0xfffbbbbb
d0023808:	ababaaea 	blge	ceb0e3b8 <_start-0x1511c58>
d002380c:	bbbbbbbb 	bllt	cef12700 <_start-0x110d910>
d0023810:	fbfbbbbb 	blx	cff12706 <_start-0x10d90a>
d0023814:	fbfbfbfb 	blx	cff2280a <_start-0xfd806>
d0023818:	fbfbfbfb 	blx	cff2280e <_start-0xfd802>
d002381c:	fbfbfbfb 	blx	cff22812 <_start-0xfd7fe>
d0023820:	fbfbfbfb 	blx	cff22816 <_start-0xfd7fa>
d0023824:	00fbfbfb 	ldrshteq	pc, [fp], #187	; 0xbb
	...
d0023830:	ff170000 	undefined instruction 0xff170000
d0023834:	ffffffff 	undefined instruction 0xffffffff
d0023838:	ffffffff 	undefined instruction 0xffffffff
d002383c:	ffffffff 	undefined instruction 0xffffffff
d0023840:	ffffffff 	undefined instruction 0xffffffff
d0023844:	ffffffff 	undefined instruction 0xffffffff
d0023848:	ffffffff 	undefined instruction 0xffffffff
d002384c:	ffffffff 	undefined instruction 0xffffffff
d0023850:	e1ffffff 	ldrsh	pc, [pc, #255]	; d0023957 <gImage_pic+0xf8b>
d0023854:	ffff7f57 	undefined instruction 0xffff7f57
d0023858:	ffffffff 	undefined instruction 0xffffffff
d002385c:	ffffffff 	undefined instruction 0xffffffff
d0023860:	ffffffff 	undefined instruction 0xffffffff
d0023864:	ffffffff 	undefined instruction 0xffffffff
d0023868:	ffffffff 	undefined instruction 0xffffffff
d002386c:	ffffffff 	undefined instruction 0xffffffff
d0023870:	0000ffff 	strdeq	pc, [r0], -pc
	...
d002387c:	aeaa2a0a 	vfmage.f32	s4, s20, s20
d0023880:	eeeeeeee 	cdp	14, 14, cr14, cr14, cr14, {7}
d0023884:	eeeeeeee 	cdp	14, 14, cr14, cr14, cr14, {7}
d0023888:	eeeeefee 	cdp	15, 14, cr14, cr14, cr14, {7}
d002388c:	efefefee 	svc	0x00efefee
d0023890:	efefefef 	svc	0x00efefef
d0023894:	aeeeeeee 	cdpge	14, 14, cr14, cr14, cr14, {7}
d0023898:	aeaeaeae 	cdpge	14, 10, cr10, cr14, cr14, {5}
d002389c:	aaeaeeee 	bge	cfadf45c <_start-0x540bb4>
d00238a0:	aeaaaaaa 	vfmage.f32	s20, s21, s21
d00238a4:	eeeeeeee 	cdp	14, 14, cr14, cr14, cr14, {7}
d00238a8:	eeeeeeee 	cdp	14, 14, cr14, cr14, cr14, {7}
d00238ac:	eeeeeeee 	cdp	14, 14, cr14, cr14, cr14, {7}
d00238b0:	eeeeeeee 	cdp	14, 14, cr14, cr14, cr14, {7}
d00238b4:	eeeeeeee 	cdp	14, 14, cr14, cr14, cr14, {7}
d00238b8:	eeeeeeee 	cdp	14, 14, cr14, cr14, cr14, {7}
d00238bc:	000000ee 	andeq	r0, r0, lr, ror #1
d00238c0:	00000000 	andeq	r0, r0, r0
d00238c4:	04000000 	streq	r0, [r0]
d00238c8:	ffffff57 	undefined instruction 0xffffff57
d00238cc:	ffffffff 	undefined instruction 0xffffffff
d00238d0:	ffffffff 	undefined instruction 0xffffffff
d00238d4:	ffffffff 	undefined instruction 0xffffffff
d00238d8:	ffffffff 	undefined instruction 0xffffffff
d00238dc:	ffffffff 	undefined instruction 0xffffffff
d00238e0:	ffffffff 	undefined instruction 0xffffffff
d00238e4:	ffffffff 	undefined instruction 0xffffffff
d00238e8:	4d00f4ff 	cfstrsmi	mvf15, [r0, #-1020]	; 0xfffffc04
d00238ec:	ffffffdd 	undefined instruction 0xffffffdd
d00238f0:	ffffffff 	undefined instruction 0xffffffff
d00238f4:	ffffffff 	undefined instruction 0xffffffff
d00238f8:	ffffffff 	undefined instruction 0xffffffff
d00238fc:	ffffffff 	undefined instruction 0xffffffff
d0023900:	ffffffff 	undefined instruction 0xffffffff
d0023904:	ffffffff 	undefined instruction 0xffffffff
	...
d0023910:	ab080000 	blge	d0223918 <bss_end+0x1ee348>
d0023914:	bbbbbfbb 	bllt	cef13808 <_start-0x110c808>
d0023918:	ffffffbf 	undefined instruction 0xffffffbf
d002391c:	ffffffff 	undefined instruction 0xffffffff
d0023920:	ffffffff 	undefined instruction 0xffffffff
d0023924:	ffffffff 	undefined instruction 0xffffffff
d0023928:	bbffffff 	bllt	d002392c <gImage_pic+0xf60>
d002392c:	bbbbbbbb 	bllt	cef12820 <_start-0x110d7f0>
d0023930:	bfbbbbbb 	svclt	0x00bbbbbb
d0023934:	aaaaaafa 	bge	ceace524 <_start-0x1551aec>
d0023938:	bbbbbbaa 	bllt	cef127e8 <_start-0x110d828>
d002393c:	bfbbbbbb 	svclt	0x00bbbbbb
d0023940:	bfffbfbf 	svclt	0x00ffbfbf
d0023944:	bfbbbfbf 	svclt	0x00bbbfbf
d0023948:	bfbfbfbf 	svclt	0x00bfbfbf
d002394c:	bfbbbbbb 	svclt	0x00bbbbbb
d0023950:	00bbbbbb 	ldrhteq	fp, [fp], fp
	...
d002395c:	ff570000 	undefined instruction 0xff570000
d0023960:	ffffffff 	undefined instruction 0xffffffff
d0023964:	ffffffff 	undefined instruction 0xffffffff
d0023968:	ffffffff 	undefined instruction 0xffffffff
d002396c:	ffffffff 	undefined instruction 0xffffffff
d0023970:	ffffffff 	undefined instruction 0xffffffff
d0023974:	ffffffff 	undefined instruction 0xffffffff
d0023978:	ffffffff 	undefined instruction 0xffffffff
d002397c:	fdffffff 	ldc2l	15, cr15, [pc, #1020]!	; 0x3fc
d0023980:	7f151110 	svcvc	0x00151110
d0023984:	ffffffff 	undefined instruction 0xffffffff
d0023988:	ffffffff 	undefined instruction 0xffffffff
d002398c:	ffffffff 	undefined instruction 0xffffffff
d0023990:	ffffffff 	undefined instruction 0xffffffff
d0023994:	ffffffff 	undefined instruction 0xffffffff
d0023998:	ffffffff 	undefined instruction 0xffffffff
d002399c:	0000ffff 	strdeq	pc, [r0], -pc
	...
d00239a8:	eeaaaa0a 	vfma.f32	s20, s20, s20
d00239ac:	eeeeeeea 	cdp	14, 14, cr14, cr14, cr10, {7}
d00239b0:	eeeeeeee 	cdp	14, 14, cr14, cr14, cr14, {7}
d00239b4:	eeeeeeee 	cdp	14, 14, cr14, cr14, cr14, {7}
d00239b8:	eeeeeeee 	cdp	14, 14, cr14, cr14, cr14, {7}
d00239bc:	fefefeee 	cdp2	14, 15, cr15, cr14, cr14, {7}
d00239c0:	eaeaeaee 	b	cfade580 <_start-0x541a90>
d00239c4:	aaaaeaea 	bge	ceade574 <_start-0x1541a9c>
d00239c8:	aaaaeeea 	bge	ceadf578 <_start-0x1540a98>
d00239cc:	aaaaaaaa 	bge	ceace47c <_start-0x1551b94>
d00239d0:	eeeeeeea 	cdp	14, 14, cr14, cr14, cr10, {7}
d00239d4:	eeeeeeee 	cdp	14, 14, cr14, cr14, cr14, {7}
d00239d8:	eeeeeeee 	cdp	14, 14, cr14, cr14, cr14, {7}
d00239dc:	eeeeeeee 	cdp	14, 14, cr14, cr14, cr14, {7}
d00239e0:	eeeeeeee 	cdp	14, 14, cr14, cr14, cr14, {7}
d00239e4:	eeeeeeee 	cdp	14, 14, cr14, cr14, cr14, {7}
d00239e8:	000000ee 	andeq	r0, r0, lr, ror #1
	...
d00239f4:	ffffffcf 	undefined instruction 0xffffffcf
d00239f8:	ffffffff 	undefined instruction 0xffffffff
d00239fc:	ffffffff 	undefined instruction 0xffffffff
d0023a00:	ffffffff 	undefined instruction 0xffffffff
d0023a04:	ffffffff 	undefined instruction 0xffffffff
d0023a08:	ffffffff 	undefined instruction 0xffffffff
d0023a0c:	ffffffff 	undefined instruction 0xffffffff
d0023a10:	ffffffff 	undefined instruction 0xffffffff
d0023a14:	0440fdff 	strbeq	pc, [r0], #-3583	; 0xdff
d0023a18:	ffff5500 	undefined instruction 0xffff5500
d0023a1c:	ffffffff 	undefined instruction 0xffffffff
d0023a20:	ffffffff 	undefined instruction 0xffffffff
d0023a24:	ffffffff 	undefined instruction 0xffffffff
d0023a28:	ffffffff 	undefined instruction 0xffffffff
d0023a2c:	ffffffff 	undefined instruction 0xffffffff
d0023a30:	ffffffff 	undefined instruction 0xffffffff
d0023a34:	80008000 	andhi	r8, r0, r0
d0023a38:	80000000 	andhi	r0, r0, r0
d0023a3c:	ab0a0000 	blge	d02a3a44 <bss_end+0x26e474>
d0023a40:	fbbbbbbb 	blx	cef12936 <_start-0x110d6da>
d0023a44:	fffffffb 	undefined instruction 0xfffffffb
d0023a48:	ffffffff 	undefined instruction 0xffffffff
d0023a4c:	ffffffff 	undefined instruction 0xffffffff
d0023a50:	ffffffff 	undefined instruction 0xffffffff
d0023a54:	fbffffff 	blx	d0023a5a <gImage_pic+0x108e>
d0023a58:	bbbbbbbb 	bllt	cef1294c <_start-0x110d6c4>
d0023a5c:	bbbbbbbb 	bllt	cef12950 <_start-0x110d6c0>
d0023a60:	aaaaaaaa 	bge	ceace510 <_start-0x1551b00>
d0023a64:	bbbbabaa 	bllt	cef0e914 <_start-0x11116fc>
d0023a68:	fbfbfbbb 	blx	cff2295e <_start-0xfd6b2>
d0023a6c:	fbfbfbfb 	blx	cff22a62 <_start-0xfd5ae>
d0023a70:	fbfbfbfb 	blx	cff22a66 <_start-0xfd5aa>
d0023a74:	fbfbfbfb 	blx	cff22a6a <_start-0xfd5a6>
d0023a78:	fbfbfbfb 	blx	cff22a6e <_start-0xfd5a2>
d0023a7c:	00fbfbbb 	ldrhteq	pc, [fp], #187	; 0xbb
	...
d0023a88:	ffd70100 	undefined instruction 0xffd70100
d0023a8c:	ffffffff 	undefined instruction 0xffffffff
d0023a90:	ffffffff 	undefined instruction 0xffffffff
d0023a94:	ffffffff 	undefined instruction 0xffffffff
d0023a98:	ffffffff 	undefined instruction 0xffffffff
d0023a9c:	ffffffff 	undefined instruction 0xffffffff
d0023aa0:	ffffffff 	undefined instruction 0xffffffff
d0023aa4:	ffffffff 	undefined instruction 0xffffffff
d0023aa8:	ffffffff 	undefined instruction 0xffffffff
d0023aac:	110151d5 	ldrdne	r5, [r1, -r5]
d0023ab0:	ffffff77 	undefined instruction 0xffffff77
d0023ab4:	ffffffff 	undefined instruction 0xffffffff
d0023ab8:	ffffffff 	undefined instruction 0xffffffff
d0023abc:	ffffffff 	undefined instruction 0xffffffff
d0023ac0:	ffffffff 	undefined instruction 0xffffffff
d0023ac4:	ffffffff 	undefined instruction 0xffffffff
d0023ac8:	0000ffff 	strdeq	pc, [r0], -pc
	...
d0023ad4:	aeeeaa2a 	vfmage.f32	s21, s28, s21
d0023ad8:	eeeeeeae 	cdp	14, 14, cr14, cr14, cr14, {5}
d0023adc:	eeeeeeee 	cdp	14, 14, cr14, cr14, cr14, {7}
d0023ae0:	eeefeeee 	cdp	14, 14, cr14, cr15, cr14, {7}
d0023ae4:	efefeeef 	svc	0x00efeeef
d0023ae8:	efefeeef 	svc	0x00efeeef
d0023aec:	eeeeeeef 	cdp	14, 14, cr14, cr14, cr15, {7}
d0023af0:	aeaeaeae 	cdpge	14, 10, cr10, cr14, cr14, {5}
d0023af4:	aaaaeeae 	bge	ceadf5b4 <_start-0x1540a5c>
d0023af8:	aaaaaaaa 	bge	ceace5a8 <_start-0x1551a68>
d0023afc:	eeeeeeae 	cdp	14, 14, cr14, cr14, cr14, {5}
d0023b00:	eeeeeeee 	cdp	14, 14, cr14, cr14, cr14, {7}
d0023b04:	eeeeeeee 	cdp	14, 14, cr14, cr14, cr14, {7}
d0023b08:	eeeeeeee 	cdp	14, 14, cr14, cr14, cr14, {7}
d0023b0c:	eeeeeeee 	cdp	14, 14, cr14, cr14, cr14, {7}
d0023b10:	eeeeeeee 	cdp	14, 14, cr14, cr14, cr14, {7}
d0023b14:	000000ee 	andeq	r0, r0, lr, ror #1
d0023b18:	00000000 	andeq	r0, r0, r0
d0023b1c:	04000000 	streq	r0, [r0]
d0023b20:	ffffff5f 	undefined instruction 0xffffff5f
d0023b24:	ffffffff 	undefined instruction 0xffffffff
d0023b28:	ffffffff 	undefined instruction 0xffffffff
d0023b2c:	ffffffff 	undefined instruction 0xffffffff
d0023b30:	ffffffff 	undefined instruction 0xffffffff
d0023b34:	ffffffff 	undefined instruction 0xffffffff
d0023b38:	ffffffff 	undefined instruction 0xffffffff
d0023b3c:	ffffffff 	undefined instruction 0xffffffff
d0023b40:	5cd5ffff 	ldclpl	15, cr15, [r5], {255}	; 0xff
d0023b44:	ff5d0000 	undefined instruction 0xff5d0000
d0023b48:	ffffffff 	undefined instruction 0xffffffff
d0023b4c:	ffffffff 	undefined instruction 0xffffffff
d0023b50:	ffffffff 	undefined instruction 0xffffffff
d0023b54:	ffffffff 	undefined instruction 0xffffffff
d0023b58:	ffffffff 	undefined instruction 0xffffffff
d0023b5c:	ffffffff 	undefined instruction 0xffffffff
	...
d0023b68:	ab0a0000 	blge	d02a3b70 <bss_end+0x26e5a0>
d0023b6c:	ffbbbbbb 	undefined instruction 0xffbbbbbb
d0023b70:	ffffffff 	undefined instruction 0xffffffff
d0023b74:	ffffffff 	undefined instruction 0xffffffff
d0023b78:	ffffffff 	undefined instruction 0xffffffff
d0023b7c:	ffffffff 	undefined instruction 0xffffffff
d0023b80:	ffffffff 	undefined instruction 0xffffffff
d0023b84:	bbbbbbbb 	bllt	cef12a78 <_start-0x110d598>
d0023b88:	bbbbbbbb 	bllt	cef12a7c <_start-0x110d594>
d0023b8c:	aaaaaaba 	bge	ceace67c <_start-0x1551994>
d0023b90:	bbbbaaaa 	bllt	cef0e640 <_start-0x11119d0>
d0023b94:	ffbfbbbb 	undefined instruction 0xffbfbbbb
d0023b98:	fbbfbfbf 	blx	cf013a9e <_start-0x100c572>
d0023b9c:	bfbfffbf 	svclt	0x00bfffbf
d0023ba0:	bbbfbbbf 	bllt	cf012aa4 <_start-0x100d56c>
d0023ba4:	bbbbbbbf 	bllt	cef12aa8 <_start-0x110d568>
d0023ba8:	00bbbbbb 	ldrhteq	fp, [fp], fp
	...
d0023bb4:	ff7f1500 	undefined instruction 0xff7f1500
d0023bb8:	ffffffff 	undefined instruction 0xffffffff
d0023bbc:	ffffffff 	undefined instruction 0xffffffff
d0023bc0:	ffffffff 	undefined instruction 0xffffffff
d0023bc4:	ffffffff 	undefined instruction 0xffffffff
d0023bc8:	ffffffff 	undefined instruction 0xffffffff
d0023bcc:	ffffffff 	undefined instruction 0xffffffff
d0023bd0:	ffffffff 	undefined instruction 0xffffffff
d0023bd4:	ffffffff 	undefined instruction 0xffffffff
d0023bd8:	11515575 	cmpne	r1, r5, ror r5
d0023bdc:	ffff7f15 	undefined instruction 0xffff7f15
d0023be0:	ffffffff 	undefined instruction 0xffffffff
d0023be4:	ffffffff 	undefined instruction 0xffffffff
d0023be8:	ffffffff 	undefined instruction 0xffffffff
d0023bec:	ffffffff 	undefined instruction 0xffffffff
d0023bf0:	ffffffff 	undefined instruction 0xffffffff
d0023bf4:	0000ffff 	strdeq	pc, [r0], -pc
	...
d0023c00:	eeeaaa2a 	vfma.f32	s21, s20, s21
d0023c04:	eeeeeeee 	cdp	14, 14, cr14, cr14, cr14, {7}
d0023c08:	eeeeeeee 	cdp	14, 14, cr14, cr14, cr14, {7}
d0023c0c:	eeeeeeee 	cdp	14, 14, cr14, cr14, cr14, {7}
d0023c10:	eeeeeeee 	cdp	14, 14, cr14, cr14, cr14, {7}
d0023c14:	eeeefeee 	cdp	14, 14, cr15, cr14, cr14, {7}
d0023c18:	eeeeeefe 	mcr	14, 7, lr, cr14, cr14, {7}
d0023c1c:	eaeaeaea 	b	cfade7cc <_start-0x541844>
d0023c20:	aaaaaaea 	bge	ceace7d0 <_start-0x1551840>
d0023c24:	aaaaaaaa 	bge	ceace6d4 <_start-0x155193c>
d0023c28:	eeeeeeaa 	cdp	14, 14, cr14, cr14, cr10, {5}
d0023c2c:	eeeeeeee 	cdp	14, 14, cr14, cr14, cr14, {7}
d0023c30:	eeeeeeee 	cdp	14, 14, cr14, cr14, cr14, {7}
d0023c34:	eeeeeeee 	cdp	14, 14, cr14, cr14, cr14, {7}
d0023c38:	eeeeeeee 	cdp	14, 14, cr14, cr14, cr14, {7}
d0023c3c:	eeeeeeee 	cdp	14, 14, cr14, cr14, cr14, {7}
d0023c40:	000000ee 	andeq	r0, r0, lr, ror #1
d0023c44:	00000000 	andeq	r0, r0, r0
d0023c48:	0d000000 	stceq	0, cr0, [r0]
d0023c4c:	ffffffdf 	undefined instruction 0xffffffdf
d0023c50:	ffffffff 	undefined instruction 0xffffffff
d0023c54:	ffffffff 	undefined instruction 0xffffffff
d0023c58:	ffffffff 	undefined instruction 0xffffffff
d0023c5c:	ffffffff 	undefined instruction 0xffffffff
d0023c60:	ffffffff 	undefined instruction 0xffffffff
d0023c64:	ffffffff 	undefined instruction 0xffffffff
d0023c68:	ffffffff 	undefined instruction 0xffffffff
d0023c6c:	d5ddffff 	ldrble	pc, [sp, #4095]	; 0xfff
d0023c70:	5f0040d4 	svcpl	0x000040d4
d0023c74:	ffffffff 	undefined instruction 0xffffffff
d0023c78:	ffffffff 	undefined instruction 0xffffffff
d0023c7c:	ffffffff 	undefined instruction 0xffffffff
d0023c80:	ffffffff 	undefined instruction 0xffffffff
d0023c84:	ffffffff 	undefined instruction 0xffffffff
d0023c88:	ffffffff 	undefined instruction 0xffffffff
d0023c8c:	00000080 	andeq	r0, r0, r0, lsl #1
d0023c90:	00000000 	andeq	r0, r0, r0
d0023c94:	abaa0000 	blge	ceaa3c9c <_start-0x157c374>
d0023c98:	fbbbbbbb 	blx	cef12b8e <_start-0x110d482>
d0023c9c:	fffffbff 	undefined instruction 0xfffffbff
d0023ca0:	ffffffff 	undefined instruction 0xffffffff
d0023ca4:	ffffffff 	undefined instruction 0xffffffff
d0023ca8:	ffffffff 	undefined instruction 0xffffffff
d0023cac:	ffffffff 	undefined instruction 0xffffffff
d0023cb0:	bbbbbbfb 	bllt	cef12ca4 <_start-0x110d36c>
d0023cb4:	bbbbbbbb 	bllt	cef12ba8 <_start-0x110d468>
d0023cb8:	aaaaaabb 	bge	ceace7ac <_start-0x1551864>
d0023cbc:	bbabaaaa 	bllt	ceb0e76c <_start-0x15118a4>
d0023cc0:	fbfbfbfb 	blx	cff22cb6 <_start-0xfd35a>
d0023cc4:	fbfbfbfb 	blx	cff22cba <_start-0xfd356>
d0023cc8:	fbfbfbfb 	blx	cff22cbe <_start-0xfd352>
d0023ccc:	fbfbfbfb 	blx	cff22cc2 <_start-0xfd34e>
d0023cd0:	fbfbfbfb 	blx	cff22cc6 <_start-0xfd34a>
d0023cd4:	00fbbbfb 	ldrshteq	fp, [fp], #187	; 0xbb
	...
d0023ce0:	ff5f1500 	undefined instruction 0xff5f1500
d0023ce4:	ffffffff 	undefined instruction 0xffffffff
d0023ce8:	ffffffff 	undefined instruction 0xffffffff
d0023cec:	ffffffff 	undefined instruction 0xffffffff
d0023cf0:	ffffffff 	undefined instruction 0xffffffff
d0023cf4:	ffffffff 	undefined instruction 0xffffffff
d0023cf8:	ffffffff 	undefined instruction 0xffffffff
d0023cfc:	ffffffff 	undefined instruction 0xffffffff
d0023d00:	ffffffff 	undefined instruction 0xffffffff
d0023d04:	5555f7ff 	ldrbpl	pc, [r5, #-2047]	; 0x7ff
d0023d08:	ffff1711 	undefined instruction 0xffff1711
d0023d0c:	ffffffff 	undefined instruction 0xffffffff
d0023d10:	ffffffff 	undefined instruction 0xffffffff
d0023d14:	ffffffff 	undefined instruction 0xffffffff
d0023d18:	ffffffff 	undefined instruction 0xffffffff
d0023d1c:	ffffffff 	undefined instruction 0xffffffff
d0023d20:	0000ffff 	strdeq	pc, [r0], -pc
	...
d0023d2c:	eeeeaa2a 	vfma.f32	s21, s28, s21
d0023d30:	eeeeeeee 	cdp	14, 14, cr14, cr14, cr14, {7}
d0023d34:	efeeeeee 	svc	0x00eeeeee
d0023d38:	efeeefee 	svc	0x00eeefee
d0023d3c:	efeeeeee 	svc	0x00eeeeee
d0023d40:	efefefef 	svc	0x00efefef
d0023d44:	eeeeeeee 	cdp	14, 14, cr14, cr14, cr14, {7}
d0023d48:	aeeeeeee 	cdpge	14, 14, cr14, cr14, cr14, {7}
d0023d4c:	aaaaaeae 	bge	ceacf80c <_start-0x1550804>
d0023d50:	aaaaaaaa 	bge	ceace800 <_start-0x1551810>
d0023d54:	eeeeaeaa 	cdp	14, 14, cr10, cr14, cr10, {5}
d0023d58:	eeeeeeee 	cdp	14, 14, cr14, cr14, cr14, {7}
d0023d5c:	eeeeeeee 	cdp	14, 14, cr14, cr14, cr14, {7}
d0023d60:	eeeeeeee 	cdp	14, 14, cr14, cr14, cr14, {7}
d0023d64:	eeeeeeee 	cdp	14, 14, cr14, cr14, cr14, {7}
d0023d68:	eeeeeeee 	cdp	14, 14, cr14, cr14, cr14, {7}
d0023d6c:	000000ee 	andeq	r0, r0, lr, ror #1
d0023d70:	00000000 	andeq	r0, r0, r0
d0023d74:	01000000 	tsteq	r0, r0
d0023d78:	ffffffdf 	undefined instruction 0xffffffdf
d0023d7c:	ffffffff 	undefined instruction 0xffffffff
d0023d80:	ffffffff 	undefined instruction 0xffffffff
d0023d84:	ffffffff 	undefined instruction 0xffffffff
d0023d88:	ffffffff 	undefined instruction 0xffffffff
d0023d8c:	ffffffff 	undefined instruction 0xffffffff
d0023d90:	ffffffff 	undefined instruction 0xffffffff
d0023d94:	ffffffff 	undefined instruction 0xffffffff
d0023d98:	ddffffff 	ldclle	15, cr15, [pc, #1020]!	; 0x3fc
d0023d9c:	0500ddd5 	streq	sp, [r0, #-3541]	; 0xdd5
d0023da0:	ffffffff 	undefined instruction 0xffffffff
d0023da4:	ffffffff 	undefined instruction 0xffffffff
d0023da8:	ffffffff 	undefined instruction 0xffffffff
d0023dac:	ffffffff 	undefined instruction 0xffffffff
d0023db0:	ffffffff 	undefined instruction 0xffffffff
d0023db4:	ffffffff 	undefined instruction 0xffffffff
	...
d0023dc0:	ab2a0000 	blge	d0aa3dc8 <bss_end+0xa6e7f8>
d0023dc4:	bfbfbbbb 	svclt	0x00bfbbbb
d0023dc8:	ffffffff 	undefined instruction 0xffffffff
d0023dcc:	ffffffff 	undefined instruction 0xffffffff
d0023dd0:	ffffffff 	undefined instruction 0xffffffff
d0023dd4:	ffffffff 	undefined instruction 0xffffffff
d0023dd8:	ffffffff 	undefined instruction 0xffffffff
d0023ddc:	bbbbbbfb 	bllt	cef12dd0 <_start-0x110d240>
d0023de0:	bbbbbbbb 	bllt	cef12cd4 <_start-0x110d33c>
d0023de4:	aaaababb 	bge	cead28d8 <_start-0x154d738>
d0023de8:	bbaaaaaa 	bllt	ceace898 <_start-0x1551778>
d0023dec:	bfbfbfbb 	svclt	0x00bfbfbb
d0023df0:	bbbfbfbb 	bllt	cf013ce4 <_start-0x100c32c>
d0023df4:	bfbfbbbf 	svclt	0x00bfbbbf
d0023df8:	bfbbbbbf 	svclt	0x00bbbbbf
d0023dfc:	bbbbbbbb 	bllt	cef12cf0 <_start-0x110d320>
d0023e00:	00bfbbbb 	ldrhteq	fp, [pc], fp
	...
d0023e0c:	ffff1100 	undefined instruction 0xffff1100
d0023e10:	ffffffff 	undefined instruction 0xffffffff
d0023e14:	ffffffff 	undefined instruction 0xffffffff
d0023e18:	ffffffff 	undefined instruction 0xffffffff
d0023e1c:	ffffffff 	undefined instruction 0xffffffff
d0023e20:	ffffffff 	undefined instruction 0xffffffff
d0023e24:	ffffffff 	undefined instruction 0xffffffff
d0023e28:	ffffffff 	undefined instruction 0xffffffff
d0023e2c:	ffffffff 	undefined instruction 0xffffffff
d0023e30:	7d7dffff 	ldclvc	15, cr15, [sp, #-1020]!	; 0xfffffc04
d0023e34:	ff7f1151 	undefined instruction 0xff7f1151
d0023e38:	ffffffff 	undefined instruction 0xffffffff
d0023e3c:	ffffffff 	undefined instruction 0xffffffff
d0023e40:	ffffffff 	undefined instruction 0xffffffff
d0023e44:	ffffffff 	undefined instruction 0xffffffff
d0023e48:	ffffffff 	undefined instruction 0xffffffff
d0023e4c:	0000ffff 	strdeq	pc, [r0], -pc
	...
d0023e58:	eeeaaa2a 	vfma.f32	s21, s20, s21
d0023e5c:	eeeeeeee 	cdp	14, 14, cr14, cr14, cr14, {7}
d0023e60:	eeeeeeee 	cdp	14, 14, cr14, cr14, cr14, {7}
d0023e64:	eeeeeeee 	cdp	14, 14, cr14, cr14, cr14, {7}
d0023e68:	eeeeeeee 	cdp	14, 14, cr14, cr14, cr14, {7}
d0023e6c:	eeeefeee 	cdp	14, 14, cr15, cr14, cr14, {7}
d0023e70:	eaeaeeee 	b	cfadfa30 <_start-0x5405e0>
d0023e74:	eaeaeaea 	b	cfadea24 <_start-0x5415ec>
d0023e78:	aaaaaaaa 	bge	ceace928 <_start-0x15516e8>
d0023e7c:	aaaaaaaa 	bge	ceace92c <_start-0x15516e4>
d0023e80:	eeeeaaaa 	vfma.f32	s21, s29, s21
d0023e84:	eeeeeeee 	cdp	14, 14, cr14, cr14, cr14, {7}
d0023e88:	eeeeeeee 	cdp	14, 14, cr14, cr14, cr14, {7}
d0023e8c:	eeeeeeee 	cdp	14, 14, cr14, cr14, cr14, {7}
d0023e90:	eeeeeeee 	cdp	14, 14, cr14, cr14, cr14, {7}
d0023e94:	eeeeeeee 	cdp	14, 14, cr14, cr14, cr14, {7}
d0023e98:	000000ee 	andeq	r0, r0, lr, ror #1
d0023e9c:	00000000 	andeq	r0, r0, r0
d0023ea0:	01000000 	tsteq	r0, r0
d0023ea4:	ffffffdf 	undefined instruction 0xffffffdf
d0023ea8:	ffffffff 	undefined instruction 0xffffffff
d0023eac:	ffffffff 	undefined instruction 0xffffffff
d0023eb0:	ffffffff 	undefined instruction 0xffffffff
d0023eb4:	ffffffff 	undefined instruction 0xffffffff
d0023eb8:	ffffffff 	undefined instruction 0xffffffff
d0023ebc:	ffffffff 	undefined instruction 0xffffffff
d0023ec0:	ffffffff 	undefined instruction 0xffffffff
d0023ec4:	fdffffff 	ldc2l	15, cr15, [pc, #1020]!	; 0x3fc
d0023ec8:	44d45dfd 	ldrbmi	r5, [r4], #3581	; 0xdfd
d0023ecc:	ffffff5f 	undefined instruction 0xffffff5f
d0023ed0:	ffffffff 	undefined instruction 0xffffffff
d0023ed4:	ffffffff 	undefined instruction 0xffffffff
d0023ed8:	ffffffff 	undefined instruction 0xffffffff
d0023edc:	ffffffff 	undefined instruction 0xffffffff
d0023ee0:	ffffffff 	undefined instruction 0xffffffff
d0023ee4:	00000000 	andeq	r0, r0, r0
d0023ee8:	80000000 	andhi	r0, r0, r0
d0023eec:	ab8a0000 	blge	ce2a3ef4 <_start-0x1d7c11c>
d0023ef0:	fbfbfbbb 	blx	cff22de6 <_start-0xfd22a>
d0023ef4:	fffbfffb 	undefined instruction 0xfffbfffb
d0023ef8:	ffffffff 	undefined instruction 0xffffffff
d0023efc:	fffffffb 	undefined instruction 0xfffffffb
d0023f00:	ffffffff 	undefined instruction 0xffffffff
d0023f04:	fbffffff 	blx	d0023f0a <gImage_pic+0x153e>
d0023f08:	bbbbbbfb 	bllt	cef12efc <_start-0x110d114>
d0023f0c:	bbbbbbbb 	bllt	cef12e00 <_start-0x110d210>
d0023f10:	aaaaabbb 	bge	ceacee04 <_start-0x155120c>
d0023f14:	abaaaaaa 	blge	ceace9c4 <_start-0x155164c>
d0023f18:	fbfbfbbb 	blx	cff22e0e <_start-0xfd202>
d0023f1c:	fbfbfbfb 	blx	cff22f12 <_start-0xfd0fe>
d0023f20:	fbfbfbfb 	blx	cff22f16 <_start-0xfd0fa>
d0023f24:	fbfbfbfb 	blx	cff22f1a <_start-0xfd0f6>
d0023f28:	fbbbfbfb 	blx	cef22f1e <_start-0x10fd0f2>
d0023f2c:	00fbfbfb 	ldrshteq	pc, [fp], #187	; 0xbb
	...
d0023f38:	ffff0100 	undefined instruction 0xffff0100
d0023f3c:	ffffffff 	undefined instruction 0xffffffff
d0023f40:	ffffffff 	undefined instruction 0xffffffff
d0023f44:	ffffffff 	undefined instruction 0xffffffff
d0023f48:	ffffffff 	undefined instruction 0xffffffff
d0023f4c:	ffffffff 	undefined instruction 0xffffffff
d0023f50:	ffffffff 	undefined instruction 0xffffffff
d0023f54:	ffffffff 	undefined instruction 0xffffffff
d0023f58:	ffffffff 	undefined instruction 0xffffffff
d0023f5c:	f7ffffff 	undefined instruction 0xf7ffffff
d0023f60:	ff575df5 	undefined instruction 0xff575df5
d0023f64:	ffffffff 	undefined instruction 0xffffffff
d0023f68:	ffffffff 	undefined instruction 0xffffffff
d0023f6c:	ffffffff 	undefined instruction 0xffffffff
d0023f70:	ffffffff 	undefined instruction 0xffffffff
d0023f74:	ffffffff 	undefined instruction 0xffffffff
d0023f78:	0000ffff 	strdeq	pc, [r0], -pc
	...
d0023f84:	eeaeaa02 	vfma.f32	s20, s28, s4
d0023f88:	eeeeeeee 	cdp	14, 14, cr14, cr14, cr14, {7}
d0023f8c:	eeeeeeee 	cdp	14, 14, cr14, cr14, cr14, {7}
d0023f90:	eeeeeeee 	cdp	14, 14, cr14, cr14, cr14, {7}
d0023f94:	eeeeeeee 	cdp	14, 14, cr14, cr14, cr14, {7}
d0023f98:	efefeeef 	svc	0x00efeeef
d0023f9c:	eeeeeeef 	cdp	14, 14, cr14, cr14, cr15, {7}
d0023fa0:	aeaeaeae 	cdpge	14, 10, cr10, cr14, cr14, {5}
d0023fa4:	aaaaaeae 	bge	ceacfa64 <_start-0x15505ac>
d0023fa8:	aaaaaaaa 	bge	ceacea58 <_start-0x15515b8>
d0023fac:	eeeeaaaa 	vfma.f32	s21, s29, s21
d0023fb0:	eeeeeeee 	cdp	14, 14, cr14, cr14, cr14, {7}
d0023fb4:	eeeeeeee 	cdp	14, 14, cr14, cr14, cr14, {7}
d0023fb8:	eeeeeeee 	cdp	14, 14, cr14, cr14, cr14, {7}
d0023fbc:	eeeeeeee 	cdp	14, 14, cr14, cr14, cr14, {7}
d0023fc0:	eeeeeeee 	cdp	14, 14, cr14, cr14, cr14, {7}
d0023fc4:	000000ee 	andeq	r0, r0, lr, ror #1
	...
d0023fd0:	ffffffff 	undefined instruction 0xffffffff
d0023fd4:	ffffffff 	undefined instruction 0xffffffff
d0023fd8:	ffffffff 	undefined instruction 0xffffffff
d0023fdc:	ffffffff 	undefined instruction 0xffffffff
d0023fe0:	ffffffff 	undefined instruction 0xffffffff
d0023fe4:	ffffffff 	undefined instruction 0xffffffff
d0023fe8:	ffffffff 	undefined instruction 0xffffffff
d0023fec:	ffffffff 	undefined instruction 0xffffffff
d0023ff0:	ffffffff 	undefined instruction 0xffffffff
d0023ff4:	c4ddfdff 	ldrbgt	pc, [sp], #3583	; 0xdff
d0023ff8:	ffffff45 	undefined instruction 0xffffff45
d0023ffc:	ffffffff 	undefined instruction 0xffffffff
d0024000:	ffffffff 	undefined instruction 0xffffffff
d0024004:	ffffffff 	undefined instruction 0xffffffff
d0024008:	ffffffff 	undefined instruction 0xffffffff
d002400c:	ffffffff 	undefined instruction 0xffffffff
	...
d0024018:	bb8a0000 	bllt	ce2a4020 <_start-0x1d7bff0>
d002401c:	ffbfbbbb 	undefined instruction 0xffbfbbbb
d0024020:	ffffffff 	undefined instruction 0xffffffff
d0024024:	ffffffff 	undefined instruction 0xffffffff
d0024028:	ffffffff 	undefined instruction 0xffffffff
d002402c:	ffffffff 	undefined instruction 0xffffffff
d0024030:	bfffffff 	svclt	0x00ffffff
d0024034:	bbbbbbbb 	bllt	cef12f28 <_start-0x110d0e8>
d0024038:	bbbbbbbb 	bllt	cef12f2c <_start-0x110d0e4>
d002403c:	babababb 	blt	ceed2b30 <_start-0x114d4e0>
d0024040:	aaaaaaaa 	bge	ceaceaf0 <_start-0x1551520>
d0024044:	bfbfbbbb 	svclt	0x00bfbbbb
d0024048:	bfbfbbbf 	svclt	0x00bfbbbf
d002404c:	bbbfbbbf 	bllt	cf012f50 <_start-0x100d0c0>
d0024050:	bbbfbbbf 	bllt	cf012f54 <_start-0x100d0bc>
d0024054:	bbbbbbbb 	bllt	cef12f48 <_start-0x110d0c8>
d0024058:	00bbbbbb 	ldrhteq	fp, [fp], fp
	...
d0024064:	ff7f0100 	undefined instruction 0xff7f0100
d0024068:	ffffffff 	undefined instruction 0xffffffff
d002406c:	ffffffff 	undefined instruction 0xffffffff
d0024070:	ffffffff 	undefined instruction 0xffffffff
d0024074:	ffffffff 	undefined instruction 0xffffffff
d0024078:	ffffffff 	undefined instruction 0xffffffff
d002407c:	ffffffff 	undefined instruction 0xffffffff
d0024080:	ffffffff 	undefined instruction 0xffffffff
d0024084:	ffffffff 	undefined instruction 0xffffffff
d0024088:	ffffffff 	undefined instruction 0xffffffff
d002408c:	7f5575ff 	svcvc	0x005575ff
d0024090:	ffffffff 	undefined instruction 0xffffffff
d0024094:	ffffffff 	undefined instruction 0xffffffff
d0024098:	ffffffff 	undefined instruction 0xffffffff
d002409c:	ffffffff 	undefined instruction 0xffffffff
d00240a0:	ffffffff 	undefined instruction 0xffffffff
d00240a4:	0000ffff 	strdeq	pc, [r0], -pc
	...
d00240b0:	eeaeaa02 	vfma.f32	s20, s28, s4
d00240b4:	eeeeeeee 	cdp	14, 14, cr14, cr14, cr14, {7}
d00240b8:	eeeeeeee 	cdp	14, 14, cr14, cr14, cr14, {7}
d00240bc:	eeeeeeee 	cdp	14, 14, cr14, cr14, cr14, {7}
d00240c0:	eeeeeeee 	cdp	14, 14, cr14, cr14, cr14, {7}
d00240c4:	eeeeeeee 	cdp	14, 14, cr14, cr14, cr14, {7}
d00240c8:	eaeeeeee 	b	cfbdfc88 <_start-0x440388>
d00240cc:	aaeaaaea 	bge	cfacec7c <_start-0x551394>
d00240d0:	aaeaaaaa 	bge	cfaceb80 <_start-0x551490>
d00240d4:	aaaaaaaa 	bge	ceaceb84 <_start-0x155148c>
d00240d8:	eeaaaaaa 	vfma.f32	s20, s21, s21
d00240dc:	eeeeeeee 	cdp	14, 14, cr14, cr14, cr14, {7}
d00240e0:	eeeeeeee 	cdp	14, 14, cr14, cr14, cr14, {7}
d00240e4:	eeeeeeee 	cdp	14, 14, cr14, cr14, cr14, {7}
d00240e8:	eeeeeeee 	cdp	14, 14, cr14, cr14, cr14, {7}
d00240ec:	eeeeeeee 	cdp	14, 14, cr14, cr14, cr14, {7}
d00240f0:	000000ee 	andeq	r0, r0, lr, ror #1
	...
d00240fc:	ffffff7f 	undefined instruction 0xffffff7f
d0024100:	ffffffff 	undefined instruction 0xffffffff
d0024104:	ffffffff 	undefined instruction 0xffffffff
d0024108:	ffffffff 	undefined instruction 0xffffffff
d002410c:	ffffffff 	undefined instruction 0xffffffff
d0024110:	ffffffff 	undefined instruction 0xffffffff
d0024114:	ffffffff 	undefined instruction 0xffffffff
d0024118:	ffffffff 	undefined instruction 0xffffffff
d002411c:	ffffffff 	undefined instruction 0xffffffff
d0024120:	ffffffff 	undefined instruction 0xffffffff
d0024124:	ffffdfdd 	undefined instruction 0xffffdfdd
d0024128:	ffffffff 	undefined instruction 0xffffffff
d002412c:	ffffffff 	undefined instruction 0xffffffff
d0024130:	ffffffff 	undefined instruction 0xffffffff
d0024134:	ffffffff 	undefined instruction 0xffffffff
d0024138:	ffffffff 	undefined instruction 0xffffffff
	...
d0024144:	ab880080 	blge	ce22434c <_start-0x1dfbcc4>
d0024148:	fbbbbbbb 	blx	cef1303e <_start-0x110cfd2>
d002414c:	fffffbfb 	undefined instruction 0xfffffbfb
d0024150:	ffffffff 	undefined instruction 0xffffffff
d0024154:	fbffffff 	blx	d002415a <gImage_pic+0x178e>
d0024158:	fffffbff 	undefined instruction 0xfffffbff
d002415c:	fbffffff 	blx	d0024162 <gImage_pic+0x1796>
d0024160:	bbbbbbbb 	bllt	cef13054 <_start-0x110cfbc>
d0024164:	bbbbbbbb 	bllt	cef13058 <_start-0x110cfb8>
d0024168:	abbbbbbb 	blge	cef1305c <_start-0x110cfb4>
d002416c:	aaaaabaa 	bge	ceacf01c <_start-0x1550ff4>
d0024170:	fbfbbbab 	blx	cff13026 <_start-0x10cfea>
d0024174:	fbfbfbfb 	blx	cff2316a <_start-0xfcea6>
d0024178:	fbfbfbfb 	blx	cff2316e <_start-0xfcea2>
d002417c:	fbfbbbfb 	blx	cff13172 <_start-0x10ce9e>
d0024180:	bbbbbbfb 	bllt	cef13174 <_start-0x110ce9c>
d0024184:	00fbfbbb 	ldrhteq	pc, [fp], #187	; 0xbb
	...
d0024190:	ff7f0000 	undefined instruction 0xff7f0000
d0024194:	ffffffff 	undefined instruction 0xffffffff
d0024198:	ffffffff 	undefined instruction 0xffffffff
d002419c:	ffffffff 	undefined instruction 0xffffffff
d00241a0:	ffffffff 	undefined instruction 0xffffffff
d00241a4:	ffffffff 	undefined instruction 0xffffffff
d00241a8:	ffffffff 	undefined instruction 0xffffffff
d00241ac:	ffffffff 	undefined instruction 0xffffffff
d00241b0:	ffffffff 	undefined instruction 0xffffffff
d00241b4:	ffffffff 	undefined instruction 0xffffffff
d00241b8:	f7ffffff 	undefined instruction 0xf7ffffff
d00241bc:	ffffffff 	undefined instruction 0xffffffff
d00241c0:	ffffffff 	undefined instruction 0xffffffff
d00241c4:	ffffffff 	undefined instruction 0xffffffff
d00241c8:	ffffffff 	undefined instruction 0xffffffff
d00241cc:	ffffffff 	undefined instruction 0xffffffff
d00241d0:	0000ffff 	strdeq	pc, [r0], -pc
	...
d00241dc:	aeaeaa02 	vfmage.f32	s20, s28, s4
d00241e0:	eeeeeeee 	cdp	14, 14, cr14, cr14, cr14, {7}
d00241e4:	eeeeeeee 	cdp	14, 14, cr14, cr14, cr14, {7}
d00241e8:	eeeeeeee 	cdp	14, 14, cr14, cr14, cr14, {7}
d00241ec:	eeeeeeee 	cdp	14, 14, cr14, cr14, cr14, {7}
d00241f0:	eeeeeeef 	cdp	14, 14, cr14, cr14, cr15, {7}
d00241f4:	aeeeeeee 	cdpge	14, 14, cr14, cr14, cr14, {7}
d00241f8:	aeaeaeee 	cdpge	14, 10, cr10, cr14, cr14, {7}
d00241fc:	aeaeaeae 	cdpge	14, 10, cr10, cr14, cr14, {5}
d0024200:	aeaaaeaa 	cdpge	14, 10, cr10, cr10, cr10, {5}
d0024204:	aeaaaaaa 	vfmage.f32	s20, s21, s21
d0024208:	eeeeeeee 	cdp	14, 14, cr14, cr14, cr14, {7}
d002420c:	eeeeeeee 	cdp	14, 14, cr14, cr14, cr14, {7}
d0024210:	eeeeeeee 	cdp	14, 14, cr14, cr14, cr14, {7}
d0024214:	eeeeeeee 	cdp	14, 14, cr14, cr14, cr14, {7}
d0024218:	eeeeeeee 	cdp	14, 14, cr14, cr14, cr14, {7}
d002421c:	000000ee 	andeq	r0, r0, lr, ror #1
	...
d0024228:	ffffff7f 	undefined instruction 0xffffff7f
d002422c:	ffffffff 	undefined instruction 0xffffffff
d0024230:	ffffffff 	undefined instruction 0xffffffff
d0024234:	ffffffff 	undefined instruction 0xffffffff
d0024238:	ffffffff 	undefined instruction 0xffffffff
d002423c:	ffffffff 	undefined instruction 0xffffffff
d0024240:	ffffffff 	undefined instruction 0xffffffff
d0024244:	ffffffff 	undefined instruction 0xffffffff
d0024248:	ffffffff 	undefined instruction 0xffffffff
d002424c:	ffffffff 	undefined instruction 0xffffffff
d0024250:	ffffffdf 	undefined instruction 0xffffffdf
d0024254:	ffffffff 	undefined instruction 0xffffffff
d0024258:	ffffffff 	undefined instruction 0xffffffff
d002425c:	ffffffff 	undefined instruction 0xffffffff
d0024260:	ffffffff 	undefined instruction 0xffffffff
d0024264:	ffffffff 	undefined instruction 0xffffffff
	...
d0024270:	ba0a0000 	blt	d02a4278 <bss_end+0x26eca8>
d0024274:	bfbbbfbb 	svclt	0x00bbbfbb
d0024278:	ffffbfff 	undefined instruction 0xffffbfff
d002427c:	ffffffff 	undefined instruction 0xffffffff
d0024280:	ffffffff 	undefined instruction 0xffffffff
d0024284:	ffffbfbb 	undefined instruction 0xffffbfbb
d0024288:	bbffbfff 	bllt	d001428c <_start-0xbd84>
d002428c:	bbbbbbbb 	bllt	cef13180 <_start-0x110ce90>
d0024290:	bbbbbbbb 	bllt	cef13184 <_start-0x110ce8c>
d0024294:	bbbbbbbb 	bllt	cef13188 <_start-0x110ce88>
d0024298:	aaaabbbb 	bge	cead318c <_start-0x154ce84>
d002429c:	bbbbbfaa 	bllt	cef1414c <_start-0x110bec4>
d00242a0:	bfbbbfbf 	svclt	0x00bbbfbf
d00242a4:	bfbbbfbb 	svclt	0x00bbbfbb
d00242a8:	bbbbbfbb 	bllt	cef1419c <_start-0x110be74>
d00242ac:	bbbbbbbb 	bllt	cef131a0 <_start-0x110ce70>
d00242b0:	00fbbbbb 	ldrhteq	fp, [fp], #187	; 0xbb
	...
d00242bc:	ff7f0100 	undefined instruction 0xff7f0100
d00242c0:	ffffffff 	undefined instruction 0xffffffff
d00242c4:	ffffffff 	undefined instruction 0xffffffff
d00242c8:	ffffffff 	undefined instruction 0xffffffff
d00242cc:	ffffffff 	undefined instruction 0xffffffff
d00242d0:	ffffffff 	undefined instruction 0xffffffff
d00242d4:	ffffffff 	undefined instruction 0xffffffff
d00242d8:	ffffffff 	undefined instruction 0xffffffff
d00242dc:	ffffffff 	undefined instruction 0xffffffff
d00242e0:	ffffffff 	undefined instruction 0xffffffff
d00242e4:	ffffffff 	undefined instruction 0xffffffff
d00242e8:	ffffffff 	undefined instruction 0xffffffff
d00242ec:	ffffffff 	undefined instruction 0xffffffff
d00242f0:	ffffffff 	undefined instruction 0xffffffff
d00242f4:	ffffffff 	undefined instruction 0xffffffff
d00242f8:	ffffffff 	undefined instruction 0xffffffff
d00242fc:	0000ffff 	strdeq	pc, [r0], -pc
	...
d0024308:	eeaeaa02 	vfma.f32	s20, s28, s4
d002430c:	eeeeeeee 	cdp	14, 14, cr14, cr14, cr14, {7}
d0024310:	eeeeeeee 	cdp	14, 14, cr14, cr14, cr14, {7}
d0024314:	eeeeeeee 	cdp	14, 14, cr14, cr14, cr14, {7}
d0024318:	eeeeeeee 	cdp	14, 14, cr14, cr14, cr14, {7}
d002431c:	eeeeeeee 	cdp	14, 14, cr14, cr14, cr14, {7}
d0024320:	eaeaeeee 	b	cfadfee0 <_start-0x540130>
d0024324:	aaeaeaaa 	bge	cfadedd4 <_start-0x54123c>
d0024328:	aaaaaaaa 	bge	ceacedd8 <_start-0x1551238>
d002432c:	aaaaaaaa 	bge	ceaceddc <_start-0x1551234>
d0024330:	aaaaaaea 	bge	ceaceee0 <_start-0x1551130>
d0024334:	eeeeeeee 	cdp	14, 14, cr14, cr14, cr14, {7}
d0024338:	eeeeeeee 	cdp	14, 14, cr14, cr14, cr14, {7}
d002433c:	eeeeeeee 	cdp	14, 14, cr14, cr14, cr14, {7}
d0024340:	eeeaeeee 	cdp	14, 14, cr14, cr10, cr14, {7}
d0024344:	eeeaeaea 	vfms.f32	s29, s21, s21
d0024348:	000000fe 	strdeq	r0, [r0], -lr
	...
d0024354:	ffffdf1f 	undefined instruction 0xffffdf1f
d0024358:	ffffffff 	undefined instruction 0xffffffff
d002435c:	ffffffff 	undefined instruction 0xffffffff
d0024360:	ffffffff 	undefined instruction 0xffffffff
d0024364:	ffffffff 	undefined instruction 0xffffffff
d0024368:	ffffffff 	undefined instruction 0xffffffff
d002436c:	ffffffff 	undefined instruction 0xffffffff
d0024370:	ffffffff 	undefined instruction 0xffffffff
d0024374:	ffffffff 	undefined instruction 0xffffffff
d0024378:	ffffffff 	undefined instruction 0xffffffff
d002437c:	ffffc7ff 	undefined instruction 0xffffc7ff
d0024380:	ffffffff 	undefined instruction 0xffffffff
d0024384:	ffffffff 	undefined instruction 0xffffffff
d0024388:	ffffffff 	undefined instruction 0xffffffff
d002438c:	ffffffff 	undefined instruction 0xffffffff
d0024390:	ffffffff 	undefined instruction 0xffffffff
d0024394:	00000000 	andeq	r0, r0, r0
d0024398:	80000000 	andhi	r0, r0, r0
d002439c:	bb028000 	bllt	d00c43a4 <bss_end+0x8edd4>
d00243a0:	fbfbbbab 	blx	cff13256 <_start-0x10cdba>
d00243a4:	fffbfbfb 	undefined instruction 0xfffbfbfb
d00243a8:	fffbffff 	undefined instruction 0xfffbffff
d00243ac:	fbfbffff 	blx	cff243b2 <_start-0xfbc5e>
d00243b0:	fbfffbfb 	blx	d00233a6 <gImage_pic+0x9da>
d00243b4:	bbfbfbfb 	bllt	cff233a8 <_start-0xfcc68>
d00243b8:	bbbbbbbb 	bllt	cef132ac <_start-0x110cd64>
d00243bc:	bbbbbbbb 	bllt	cef132b0 <_start-0x110cd60>
d00243c0:	bbbbbbbb 	bllt	cef132b4 <_start-0x110cd5c>
d00243c4:	bbbbbbbb 	bllt	cef132b8 <_start-0x110cd58>
d00243c8:	fbfbbbaa 	blx	cff1327a <_start-0x10cd96>
d00243cc:	fbfbfbfb 	blx	cff233c2 <_start-0xfcc4e>
d00243d0:	fbfbfbfb 	blx	cff233c6 <_start-0xfcc4a>
d00243d4:	bbbbfbfb 	bllt	cef233c8 <_start-0x10fcc48>
d00243d8:	bbbbbbbb 	bllt	cef132cc <_start-0x110cd44>
d00243dc:	00ffbbbb 	ldrhteq	fp, [pc, #187]	; d002449f <gImage_pic+0x1ad3>
	...
d00243e8:	ff7f0100 	undefined instruction 0xff7f0100
d00243ec:	ffffffff 	undefined instruction 0xffffffff
d00243f0:	ffffffff 	undefined instruction 0xffffffff
d00243f4:	ffffffff 	undefined instruction 0xffffffff
d00243f8:	ffffffff 	undefined instruction 0xffffffff
d00243fc:	ffffffff 	undefined instruction 0xffffffff
d0024400:	ffffffff 	undefined instruction 0xffffffff
d0024404:	ffffffff 	undefined instruction 0xffffffff
d0024408:	ffffffff 	undefined instruction 0xffffffff
d002440c:	ffffffff 	undefined instruction 0xffffffff
d0024410:	ffffffff 	undefined instruction 0xffffffff
d0024414:	ffffffff 	undefined instruction 0xffffffff
d0024418:	ffffffff 	undefined instruction 0xffffffff
d002441c:	ffffffff 	undefined instruction 0xffffffff
d0024420:	ffffffff 	undefined instruction 0xffffffff
d0024424:	ffffffff 	undefined instruction 0xffffffff
d0024428:	0000ffff 	strdeq	pc, [r0], -pc
	...
d0024434:	eeaeaa02 	vfma.f32	s20, s28, s4
d0024438:	eeeeeeee 	cdp	14, 14, cr14, cr14, cr14, {7}
d002443c:	eeeeeeee 	cdp	14, 14, cr14, cr14, cr14, {7}
d0024440:	eeeeeeee 	cdp	14, 14, cr14, cr14, cr14, {7}
d0024444:	eeeeeeee 	cdp	14, 14, cr14, cr14, cr14, {7}
d0024448:	eeeeeeee 	cdp	14, 14, cr14, cr14, cr14, {7}
d002444c:	aeaeeeee 	cdpge	14, 10, cr14, cr14, cr14, {7}
d0024450:	aeaeaeae 	cdpge	14, 10, cr10, cr14, cr14, {5}
d0024454:	aeaaaeae 	cdpge	14, 10, cr10, cr10, cr14, {5}
d0024458:	aeaaaeae 	cdpge	14, 10, cr10, cr10, cr14, {5}
d002445c:	aeeeeeae 	cdpge	14, 14, cr14, cr14, cr14, {5}
d0024460:	eeeeeeee 	cdp	14, 14, cr14, cr14, cr14, {7}
d0024464:	eeeeeeee 	cdp	14, 14, cr14, cr14, cr14, {7}
d0024468:	eeeeeeee 	cdp	14, 14, cr14, cr14, cr14, {7}
d002446c:	eeeeeeee 	cdp	14, 14, cr14, cr14, cr14, {7}
d0024470:	eeaeeeee 	cdp	14, 10, cr14, cr14, cr14, {7}
d0024474:	000000ee 	andeq	r0, r0, lr, ror #1
	...
d0024480:	ffffff5f 	undefined instruction 0xffffff5f
d0024484:	ffffffff 	undefined instruction 0xffffffff
d0024488:	ffffffff 	undefined instruction 0xffffffff
d002448c:	ffffffff 	undefined instruction 0xffffffff
d0024490:	ffffffff 	undefined instruction 0xffffffff
d0024494:	ffffffff 	undefined instruction 0xffffffff
d0024498:	ffffffff 	undefined instruction 0xffffffff
d002449c:	ffffffff 	undefined instruction 0xffffffff
d00244a0:	ffffffff 	undefined instruction 0xffffffff
d00244a4:	ffffffff 	undefined instruction 0xffffffff
d00244a8:	ffffffff 	undefined instruction 0xffffffff
d00244ac:	ffffffff 	undefined instruction 0xffffffff
d00244b0:	ffffffff 	undefined instruction 0xffffffff
d00244b4:	ffffffff 	undefined instruction 0xffffffff
d00244b8:	ffffffff 	undefined instruction 0xffffffff
d00244bc:	ffffffff 	undefined instruction 0xffffffff
	...
d00244c8:	ab000000 	blge	d00244d0 <gImage_pic+0x1b04>
d00244cc:	bbbfbbbb 	bllt	cf0133c0 <_start-0x100cc50>
d00244d0:	ffffbfbf 	undefined instruction 0xffffbfbf
d00244d4:	ffffffff 	undefined instruction 0xffffffff
d00244d8:	bbbbffff 	bllt	cef244dc <_start-0x10fbb34>
d00244dc:	bbffbbbb 	bllt	d00133d0 <_start-0xcc40>
d00244e0:	bbbbbbbb 	bllt	cef133d4 <_start-0x110cc3c>
d00244e4:	bbbbbbbb 	bllt	cef133d8 <_start-0x110cc38>
d00244e8:	bbbbbbbb 	bllt	cef133dc <_start-0x110cc34>
d00244ec:	bbbbbbbb 	bllt	cef133e0 <_start-0x110cc30>
d00244f0:	bbbbbbbb 	bllt	cef133e4 <_start-0x110cc2c>
d00244f4:	bbbbabbb 	bllt	cef0f3e8 <_start-0x1110c28>
d00244f8:	bbbfbbbf 	bllt	cf0133fc <_start-0x100cc14>
d00244fc:	bbbbbbbb 	bllt	cef133f0 <_start-0x110cc20>
d0024500:	bbbbbbbb 	bllt	cef133f4 <_start-0x110cc1c>
d0024504:	bbbbbbbb 	bllt	cef133f8 <_start-0x110cc18>
d0024508:	00bbbbbb 	ldrhteq	fp, [fp], fp
	...
d0024514:	ff5f0000 	undefined instruction 0xff5f0000
d0024518:	ffffffff 	undefined instruction 0xffffffff
d002451c:	ffffffff 	undefined instruction 0xffffffff
d0024520:	ffffffff 	undefined instruction 0xffffffff
d0024524:	ffffffff 	undefined instruction 0xffffffff
d0024528:	ffffffff 	undefined instruction 0xffffffff
d002452c:	ffffffff 	undefined instruction 0xffffffff
d0024530:	ffffffff 	undefined instruction 0xffffffff
d0024534:	ffffffff 	undefined instruction 0xffffffff
d0024538:	ffffffff 	undefined instruction 0xffffffff
d002453c:	ffffffff 	undefined instruction 0xffffffff
d0024540:	ffffffff 	undefined instruction 0xffffffff
d0024544:	ffffffff 	undefined instruction 0xffffffff
d0024548:	ffffffff 	undefined instruction 0xffffffff
d002454c:	ffffffff 	undefined instruction 0xffffffff
d0024550:	ffffffff 	undefined instruction 0xffffffff
d0024554:	0000ffff 	strdeq	pc, [r0], -pc
	...
d0024560:	aeaaaa00 	vfmage.f32	s20, s20, s0
d0024564:	eeeeeeee 	cdp	14, 14, cr14, cr14, cr14, {7}
d0024568:	eeeeeeee 	cdp	14, 14, cr14, cr14, cr14, {7}
d002456c:	eeeeeeee 	cdp	14, 14, cr14, cr14, cr14, {7}
d0024570:	eeeaeaee 	vfms.f32	s29, s21, s29
d0024574:	eaeeeefe 	b	cfbe0174 <_start-0x43fe9c>
d0024578:	eaaaeaea 	b	ceadf128 <_start-0x1540ee8>
d002457c:	aaeaaaea 	bge	cfacf12c <_start-0x550ee4>
d0024580:	aaaaeaaa 	bge	ceadf030 <_start-0x1540fe0>
d0024584:	aaeaaaaa 	bge	cfacf034 <_start-0x550fdc>
d0024588:	eaeeeaee 	b	cfbdf148 <_start-0x440ec8>
d002458c:	eeeeeeee 	cdp	14, 14, cr14, cr14, cr14, {7}
d0024590:	eeeeeeee 	cdp	14, 14, cr14, cr14, cr14, {7}
d0024594:	eeeeeeee 	cdp	14, 14, cr14, cr14, cr14, {7}
d0024598:	eaeeeeee 	b	cfbe0158 <_start-0x43feb8>
d002459c:	eaeeeaea 	b	cfbdf14c <_start-0x440ec4>
d00245a0:	000000aa 	andeq	r0, r0, sl, lsr #1
	...
d00245ac:	ffffff5d 	undefined instruction 0xffffff5d
d00245b0:	ffffffff 	undefined instruction 0xffffffff
d00245b4:	ffffffff 	undefined instruction 0xffffffff
d00245b8:	ffffffff 	undefined instruction 0xffffffff
d00245bc:	ffffffff 	undefined instruction 0xffffffff
d00245c0:	ffffffff 	undefined instruction 0xffffffff
d00245c4:	ffffffff 	undefined instruction 0xffffffff
d00245c8:	ffffffff 	undefined instruction 0xffffffff
d00245cc:	ffffffff 	undefined instruction 0xffffffff
d00245d0:	ffffffff 	undefined instruction 0xffffffff
d00245d4:	ffffffff 	undefined instruction 0xffffffff
d00245d8:	ffffffff 	undefined instruction 0xffffffff
d00245dc:	ffffffff 	undefined instruction 0xffffffff
d00245e0:	ffffffff 	undefined instruction 0xffffffff
d00245e4:	ffffffff 	undefined instruction 0xffffffff
d00245e8:	ffffffff 	undefined instruction 0xffffffff
d00245ec:	00800000 	addeq	r0, r0, r0
d00245f0:	00000000 	andeq	r0, r0, r0
d00245f4:	aa800000 	bge	ce0245fc <_start-0x1ffba14>
d00245f8:	fbfbbbab 	blx	cff134ae <_start-0x10cb62>
d00245fc:	fbfffbfb 	blx	d00235f2 <gImage_pic+0xc26>
d0024600:	fffffbff 	undefined instruction 0xfffffbff
d0024604:	bbbbfbfb 	bllt	cef235f8 <_start-0x10fca18>
d0024608:	fbfbbbbb 	blx	cff134fe <_start-0x10cb12>
d002460c:	bbbbbbbb 	bllt	cef13500 <_start-0x110cb10>
d0024610:	bbbbbbbb 	bllt	cef13504 <_start-0x110cb0c>
d0024614:	bbbbbbbb 	bllt	cef13508 <_start-0x110cb08>
d0024618:	bbbbbbbb 	bllt	cef1350c <_start-0x110cb04>
d002461c:	bbbbbbbb 	bllt	cef13510 <_start-0x110cb00>
d0024620:	bbbbbbbb 	bllt	cef13514 <_start-0x110cafc>
d0024624:	fbfbfbfb 	blx	cff2361a <_start-0xfc9f6>
d0024628:	fbfbfbfb 	blx	cff2361e <_start-0xfc9f2>
d002462c:	bbfbbbbb 	bllt	cff13520 <_start-0x10caf0>
d0024630:	bbbbbbbb 	bllt	cef13524 <_start-0x110caec>
d0024634:	00bbbbbb 	ldrhteq	fp, [fp], fp
	...
d0024640:	f71f0000 	undefined instruction 0xf71f0000
d0024644:	ffffffff 	undefined instruction 0xffffffff
d0024648:	ffffffff 	undefined instruction 0xffffffff
d002464c:	ffffffff 	undefined instruction 0xffffffff
d0024650:	ffffffff 	undefined instruction 0xffffffff
d0024654:	ffffffff 	undefined instruction 0xffffffff
d0024658:	ffffffff 	undefined instruction 0xffffffff
d002465c:	ffffffff 	undefined instruction 0xffffffff
d0024660:	ffffffff 	undefined instruction 0xffffffff
d0024664:	ffffffff 	undefined instruction 0xffffffff
d0024668:	ffffffff 	undefined instruction 0xffffffff
d002466c:	ffffffff 	undefined instruction 0xffffffff
d0024670:	ffffffff 	undefined instruction 0xffffffff
d0024674:	ffffffff 	undefined instruction 0xffffffff
d0024678:	ffffffff 	undefined instruction 0xffffffff
d002467c:	ffffffff 	undefined instruction 0xffffffff
d0024680:	0000ffff 	strdeq	pc, [r0], -pc
	...
d002468c:	aeaa2a00 	vfmage.f32	s4, s20, s0
d0024690:	eeeeeeee 	cdp	14, 14, cr14, cr14, cr14, {7}
d0024694:	eeeeeeee 	cdp	14, 14, cr14, cr14, cr14, {7}
d0024698:	eeeeeeee 	cdp	14, 14, cr14, cr14, cr14, {7}
d002469c:	efeeaeee 	svc	0x00eeaeee
d00246a0:	eeeeeeee 	cdp	14, 14, cr14, cr14, cr14, {7}
d00246a4:	aeaeaeee 	cdpge	14, 10, cr10, cr14, cr14, {7}
d00246a8:	aeaeaeae 	cdpge	14, 10, cr10, cr14, cr14, {5}
d00246ac:	aeaeaeae 	cdpge	14, 10, cr10, cr14, cr14, {5}
d00246b0:	eeeeaeae 	cdp	14, 14, cr10, cr14, cr14, {5}
d00246b4:	aeeeeeae 	cdpge	14, 14, cr14, cr14, cr14, {5}
d00246b8:	eeeeeeae 	cdp	14, 14, cr14, cr14, cr14, {5}
d00246bc:	eeeeeeee 	cdp	14, 14, cr14, cr14, cr14, {7}
d00246c0:	eeeeeeee 	cdp	14, 14, cr14, cr14, cr14, {7}
d00246c4:	eeeeeeee 	cdp	14, 14, cr14, cr14, cr14, {7}
d00246c8:	aeaeaeee 	cdpge	14, 10, cr10, cr14, cr14, {7}
d00246cc:	000000ae 	andeq	r0, r0, lr, lsr #1
	...
d00246d8:	ffffdf1d 	undefined instruction 0xffffdf1d
d00246dc:	ffffffff 	undefined instruction 0xffffffff
d00246e0:	ffffffff 	undefined instruction 0xffffffff
d00246e4:	ffffffff 	undefined instruction 0xffffffff
d00246e8:	ffffffff 	undefined instruction 0xffffffff
d00246ec:	ffffffff 	undefined instruction 0xffffffff
d00246f0:	ffffffff 	undefined instruction 0xffffffff
d00246f4:	ffffffff 	undefined instruction 0xffffffff
d00246f8:	ffffffff 	undefined instruction 0xffffffff
d00246fc:	ffffffff 	undefined instruction 0xffffffff
d0024700:	ffffffff 	undefined instruction 0xffffffff
d0024704:	ffffffff 	undefined instruction 0xffffffff
d0024708:	ffffffff 	undefined instruction 0xffffffff
d002470c:	ffffffff 	undefined instruction 0xffffffff
d0024710:	ffffffff 	undefined instruction 0xffffffff
d0024714:	ffffffff 	undefined instruction 0xffffffff
	...
d0024720:	2a000000 	bcs	d0024728 <gImage_pic+0x1d5c>
d0024724:	bbbbbbab 	bllt	cef135d8 <_start-0x110ca38>
d0024728:	ffffbfff 	undefined instruction 0xffffbfff
d002472c:	ffffffff 	undefined instruction 0xffffffff
d0024730:	bbbbbbff 	bllt	cef13734 <_start-0x110c8dc>
d0024734:	bbfbbbbb 	bllt	cff13628 <_start-0x10c9e8>
d0024738:	bbbbbbbb 	bllt	cef1362c <_start-0x110c9e4>
d002473c:	bbbbbbbb 	bllt	cef13630 <_start-0x110c9e0>
d0024740:	bbbbbbbb 	bllt	cef13634 <_start-0x110c9dc>
d0024744:	bbbbbbbb 	bllt	cef13638 <_start-0x110c9d8>
d0024748:	bbbbbbbb 	bllt	cef1363c <_start-0x110c9d4>
d002474c:	bfbbbbbb 	svclt	0x00bbbbbb
d0024750:	bfbbbbbb 	svclt	0x00bbbbbb
d0024754:	bbbbbfbb 	bllt	cef14648 <_start-0x110b9c8>
d0024758:	bbbbbbbb 	bllt	cef1364c <_start-0x110c9c4>
d002475c:	bbbbbbbb 	bllt	cef13650 <_start-0x110c9c0>
d0024760:	00babbbb 	ldrhteq	fp, [sl], fp
	...
d002476c:	7f150000 	svcvc	0x00150000
d0024770:	ffffffff 	undefined instruction 0xffffffff
d0024774:	ffffffff 	undefined instruction 0xffffffff
d0024778:	ffffffff 	undefined instruction 0xffffffff
d002477c:	ffffffff 	undefined instruction 0xffffffff
d0024780:	ffffffff 	undefined instruction 0xffffffff
d0024784:	ffffffff 	undefined instruction 0xffffffff
d0024788:	ffffffff 	undefined instruction 0xffffffff
d002478c:	ffffffff 	undefined instruction 0xffffffff
d0024790:	ffffffff 	undefined instruction 0xffffffff
d0024794:	ffffffff 	undefined instruction 0xffffffff
d0024798:	ffffffff 	undefined instruction 0xffffffff
d002479c:	ffffffff 	undefined instruction 0xffffffff
d00247a0:	ffffffff 	undefined instruction 0xffffffff
d00247a4:	ffffffff 	undefined instruction 0xffffffff
d00247a8:	ffffffff 	undefined instruction 0xffffffff
d00247ac:	0000ffff 	strdeq	pc, [r0], -pc
	...
d00247b8:	aaaa2a00 	bge	ceaaefc0 <_start-0x1571050>
d00247bc:	eeeeeeee 	cdp	14, 14, cr14, cr14, cr14, {7}
d00247c0:	eeeeeeee 	cdp	14, 14, cr14, cr14, cr14, {7}
d00247c4:	eaeeeeee 	b	cfbe0384 <_start-0x43fc8c>
d00247c8:	eeeaeaea 	vfms.f32	s29, s21, s21
d00247cc:	eeeaeeee 	cdp	14, 14, cr14, cr10, cr14, {7}
d00247d0:	eaeaeaea 	b	cfadf380 <_start-0x540c90>
d00247d4:	eaeaeaaa 	b	cfadf284 <_start-0x540d8c>
d00247d8:	eaaaeaaa 	b	ceadf288 <_start-0x1540d88>
d00247dc:	eeeaeaea 	vfms.f32	s29, s21, s21
d00247e0:	eeeaeeea 	cdp	14, 14, cr14, cr10, cr10, {7}
d00247e4:	eeeeeeea 	cdp	14, 14, cr14, cr14, cr10, {7}
d00247e8:	eeeeeeee 	cdp	14, 14, cr14, cr14, cr14, {7}
d00247ec:	eeeeeeee 	cdp	14, 14, cr14, cr14, cr14, {7}
d00247f0:	eeeeeeee 	cdp	14, 14, cr14, cr14, cr14, {7}
d00247f4:	eaaaeaea 	b	ceadf3a4 <_start-0x1540c6c>
d00247f8:	000000aa 	andeq	r0, r0, sl, lsr #1
	...
d0024804:	ffffdf05 	undefined instruction 0xffffdf05
d0024808:	ffffffff 	undefined instruction 0xffffffff
d002480c:	ffffffff 	undefined instruction 0xffffffff
d0024810:	ffffffff 	undefined instruction 0xffffffff
d0024814:	ffffffff 	undefined instruction 0xffffffff
d0024818:	ffffffff 	undefined instruction 0xffffffff
d002481c:	ffffffff 	undefined instruction 0xffffffff
d0024820:	ffffffff 	undefined instruction 0xffffffff
d0024824:	ffffffff 	undefined instruction 0xffffffff
d0024828:	ffffffff 	undefined instruction 0xffffffff
d002482c:	ffffffff 	undefined instruction 0xffffffff
d0024830:	ffffffff 	undefined instruction 0xffffffff
d0024834:	ffffffff 	undefined instruction 0xffffffff
d0024838:	ffffffff 	undefined instruction 0xffffffff
d002483c:	ffffffff 	undefined instruction 0xffffffff
d0024840:	ffffffff 	undefined instruction 0xffffffff
d0024844:	00008000 	andeq	r8, r0, r0
d0024848:	80008000 	andhi	r8, r0, r0
d002484c:	8a000000 	bhi	d0024854 <gImage_pic+0x1e88>
d0024850:	fbfbbbab 	blx	cff13706 <_start-0x10c90a>
d0024854:	fbfbfbfb 	blx	cff2384a <_start-0xfc7c6>
d0024858:	fffbfbfb 	undefined instruction 0xfffbfbfb
d002485c:	bbbbbbfb 	bllt	cef13850 <_start-0x110c7c0>
d0024860:	bbfbbbbb 	bllt	cff13754 <_start-0x10c8bc>
d0024864:	bbbbbbbb 	bllt	cef13758 <_start-0x110c8b8>
d0024868:	bbbbbbbb 	bllt	cef1375c <_start-0x110c8b4>
d002486c:	bbbbbbbb 	bllt	cef13760 <_start-0x110c8b0>
d0024870:	bbbbbbbb 	bllt	cef13764 <_start-0x110c8ac>
d0024874:	bbbbbbbb 	bllt	cef13768 <_start-0x110c8a8>
d0024878:	fbbbbbbb 	blx	cef1376e <_start-0x110c8a2>
d002487c:	fbfbfbfb 	blx	cff23872 <_start-0xfc79e>
d0024880:	fbfbfbfb 	blx	cff23876 <_start-0xfc79a>
d0024884:	fbfbfbfb 	blx	cff2387a <_start-0xfc796>
d0024888:	bbbbbbbb 	bllt	cef1377c <_start-0x110c894>
d002488c:	00abbbbb 	strheq	fp, [fp], fp
	...
d0024898:	77050000 	strvc	r0, [r5, -r0]
d002489c:	ffffffff 	undefined instruction 0xffffffff
d00248a0:	ffffffff 	undefined instruction 0xffffffff
d00248a4:	ffffffff 	undefined instruction 0xffffffff
d00248a8:	ffffffff 	undefined instruction 0xffffffff
d00248ac:	ffffffff 	undefined instruction 0xffffffff
d00248b0:	ffffffff 	undefined instruction 0xffffffff
d00248b4:	ffffffff 	undefined instruction 0xffffffff
d00248b8:	ffffffff 	undefined instruction 0xffffffff
d00248bc:	ffffffff 	undefined instruction 0xffffffff
d00248c0:	ffffffff 	undefined instruction 0xffffffff
d00248c4:	ffffffff 	undefined instruction 0xffffffff
d00248c8:	ffffffff 	undefined instruction 0xffffffff
d00248cc:	ffffffff 	undefined instruction 0xffffffff
d00248d0:	ffffffff 	undefined instruction 0xffffffff
d00248d4:	ffffffff 	undefined instruction 0xffffffff
d00248d8:	0000ffff 	strdeq	pc, [r0], -pc
	...
d00248e4:	aaaa0a00 	bge	ceaa70ec <_start-0x1578f24>
d00248e8:	eeeeeeee 	cdp	14, 14, cr14, cr14, cr14, {7}
d00248ec:	eeeeeeee 	cdp	14, 14, cr14, cr14, cr14, {7}
d00248f0:	eeeeeeee 	cdp	14, 14, cr14, cr14, cr14, {7}
d00248f4:	efaeaeee 	svc	0x00aeaeee
d00248f8:	eeeeeeee 	cdp	14, 14, cr14, cr14, cr14, {7}
d00248fc:	aeaeaeae 	cdpge	14, 10, cr10, cr14, cr14, {5}
d0024900:	aeaeaeae 	cdpge	14, 10, cr10, cr14, cr14, {5}
d0024904:	aeaeeeae 	cdpge	14, 10, cr14, cr14, cr14, {5}
d0024908:	eeaeeeae 	cdp	14, 10, cr14, cr14, cr14, {5}
d002490c:	eeeeeeee 	cdp	14, 14, cr14, cr14, cr14, {7}
d0024910:	eeeeeeae 	cdp	14, 14, cr14, cr14, cr14, {5}
d0024914:	eeeeeeee 	cdp	14, 14, cr14, cr14, cr14, {7}
d0024918:	eeeeeeee 	cdp	14, 14, cr14, cr14, cr14, {7}
d002491c:	eeeeeeee 	cdp	14, 14, cr14, cr14, cr14, {7}
d0024920:	aaaeeeee 	bge	cebe04e0 <_start-0x143fb30>
d0024924:	000000aa 	andeq	r0, r0, sl, lsr #1
	...
d0024930:	ffff5f04 	undefined instruction 0xffff5f04
d0024934:	ffffffff 	undefined instruction 0xffffffff
d0024938:	ffffffff 	undefined instruction 0xffffffff
d002493c:	ffffffff 	undefined instruction 0xffffffff
d0024940:	ffffffff 	undefined instruction 0xffffffff
d0024944:	ffffffff 	undefined instruction 0xffffffff
d0024948:	ffffffff 	undefined instruction 0xffffffff
d002494c:	ffffffff 	undefined instruction 0xffffffff
d0024950:	ffffffff 	undefined instruction 0xffffffff
d0024954:	ffffffff 	undefined instruction 0xffffffff
d0024958:	ffffffff 	undefined instruction 0xffffffff
d002495c:	ffffffff 	undefined instruction 0xffffffff
d0024960:	ffffffff 	undefined instruction 0xffffffff
d0024964:	ffffffff 	undefined instruction 0xffffffff
d0024968:	ffffffff 	undefined instruction 0xffffffff
d002496c:	ffffffff 	undefined instruction 0xffffffff
	...
d0024978:	0a000000 	beq	d0024980 <gImage_pic+0x1fb4>
d002497c:	bbbbbaab 	bllt	cef13430 <_start-0x110cbe0>
d0024980:	ffffffbf 	undefined instruction 0xffffffbf
d0024984:	ffffffff 	undefined instruction 0xffffffff
d0024988:	bbbbbbbb 	bllt	cef1387c <_start-0x110c794>
d002498c:	bbfbbfbb 	bllt	cff14880 <_start-0x10b790>
d0024990:	bbbbbbbb 	bllt	cef13884 <_start-0x110c78c>
d0024994:	bbbbbbbb 	bllt	cef13888 <_start-0x110c788>
d0024998:	bbbbbbbb 	bllt	cef1388c <_start-0x110c784>
d002499c:	bbbbbbbb 	bllt	cef13890 <_start-0x110c780>
d00249a0:	bbbbbbbb 	bllt	cef13894 <_start-0x110c77c>
d00249a4:	bbbbbbbb 	bllt	cef13898 <_start-0x110c778>
d00249a8:	bbbfbbbf 	bllt	cf0138ac <_start-0x100c764>
d00249ac:	bbbfffbf 	bllt	cf0248b0 <_start-0xffb760>
d00249b0:	bbbbbbbf 	bllt	cef138b4 <_start-0x110c75c>
d00249b4:	bbbbbbbb 	bllt	cef138a8 <_start-0x110c768>
d00249b8:	00bababb 	ldrhteq	fp, [sl], fp
	...
d00249c4:	1f000000 	svcne	0x00000000
d00249c8:	ffffffff 	undefined instruction 0xffffffff
d00249cc:	ffffffff 	undefined instruction 0xffffffff
d00249d0:	ffffffff 	undefined instruction 0xffffffff
d00249d4:	ffffffff 	undefined instruction 0xffffffff
d00249d8:	ffffffff 	undefined instruction 0xffffffff
d00249dc:	ffffffff 	undefined instruction 0xffffffff
d00249e0:	ffffffff 	undefined instruction 0xffffffff
d00249e4:	ffffffff 	undefined instruction 0xffffffff
d00249e8:	ffffffff 	undefined instruction 0xffffffff
d00249ec:	ffffffff 	undefined instruction 0xffffffff
d00249f0:	ffffffff 	undefined instruction 0xffffffff
d00249f4:	ffffffff 	undefined instruction 0xffffffff
d00249f8:	ffffffff 	undefined instruction 0xffffffff
d00249fc:	ffffffff 	undefined instruction 0xffffffff
d0024a00:	ffffffff 	undefined instruction 0xffffffff
d0024a04:	0000ffff 	strdeq	pc, [r0], -pc
	...
d0024a10:	aa2a0a00 	bge	d0aa7218 <bss_end+0xa71c48>
d0024a14:	eeeeeeee 	cdp	14, 14, cr14, cr14, cr14, {7}
d0024a18:	eeeeeeee 	cdp	14, 14, cr14, cr14, cr14, {7}
d0024a1c:	eaeeeeee 	b	cfbe05dc <_start-0x43fa34>
d0024a20:	eeeaeaea 	vfms.f32	s29, s21, s21
d0024a24:	eaeaeaee 	b	cfadf5e4 <_start-0x540a2c>
d0024a28:	aaeaeaea 	bge	cfadf5d8 <_start-0x540a38>
d0024a2c:	eaeaeaea 	b	cfadf5dc <_start-0x540a34>
d0024a30:	eaeaeaea 	b	cfadf5e0 <_start-0x540a30>
d0024a34:	eeeaeaee 	vfms.f32	s29, s21, s29
d0024a38:	eaeeeaee 	b	cfbdf5f8 <_start-0x440a18>
d0024a3c:	eeeeeeee 	cdp	14, 14, cr14, cr14, cr14, {7}
d0024a40:	eeeeeeee 	cdp	14, 14, cr14, cr14, cr14, {7}
d0024a44:	eeeeeeee 	cdp	14, 14, cr14, cr14, cr14, {7}
d0024a48:	eaeeeeee 	b	cfbe0608 <_start-0x43fa08>
d0024a4c:	aaaaeaee 	bge	ceadf60c <_start-0x1540a04>
d0024a50:	000000aa 	andeq	r0, r0, sl, lsr #1
	...
d0024a5c:	ffff1f00 	undefined instruction 0xffff1f00
d0024a60:	ffffffff 	undefined instruction 0xffffffff
d0024a64:	ffffffff 	undefined instruction 0xffffffff
d0024a68:	ffffffff 	undefined instruction 0xffffffff
d0024a6c:	ffffffff 	undefined instruction 0xffffffff
d0024a70:	ffffffff 	undefined instruction 0xffffffff
d0024a74:	ffffffff 	undefined instruction 0xffffffff
d0024a78:	ffffffff 	undefined instruction 0xffffffff
d0024a7c:	ffffffff 	undefined instruction 0xffffffff
d0024a80:	ffffffff 	undefined instruction 0xffffffff
d0024a84:	ffffffff 	undefined instruction 0xffffffff
d0024a88:	ffffffff 	undefined instruction 0xffffffff
d0024a8c:	ffffffff 	undefined instruction 0xffffffff
d0024a90:	ffffffff 	undefined instruction 0xffffffff
d0024a94:	ffffffff 	undefined instruction 0xffffffff
d0024a98:	ffffffff 	undefined instruction 0xffffffff
d0024a9c:	00800000 	addeq	r0, r0, r0
d0024aa0:	00000000 	andeq	r0, r0, r0
d0024aa4:	0a000000 	beq	d0024aac <gImage_pic+0x20e0>
d0024aa8:	bbbbbbab 	bllt	cef1395c <_start-0x110c6b4>
d0024aac:	fbfbfbfb 	blx	cff23aa2 <_start-0xfc56e>
d0024ab0:	fbfffbfb 	blx	d0023aa6 <gImage_pic+0x10da>
d0024ab4:	bbbbbbfb 	bllt	cef13aa8 <_start-0x110c568>
d0024ab8:	bbfbbfbb 	bllt	cff149ac <_start-0x10b664>
d0024abc:	bbbbbbbb 	bllt	cef139b0 <_start-0x110c660>
d0024ac0:	bbbbbbbb 	bllt	cef139b4 <_start-0x110c65c>
d0024ac4:	bbbbbbbb 	bllt	cef139b8 <_start-0x110c658>
d0024ac8:	bbbbbbbb 	bllt	cef139bc <_start-0x110c654>
d0024acc:	fbfbbbbb 	blx	cff139c2 <_start-0x10c64e>
d0024ad0:	bbbbbbfb 	bllt	cef13ac4 <_start-0x110c54c>
d0024ad4:	fbfbbbfb 	blx	cff13aca <_start-0x10c546>
d0024ad8:	fbfbfbfb 	blx	cff23ace <_start-0xfc542>
d0024adc:	fbfbbbfb 	blx	cff13ad2 <_start-0x10c53e>
d0024ae0:	bbbbbbfb 	bllt	cef13ad4 <_start-0x110c53c>
d0024ae4:	00aaabbb 	strheq	sl, [sl], fp
	...
d0024af0:	57010000 	strpl	r0, [r1, -r0]
d0024af4:	ffffffff 	undefined instruction 0xffffffff
d0024af8:	ffffffff 	undefined instruction 0xffffffff
d0024afc:	ffffffff 	undefined instruction 0xffffffff
d0024b00:	ffffffff 	undefined instruction 0xffffffff
d0024b04:	ffffffff 	undefined instruction 0xffffffff
d0024b08:	ffffffff 	undefined instruction 0xffffffff
d0024b0c:	ffffffff 	undefined instruction 0xffffffff
d0024b10:	ffffffff 	undefined instruction 0xffffffff
d0024b14:	ffffffff 	undefined instruction 0xffffffff
d0024b18:	ffffffff 	undefined instruction 0xffffffff
d0024b1c:	ffffffff 	undefined instruction 0xffffffff
d0024b20:	ffffffff 	undefined instruction 0xffffffff
d0024b24:	ffffffff 	undefined instruction 0xffffffff
d0024b28:	ffffffff 	undefined instruction 0xffffffff
d0024b2c:	ffffffff 	undefined instruction 0xffffffff
d0024b30:	0000ffff 	strdeq	pc, [r0], -pc
	...
d0024b3c:	aaaa0200 	bge	ceaa5344 <_start-0x157accc>
d0024b40:	eeeeeeae 	cdp	14, 14, cr14, cr14, cr14, {5}
d0024b44:	eeeeeeee 	cdp	14, 14, cr14, cr14, cr14, {7}
d0024b48:	aeeeeeee 	cdpge	14, 14, cr14, cr14, cr14, {7}
d0024b4c:	efeeeeae 	svc	0x00eeeeae
d0024b50:	aeeeeeee 	cdpge	14, 14, cr14, cr14, cr14, {7}
d0024b54:	aeaeaeee 	cdpge	14, 10, cr10, cr14, cr14, {7}
d0024b58:	eeaeaeae 	cdp	14, 10, cr10, cr14, cr14, {5}
d0024b5c:	aeaeaeae 	cdpge	14, 10, cr10, cr14, cr14, {5}
d0024b60:	aeeeaeae 	cdpge	14, 14, cr10, cr14, cr14, {5}
d0024b64:	eeeeeeee 	cdp	14, 14, cr14, cr14, cr14, {7}
d0024b68:	eeeeeeee 	cdp	14, 14, cr14, cr14, cr14, {7}
d0024b6c:	eeeeeeee 	cdp	14, 14, cr14, cr14, cr14, {7}
d0024b70:	eeeeeeee 	cdp	14, 14, cr14, cr14, cr14, {7}
d0024b74:	eeeeeeee 	cdp	14, 14, cr14, cr14, cr14, {7}
d0024b78:	aaaeaeee 	bge	cebd0738 <_start-0x144f8d8>
d0024b7c:	000000aa 	andeq	r0, r0, sl, lsr #1
	...
d0024b88:	ffffc700 	undefined instruction 0xffffc700
d0024b8c:	ffffffff 	undefined instruction 0xffffffff
d0024b90:	ffffffff 	undefined instruction 0xffffffff
d0024b94:	ffffffff 	undefined instruction 0xffffffff
d0024b98:	ffffffff 	undefined instruction 0xffffffff
d0024b9c:	ffffffff 	undefined instruction 0xffffffff
d0024ba0:	ffffffff 	undefined instruction 0xffffffff
d0024ba4:	ffffffff 	undefined instruction 0xffffffff
d0024ba8:	ffffffff 	undefined instruction 0xffffffff
d0024bac:	ffffffff 	undefined instruction 0xffffffff
d0024bb0:	ffffffff 	undefined instruction 0xffffffff
d0024bb4:	ffffffff 	undefined instruction 0xffffffff
d0024bb8:	ffffffff 	undefined instruction 0xffffffff
d0024bbc:	ffffffff 	undefined instruction 0xffffffff
d0024bc0:	ffffffff 	undefined instruction 0xffffffff
d0024bc4:	ffffffff 	undefined instruction 0xffffffff
	...
d0024bd0:	0a080000 	beq	d0224bd8 <bss_end+0x1ef608>
d0024bd4:	bbbbabaa 	bllt	cef0fa84 <_start-0x111058c>
d0024bd8:	bfffbfbb 	svclt	0x00ffbfbb
d0024bdc:	bbffffff 	bllt	d0024be0 <gImage_pic+0x2214>
d0024be0:	bbbbbbbb 	bllt	cef13ad4 <_start-0x110c53c>
d0024be4:	bbfbbfbb 	bllt	cff14ad8 <_start-0x10b538>
d0024be8:	bbbbbbbb 	bllt	cef13adc <_start-0x110c534>
d0024bec:	bbbbbbbb 	bllt	cef13ae0 <_start-0x110c530>
d0024bf0:	bbbbbbbb 	bllt	cef13ae4 <_start-0x110c52c>
d0024bf4:	bbbbbbbb 	bllt	cef13ae8 <_start-0x110c528>
d0024bf8:	bbbbbbbb 	bllt	cef13aec <_start-0x110c524>
d0024bfc:	bbbbbbbb 	bllt	cef13af0 <_start-0x110c520>
d0024c00:	bfbbbbbb 	svclt	0x00bbbbbb
d0024c04:	bffbbfbb 	svclt	0x00fbbfbb
d0024c08:	bbbbbbbb 	bllt	cef13afc <_start-0x110c514>
d0024c0c:	bbbbbbbb 	bllt	cef13b00 <_start-0x110c510>
d0024c10:	00aaaaba 	strheq	sl, [sl], sl
	...
d0024c1c:	5f010000 	svcpl	0x00010000
d0024c20:	ffffffff 	undefined instruction 0xffffffff
d0024c24:	ffffffff 	undefined instruction 0xffffffff
d0024c28:	ffffffff 	undefined instruction 0xffffffff
d0024c2c:	ffffffff 	undefined instruction 0xffffffff
d0024c30:	ffffffff 	undefined instruction 0xffffffff
d0024c34:	ffffffff 	undefined instruction 0xffffffff
d0024c38:	ffffffff 	undefined instruction 0xffffffff
d0024c3c:	ffffffff 	undefined instruction 0xffffffff
d0024c40:	ffffffff 	undefined instruction 0xffffffff
d0024c44:	ffffffff 	undefined instruction 0xffffffff
d0024c48:	ffffffff 	undefined instruction 0xffffffff
d0024c4c:	ffffffff 	undefined instruction 0xffffffff
d0024c50:	ffffffff 	undefined instruction 0xffffffff
d0024c54:	ffffffff 	undefined instruction 0xffffffff
d0024c58:	ffffffff 	undefined instruction 0xffffffff
d0024c5c:	0000ffff 	strdeq	pc, [r0], -pc
	...
d0024c68:	aaaa0200 	bge	ceaa5470 <_start-0x157aba0>
d0024c6c:	eeeeeeaa 	cdp	14, 14, cr14, cr14, cr10, {5}
d0024c70:	eeeeeeee 	cdp	14, 14, cr14, cr14, cr14, {7}
d0024c74:	eaeaeeee 	b	cfae0834 <_start-0x53f7dc>
d0024c78:	eeeaeaea 	vfms.f32	s29, s21, s21
d0024c7c:	eaeaeeea 	b	cfae082c <_start-0x53f7e4>
d0024c80:	eaaaeaea 	b	ceadf830 <_start-0x15407e0>
d0024c84:	eaaaaaaa 	b	ceacf734 <_start-0x15508dc>
d0024c88:	eaeaeaaa 	b	cfadf738 <_start-0x5408d8>
d0024c8c:	eaeaeaea 	b	cfadf83c <_start-0x5407d4>
d0024c90:	eeeeeeea 	cdp	14, 14, cr14, cr14, cr10, {7}
d0024c94:	eeeeeeee 	cdp	14, 14, cr14, cr14, cr14, {7}
d0024c98:	eeeeeeee 	cdp	14, 14, cr14, cr14, cr14, {7}
d0024c9c:	eeeeeeee 	cdp	14, 14, cr14, cr14, cr14, {7}
d0024ca0:	eeeeeeee 	cdp	14, 14, cr14, cr14, cr14, {7}
d0024ca4:	aaaaeaea 	bge	ceadf854 <_start-0x15407bc>
d0024ca8:	000000aa 	andeq	r0, r0, sl, lsr #1
	...
d0024cb4:	ffff5d00 	undefined instruction 0xffff5d00
d0024cb8:	ffffffff 	undefined instruction 0xffffffff
d0024cbc:	ffffffff 	undefined instruction 0xffffffff
d0024cc0:	ffffffff 	undefined instruction 0xffffffff
d0024cc4:	ffffffff 	undefined instruction 0xffffffff
d0024cc8:	ffffffff 	undefined instruction 0xffffffff
d0024ccc:	ffffffff 	undefined instruction 0xffffffff
d0024cd0:	ffffffff 	undefined instruction 0xffffffff
d0024cd4:	ffffffff 	undefined instruction 0xffffffff
d0024cd8:	ffffffff 	undefined instruction 0xffffffff
d0024cdc:	ffffffff 	undefined instruction 0xffffffff
d0024ce0:	ffffffff 	undefined instruction 0xffffffff
d0024ce4:	ffffffff 	undefined instruction 0xffffffff
d0024ce8:	ffffffff 	undefined instruction 0xffffffff
d0024cec:	ffffffff 	undefined instruction 0xffffffff
d0024cf0:	ddfdffff 	ldclle	15, cr15, [sp, #1020]!	; 0x3fc
d0024cf4:	80000000 	andhi	r0, r0, r0
d0024cf8:	80000000 	andhi	r0, r0, r0
d0024cfc:	88000000 	stmdahi	r0, {}
d0024d00:	fbbbabaa 	blx	cef0fbb2 <_start-0x111045e>
d0024d04:	fbfbfbfb 	blx	cff23cfa <_start-0xfc316>
d0024d08:	fbfbfbfb 	blx	cff23cfe <_start-0xfc312>
d0024d0c:	bbbbbbbb 	bllt	cef13c00 <_start-0x110c410>
d0024d10:	bbfbbfbb 	bllt	cff14c04 <_start-0x10b40c>
d0024d14:	bbbbbbbb 	bllt	cef13c08 <_start-0x110c408>
d0024d18:	bbbbbbbb 	bllt	cef13c0c <_start-0x110c404>
d0024d1c:	bbbbbbbb 	bllt	cef13c10 <_start-0x110c400>
d0024d20:	bbbbbbbb 	bllt	cef13c14 <_start-0x110c3fc>
d0024d24:	bbbbbbbb 	bllt	cef13c18 <_start-0x110c3f8>
d0024d28:	bbbbfbbb 	bllt	cef23c1c <_start-0x10fc3f4>
d0024d2c:	fbfbfbfb 	blx	cff23d22 <_start-0xfc2ee>
d0024d30:	fbfbfbfb 	blx	cff23d26 <_start-0xfc2ea>
d0024d34:	fbbbfbfb 	blx	cef23d2a <_start-0x10fc2e6>
d0024d38:	bbbbbbbb 	bllt	cef13c2c <_start-0x110c3e4>
d0024d3c:	00aaabab 	adceq	sl, sl, fp, lsr #23
	...
d0024d48:	77000000 	strvc	r0, [r0, -r0]
d0024d4c:	ffffffff 	undefined instruction 0xffffffff
d0024d50:	ffffffff 	undefined instruction 0xffffffff
d0024d54:	ffffffff 	undefined instruction 0xffffffff
d0024d58:	ffffffff 	undefined instruction 0xffffffff
d0024d5c:	ffffffff 	undefined instruction 0xffffffff
d0024d60:	ffffffff 	undefined instruction 0xffffffff
d0024d64:	ffffffff 	undefined instruction 0xffffffff
d0024d68:	ffffffff 	undefined instruction 0xffffffff
d0024d6c:	ffffffff 	undefined instruction 0xffffffff
d0024d70:	ffffffff 	undefined instruction 0xffffffff
d0024d74:	ffffffff 	undefined instruction 0xffffffff
d0024d78:	ffffffff 	undefined instruction 0xffffffff
d0024d7c:	ffffffff 	undefined instruction 0xffffffff
d0024d80:	ffffffff 	undefined instruction 0xffffffff
d0024d84:	ffffffff 	undefined instruction 0xffffffff
d0024d88:	0000ffff 	strdeq	pc, [r0], -pc
	...
d0024d94:	aaaa0a00 	bge	ceaa759c <_start-0x1578a74>
d0024d98:	eeeeeeae 	cdp	14, 14, cr14, cr14, cr14, {5}
d0024d9c:	eeeeeeee 	cdp	14, 14, cr14, cr14, cr14, {7}
d0024da0:	eeeeeeee 	cdp	14, 14, cr14, cr14, cr14, {7}
d0024da4:	afaeeeae 	svcge	0x00aeeeae
d0024da8:	aeaeeeee 	cdpge	14, 10, cr14, cr14, cr14, {7}
d0024dac:	aeaeeeae 	cdpge	14, 10, cr14, cr14, cr14, {5}
d0024db0:	eeaeaeae 	cdp	14, 10, cr10, cr14, cr14, {5}
d0024db4:	aeaeaeae 	cdpge	14, 10, cr10, cr14, cr14, {5}
d0024db8:	aeaeaeae 	cdpge	14, 10, cr10, cr14, cr14, {5}
d0024dbc:	eeeeeeae 	cdp	14, 14, cr14, cr14, cr14, {5}
d0024dc0:	eeeeeeee 	cdp	14, 14, cr14, cr14, cr14, {7}
d0024dc4:	eeeeeeee 	cdp	14, 14, cr14, cr14, cr14, {7}
d0024dc8:	eeeeeeee 	cdp	14, 14, cr14, cr14, cr14, {7}
d0024dcc:	eeeeeeee 	cdp	14, 14, cr14, cr14, cr14, {7}
d0024dd0:	aaaaaaaa 	bge	ceacf880 <_start-0x1550790>
d0024dd4:	000000aa 	andeq	r0, r0, sl, lsr #1
	...
d0024de0:	ffff5f00 	undefined instruction 0xffff5f00
d0024de4:	ffffffff 	undefined instruction 0xffffffff
d0024de8:	ffffffff 	undefined instruction 0xffffffff
d0024dec:	ffffffff 	undefined instruction 0xffffffff
d0024df0:	ffffffff 	undefined instruction 0xffffffff
d0024df4:	ffffffff 	undefined instruction 0xffffffff
d0024df8:	ffffffff 	undefined instruction 0xffffffff
d0024dfc:	ffffffff 	undefined instruction 0xffffffff
d0024e00:	ffffffff 	undefined instruction 0xffffffff
d0024e04:	ffffffff 	undefined instruction 0xffffffff
d0024e08:	ffffffff 	undefined instruction 0xffffffff
d0024e0c:	ffffffff 	undefined instruction 0xffffffff
d0024e10:	ffffffff 	undefined instruction 0xffffffff
d0024e14:	ffffffff 	undefined instruction 0xffffffff
d0024e18:	ffffffff 	undefined instruction 0xffffffff
d0024e1c:	dfffffff 	svcle	0x00ffffff
	...
d0024e28:	8a000000 	bhi	d0024e30 <gImage_pic+0x2464>
d0024e2c:	bbbbabaa 	bllt	cef0fcdc <_start-0x1110334>
d0024e30:	bfbfbfbf 	svclt	0x00bfbfbf
d0024e34:	bbbfbfbf 	bllt	cf014d38 <_start-0x100b2d8>
d0024e38:	bbbbbbbb 	bllt	cef13d2c <_start-0x110c2e4>
d0024e3c:	bbbbbfbb 	bllt	cef14d30 <_start-0x110b2e0>
d0024e40:	bbbbbbbb 	bllt	cef13d34 <_start-0x110c2dc>
d0024e44:	bbbbbbbb 	bllt	cef13d38 <_start-0x110c2d8>
d0024e48:	fbbbbbbb 	blx	cef13d3e <_start-0x110c2d2>
d0024e4c:	bbbbbbbb 	bllt	cef13d40 <_start-0x110c2d0>
d0024e50:	bbbbbbbb 	bllt	cef13d44 <_start-0x110c2cc>
d0024e54:	bbbbbbbb 	bllt	cef13d48 <_start-0x110c2c8>
d0024e58:	bbbbbbbb 	bllt	cef13d4c <_start-0x110c2c4>
d0024e5c:	bfbfffbf 	svclt	0x00bfffbf
d0024e60:	bbbbbbbf 	bllt	cef13d64 <_start-0x110c2ac>
d0024e64:	babbbbbb 	blt	cef13d58 <_start-0x110c2b8>
d0024e68:	00aaaaba 	strheq	sl, [sl], sl
	...
d0024e74:	7f000000 	svcvc	0x00000000
d0024e78:	ffffffff 	undefined instruction 0xffffffff
d0024e7c:	ffffffff 	undefined instruction 0xffffffff
d0024e80:	ffffffff 	undefined instruction 0xffffffff
d0024e84:	ffffffff 	undefined instruction 0xffffffff
d0024e88:	ffffffff 	undefined instruction 0xffffffff
d0024e8c:	ffffffff 	undefined instruction 0xffffffff
d0024e90:	ffffffff 	undefined instruction 0xffffffff
d0024e94:	ffffffff 	undefined instruction 0xffffffff
d0024e98:	ffffffff 	undefined instruction 0xffffffff
d0024e9c:	ffffffff 	undefined instruction 0xffffffff
d0024ea0:	ffffffff 	undefined instruction 0xffffffff
d0024ea4:	ffffffff 	undefined instruction 0xffffffff
d0024ea8:	ffffffff 	undefined instruction 0xffffffff
d0024eac:	ffffffff 	undefined instruction 0xffffffff
d0024eb0:	ffffffff 	undefined instruction 0xffffffff
d0024eb4:	0000ffff 	strdeq	pc, [r0], -pc
	...
d0024ec0:	aaaa2a00 	bge	ceaaf6c8 <_start-0x1570948>
d0024ec4:	eeeeeeea 	cdp	14, 14, cr14, cr14, cr10, {7}
d0024ec8:	eeeeeeee 	cdp	14, 14, cr14, cr14, cr14, {7}
d0024ecc:	eaeaeaee 	b	cfadfa8c <_start-0x540584>
d0024ed0:	aeeaeaea 	vfmsge.f32	s29, s21, s21
d0024ed4:	eaeaeaee 	b	cfadfa94 <_start-0x54057c>
d0024ed8:	aaeaaaea 	bge	cfacfa88 <_start-0x550588>
d0024edc:	aaeaaaea 	bge	cfacfa8c <_start-0x550584>
d0024ee0:	eaeeeaea 	b	cfbdfa90 <_start-0x440580>
d0024ee4:	eaeaaaea 	b	cfacfa94 <_start-0x55057c>
d0024ee8:	eeeeeeea 	cdp	14, 14, cr14, cr14, cr10, {7}
d0024eec:	eaeaeaee 	b	cfadfaac <_start-0x540564>
d0024ef0:	eeeeeeee 	cdp	14, 14, cr14, cr14, cr14, {7}
d0024ef4:	eeeeeeee 	cdp	14, 14, cr14, cr14, cr14, {7}
d0024ef8:	eaeaeeee 	b	cfae0ab8 <_start-0x53f558>
d0024efc:	aaaaaaaa 	bge	ceacf9ac <_start-0x1550664>
d0024f00:	000000aa 	andeq	r0, r0, sl, lsr #1
	...
d0024f0c:	ffff5d00 	undefined instruction 0xffff5d00
d0024f10:	ffffffff 	undefined instruction 0xffffffff
d0024f14:	ffffffff 	undefined instruction 0xffffffff
d0024f18:	ffffffff 	undefined instruction 0xffffffff
d0024f1c:	ffffffff 	undefined instruction 0xffffffff
d0024f20:	ffffffff 	undefined instruction 0xffffffff
d0024f24:	ffffffff 	undefined instruction 0xffffffff
d0024f28:	ffffffff 	undefined instruction 0xffffffff
d0024f2c:	ffffffff 	undefined instruction 0xffffffff
d0024f30:	ffffffff 	undefined instruction 0xffffffff
d0024f34:	ffffffff 	undefined instruction 0xffffffff
d0024f38:	ffffffff 	undefined instruction 0xffffffff
d0024f3c:	ffffffff 	undefined instruction 0xffffffff
d0024f40:	ffffffff 	undefined instruction 0xffffffff
d0024f44:	ffffffff 	undefined instruction 0xffffffff
d0024f48:	ddddfdff 	ldclle	13, cr15, [sp, #1020]	; 0x3fc
d0024f4c:	00000080 	andeq	r0, r0, r0, lsl #1
d0024f50:	00000000 	andeq	r0, r0, r0
d0024f54:	aa000080 	bge	d002515c <gImage_pic+0x2790>
d0024f58:	bbbbbbaa 	bllt	cef13e08 <_start-0x110c208>
d0024f5c:	fbfbbbbb 	blx	cff13e52 <_start-0x10c1be>
d0024f60:	bbfbbbfb 	bllt	cff13f54 <_start-0x10c0bc>
d0024f64:	bbbbbbbb 	bllt	cef13e58 <_start-0x110c1b8>
d0024f68:	bbbbbfbb 	bllt	cef14e5c <_start-0x110b1b4>
d0024f6c:	bbbbbbbb 	bllt	cef13e60 <_start-0x110c1b0>
d0024f70:	bbbbbbbb 	bllt	cef13e64 <_start-0x110c1ac>
d0024f74:	bbbbbbbb 	bllt	cef13e68 <_start-0x110c1a8>
d0024f78:	bbbbbbbb 	bllt	cef13e6c <_start-0x110c1a4>
d0024f7c:	bbbbbbbb 	bllt	cef13e70 <_start-0x110c1a0>
d0024f80:	bbbbbbbb 	bllt	cef13e74 <_start-0x110c19c>
d0024f84:	bbbbbbbb 	bllt	cef13e78 <_start-0x110c198>
d0024f88:	fbfbfbfb 	blx	cff23f7e <_start-0xfc092>
d0024f8c:	bbfbbbfb 	bllt	cff13f80 <_start-0x10c090>
d0024f90:	aaabbbbb 	bge	ceb13e84 <_start-0x150c18c>
d0024f94:	00aaaaaa 	adceq	sl, sl, sl, lsr #21
	...
d0024fa0:	7f010000 	svcvc	0x00010000
d0024fa4:	ffffffff 	undefined instruction 0xffffffff
d0024fa8:	ffffffff 	undefined instruction 0xffffffff
d0024fac:	ffffffff 	undefined instruction 0xffffffff
d0024fb0:	ffffffff 	undefined instruction 0xffffffff
d0024fb4:	ffffffff 	undefined instruction 0xffffffff
d0024fb8:	ffffffff 	undefined instruction 0xffffffff
d0024fbc:	ffffffff 	undefined instruction 0xffffffff
d0024fc0:	ffffffff 	undefined instruction 0xffffffff
d0024fc4:	ffffffff 	undefined instruction 0xffffffff
d0024fc8:	ffffffff 	undefined instruction 0xffffffff
d0024fcc:	ffffffff 	undefined instruction 0xffffffff
d0024fd0:	ffffffff 	undefined instruction 0xffffffff
d0024fd4:	ffffffff 	undefined instruction 0xffffffff
d0024fd8:	ffffffff 	undefined instruction 0xffffffff
d0024fdc:	ffffffff 	undefined instruction 0xffffffff
d0024fe0:	0000f7f7 	strdeq	pc, [r0], -r7
	...
d0024fec:	aaaa2a00 	bge	ceaaf7f4 <_start-0x157081c>
d0024ff0:	eeeeeeae 	cdp	14, 14, cr14, cr14, cr14, {5}
d0024ff4:	eeeeeeee 	cdp	14, 14, cr14, cr14, cr14, {7}
d0024ff8:	aeeeeeee 	cdpge	14, 14, cr14, cr14, cr14, {7}
d0024ffc:	eeeeeeae 	cdp	14, 14, cr14, cr14, cr14, {5}
d0025000:	aeaeaeee 	cdpge	14, 10, cr10, cr14, cr14, {7}
d0025004:	aeaeeeae 	cdpge	14, 10, cr14, cr14, cr14, {5}
d0025008:	aeaeaeae 	cdpge	14, 10, cr10, cr14, cr14, {5}
d002500c:	aeeeaeae 	cdpge	14, 14, cr10, cr14, cr14, {5}
d0025010:	eeaeaeae 	cdp	14, 10, cr10, cr14, cr14, {5}
d0025014:	eeeeaeee 	cdp	14, 14, cr10, cr14, cr14, {7}
d0025018:	eeeeeeee 	cdp	14, 14, cr14, cr14, cr14, {7}
d002501c:	eeeeeeee 	cdp	14, 14, cr14, cr14, cr14, {7}
d0025020:	eeeeeeee 	cdp	14, 14, cr14, cr14, cr14, {7}
d0025024:	aaaeeeee 	bge	cebe0be4 <_start-0x143f42c>
d0025028:	aaaaaaaa 	bge	ceacfad8 <_start-0x1550538>
d002502c:	000000aa 	andeq	r0, r0, sl, lsr #1
	...
d0025038:	ffffdf05 	undefined instruction 0xffffdf05
d002503c:	ffffffff 	undefined instruction 0xffffffff
d0025040:	ffffffff 	undefined instruction 0xffffffff
d0025044:	ffffffff 	undefined instruction 0xffffffff
d0025048:	ffffffff 	undefined instruction 0xffffffff
d002504c:	ffffffff 	undefined instruction 0xffffffff
d0025050:	ffffffff 	undefined instruction 0xffffffff
d0025054:	ffffffff 	undefined instruction 0xffffffff
d0025058:	ffffffff 	undefined instruction 0xffffffff
d002505c:	ffffffff 	undefined instruction 0xffffffff
d0025060:	ffffffff 	undefined instruction 0xffffffff
d0025064:	ffffffff 	undefined instruction 0xffffffff
d0025068:	ffffffff 	undefined instruction 0xffffffff
d002506c:	ffffffff 	undefined instruction 0xffffffff
d0025070:	ffffffff 	undefined instruction 0xffffffff
d0025074:	ddddddff 	ldclle	13, cr13, [sp, #1020]	; 0x3fc
	...
d0025080:	8a000000 	bhi	d0025088 <gImage_pic+0x26bc>
d0025084:	bbbbbbaa 	bllt	cef13f34 <_start-0x110c0dc>
d0025088:	bbbbbbbb 	bllt	cef13f7c <_start-0x110c094>
d002508c:	bbbbbbbb 	bllt	cef13f80 <_start-0x110c090>
d0025090:	bbbbbbbb 	bllt	cef13f84 <_start-0x110c08c>
d0025094:	bbbbbfbb 	bllt	cef14f88 <_start-0x110b088>
d0025098:	bbbbbbbb 	bllt	cef13f8c <_start-0x110c084>
d002509c:	bbbbbbbb 	bllt	cef13f90 <_start-0x110c080>
d00250a0:	bbbbbbbb 	bllt	cef13f94 <_start-0x110c07c>
d00250a4:	bbbbbbbb 	bllt	cef13f98 <_start-0x110c078>
d00250a8:	bbbbbbbb 	bllt	cef13f9c <_start-0x110c074>
d00250ac:	bbbbbbbb 	bllt	cef13fa0 <_start-0x110c070>
d00250b0:	bbbbbbbb 	bllt	cef13fa4 <_start-0x110c06c>
d00250b4:	bbbbbfbf 	bllt	cef14fb8 <_start-0x110b058>
d00250b8:	bbbbbbbb 	bllt	cef13fac <_start-0x110c064>
d00250bc:	aaaabbbb 	bge	cead3fb0 <_start-0x154c060>
d00250c0:	00aaaaaa 	adceq	sl, sl, sl, lsr #21
	...
d00250cc:	ff010000 	undefined instruction 0xff010000
d00250d0:	ffffffff 	undefined instruction 0xffffffff
d00250d4:	ffffffff 	undefined instruction 0xffffffff
d00250d8:	ffffffff 	undefined instruction 0xffffffff
d00250dc:	ffffffff 	undefined instruction 0xffffffff
d00250e0:	ffffffff 	undefined instruction 0xffffffff
d00250e4:	ffffffff 	undefined instruction 0xffffffff
d00250e8:	ffffffff 	undefined instruction 0xffffffff
d00250ec:	ffffffff 	undefined instruction 0xffffffff
d00250f0:	ffffffff 	undefined instruction 0xffffffff
d00250f4:	ffffffff 	undefined instruction 0xffffffff
d00250f8:	ffffffff 	undefined instruction 0xffffffff
d00250fc:	ffffffff 	undefined instruction 0xffffffff
d0025100:	ffffffff 	undefined instruction 0xffffffff
d0025104:	ffffffff 	undefined instruction 0xffffffff
d0025108:	f7ffffff 	undefined instruction 0xf7ffffff
d002510c:	00005577 	andeq	r5, r0, r7, ror r5
	...
d0025118:	eaaa2200 	b	ceaad920 <_start-0x15726f0>
d002511c:	eeeaaeee 	cdp	14, 14, cr10, cr10, cr14, {7}
d0025120:	eeeeeeee 	cdp	14, 14, cr14, cr14, cr14, {7}
d0025124:	eaeaeaea 	b	cfadfcd4 <_start-0x54033c>
d0025128:	eeeaeaea 	vfms.f32	s29, s21, s21
d002512c:	aaeaeaea 	bge	cfadfcdc <_start-0x540334>
d0025130:	aaaaeaaa 	bge	ceadfbe0 <_start-0x1540430>
d0025134:	aaaaaaaa 	bge	ceacfbe4 <_start-0x155042c>
d0025138:	eaaaeaaa 	b	ceadfbe8 <_start-0x1540428>
d002513c:	eaeaeaea 	b	cfadfcec <_start-0x540324>
d0025140:	eeeeeaea 	vfms.f32	s29, s29, s21
d0025144:	eeeaeeee 	cdp	14, 14, cr14, cr10, cr14, {7}
d0025148:	eeeeeeea 	cdp	14, 14, cr14, cr14, cr10, {7}
d002514c:	eeeeeeee 	cdp	14, 14, cr14, cr14, cr14, {7}
d0025150:	aaaaaaea 	bge	ceacfd00 <_start-0x1550310>
d0025154:	aaaaaaaa 	bge	ceacfc04 <_start-0x155040c>
d0025158:	000000aa 	andeq	r0, r0, sl, lsr #1
	...
d0025164:	ffffff05 	undefined instruction 0xffffff05
d0025168:	ffffffff 	undefined instruction 0xffffffff
d002516c:	ffffffff 	undefined instruction 0xffffffff
d0025170:	ffffffff 	undefined instruction 0xffffffff
d0025174:	ffffffff 	undefined instruction 0xffffffff
d0025178:	ffffffff 	undefined instruction 0xffffffff
d002517c:	ffffffff 	undefined instruction 0xffffffff
d0025180:	ffffffff 	undefined instruction 0xffffffff
d0025184:	ffffffff 	undefined instruction 0xffffffff
d0025188:	ffffffff 	undefined instruction 0xffffffff
d002518c:	ffffffff 	undefined instruction 0xffffffff
d0025190:	ffffffff 	undefined instruction 0xffffffff
d0025194:	ffffffff 	undefined instruction 0xffffffff
d0025198:	ffffffff 	undefined instruction 0xffffffff
d002519c:	fdffffff 	ldc2l	15, cr15, [pc, #1020]!	; 0x3fc
d00251a0:	dddddddd 	ldclle	13, cr13, [sp, #884]	; 0x374
d00251a4:	00000000 	andeq	r0, r0, r0
d00251a8:	80000000 	andhi	r0, r0, r0
d00251ac:	8a000000 	bhi	d00251b4 <gImage_pic+0x27e8>
d00251b0:	bbfbbbba 	bllt	cff140a0 <_start-0x10bf70>
d00251b4:	fbbbbbab 	blx	cef1406a <_start-0x110bfa6>
d00251b8:	bbbbbbbb 	bllt	cef140ac <_start-0x110bf64>
d00251bc:	bbbbbbbb 	bllt	cef140b0 <_start-0x110bf60>
d00251c0:	bbbbffbb 	bllt	cef250b4 <_start-0x10faf5c>
d00251c4:	bbbbbbbb 	bllt	cef140b8 <_start-0x110bf58>
d00251c8:	bbbbbbbb 	bllt	cef140bc <_start-0x110bf54>
d00251cc:	bbbbbbbb 	bllt	cef140c0 <_start-0x110bf50>
d00251d0:	bbbbbbbb 	bllt	cef140c4 <_start-0x110bf4c>
d00251d4:	bbbbbbbb 	bllt	cef140c8 <_start-0x110bf48>
d00251d8:	bbfbbbbb 	bllt	cff140cc <_start-0x10bf44>
d00251dc:	bbbbbbbb 	bllt	cef140d0 <_start-0x110bf40>
d00251e0:	fbfbfbfb 	blx	cff241d6 <_start-0xfbe3a>
d00251e4:	bbbbfbbb 	bllt	cef240d8 <_start-0x10fbf38>
d00251e8:	aaaaaaab 	bge	ceacfc9c <_start-0x1550374>
d00251ec:	00aaaaaa 	adceq	sl, sl, sl, lsr #21
	...
d00251f8:	ff010000 	undefined instruction 0xff010000
d00251fc:	ffffffff 	undefined instruction 0xffffffff
d0025200:	ffffffff 	undefined instruction 0xffffffff
d0025204:	ffffffff 	undefined instruction 0xffffffff
d0025208:	ffffffff 	undefined instruction 0xffffffff
d002520c:	ffffffff 	undefined instruction 0xffffffff
d0025210:	ffffffff 	undefined instruction 0xffffffff
d0025214:	ffffffff 	undefined instruction 0xffffffff
d0025218:	ffffffff 	undefined instruction 0xffffffff
d002521c:	ffffffff 	undefined instruction 0xffffffff
d0025220:	ffffffff 	undefined instruction 0xffffffff
d0025224:	ffffffff 	undefined instruction 0xffffffff
d0025228:	ffffffff 	undefined instruction 0xffffffff
d002522c:	ffffffff 	undefined instruction 0xffffffff
d0025230:	ffffffff 	undefined instruction 0xffffffff
d0025234:	57f7f7ff 	undefined instruction 0x57f7f7ff
d0025238:	00005555 	andeq	r5, r0, r5, asr r5
	...
d0025244:	aeaeaa02 	vfmage.f32	s20, s28, s4
d0025248:	eeaaeeee 	cdp	14, 10, cr14, cr10, cr14, {7}
d002524c:	eeeeeeee 	cdp	14, 14, cr14, cr14, cr14, {7}
d0025250:	aeaeaeee 	cdpge	14, 10, cr10, cr14, cr14, {7}
d0025254:	eeeeeeae 	cdp	14, 14, cr14, cr14, cr14, {5}
d0025258:	aeaeaeee 	cdpge	14, 10, cr10, cr14, cr14, {7}
d002525c:	aeaeaaae 	vfmage.f32	s20, s29, s29
d0025260:	aeaeaeae 	cdpge	14, 10, cr10, cr14, cr14, {5}
d0025264:	aeaeaeae 	cdpge	14, 10, cr10, cr14, cr14, {5}
d0025268:	aeaeaeae 	cdpge	14, 10, cr10, cr14, cr14, {5}
d002526c:	eeaeaeae 	cdp	14, 10, cr10, cr14, cr14, {5}
d0025270:	aeeeeeee 	cdpge	14, 14, cr14, cr14, cr14, {7}
d0025274:	eeeeeeae 	cdp	14, 14, cr14, cr14, cr14, {5}
d0025278:	eeeeeeee 	cdp	14, 14, cr14, cr14, cr14, {7}
d002527c:	aaaaaaee 	bge	ceacfe3c <_start-0x15501d4>
d0025280:	aaaaaaaa 	bge	ceacfd30 <_start-0x15502e0>
d0025284:	000000aa 	andeq	r0, r0, sl, lsr #1
	...
d0025290:	ffffff01 	undefined instruction 0xffffff01
d0025294:	ffffffff 	undefined instruction 0xffffffff
d0025298:	ffffffff 	undefined instruction 0xffffffff
d002529c:	ffffffff 	undefined instruction 0xffffffff
d00252a0:	ffffffff 	undefined instruction 0xffffffff
d00252a4:	ffffffff 	undefined instruction 0xffffffff
d00252a8:	ffffffff 	undefined instruction 0xffffffff
d00252ac:	ffffffff 	undefined instruction 0xffffffff
d00252b0:	ffffffff 	undefined instruction 0xffffffff
d00252b4:	ffffffff 	undefined instruction 0xffffffff
d00252b8:	ffffffff 	undefined instruction 0xffffffff
d00252bc:	ffffffff 	undefined instruction 0xffffffff
d00252c0:	ffffffff 	undefined instruction 0xffffffff
d00252c4:	ffffffff 	undefined instruction 0xffffffff
d00252c8:	dddfffff 	ldclle	15, cr15, [pc, #1020]	; 0x3fc
d00252cc:	d5d55ddd 	ldrble	r5, [r5, #3549]	; 0xddd
	...
d00252d8:	8b080000 	blhi	d02252e0 <bss_end+0x1efd10>
d00252dc:	bbbfabbb 	bllt	cf0101d0 <_start-0x100fe40>
d00252e0:	bbbbbbbb 	bllt	cef141d4 <_start-0x110be3c>
d00252e4:	bbbbbbbb 	bllt	cef141d8 <_start-0x110be38>
d00252e8:	bbbbbbbb 	bllt	cef141dc <_start-0x110be34>
d00252ec:	bbbbffbb 	bllt	cef251e0 <_start-0x10fae30>
d00252f0:	bbbbbbbb 	bllt	cef141e4 <_start-0x110be2c>
d00252f4:	bbbbbbbb 	bllt	cef141e8 <_start-0x110be28>
d00252f8:	bbbbbbbb 	bllt	cef141ec <_start-0x110be24>
d00252fc:	bbbbbbbb 	bllt	cef141f0 <_start-0x110be20>
d0025300:	bbbbbbbb 	bllt	cef141f4 <_start-0x110be1c>
d0025304:	bbbfbbbb 	bllt	cf0141f8 <_start-0x100be18>
d0025308:	bbbbbbbb 	bllt	cef141fc <_start-0x110be14>
d002530c:	bbbbbfbb 	bllt	cef15200 <_start-0x110ae10>
d0025310:	babbbbbb 	blt	cef14204 <_start-0x110be0c>
d0025314:	aaaaaaaa 	bge	ceacfdc4 <_start-0x155024c>
d0025318:	00aaaaaa 	adceq	sl, sl, sl, lsr #21
	...
d0025324:	ff070000 	undefined instruction 0xff070000
d0025328:	ffffffff 	undefined instruction 0xffffffff
d002532c:	ffffffff 	undefined instruction 0xffffffff
d0025330:	ffffffff 	undefined instruction 0xffffffff
d0025334:	ffffffff 	undefined instruction 0xffffffff
d0025338:	ffffffff 	undefined instruction 0xffffffff
d002533c:	ffffffff 	undefined instruction 0xffffffff
d0025340:	ffffffff 	undefined instruction 0xffffffff
d0025344:	ffffffff 	undefined instruction 0xffffffff
d0025348:	ffffffff 	undefined instruction 0xffffffff
d002534c:	ffffffff 	undefined instruction 0xffffffff
d0025350:	ffffffff 	undefined instruction 0xffffffff
d0025354:	ffffffff 	undefined instruction 0xffffffff
d0025358:	ffffffff 	undefined instruction 0xffffffff
d002535c:	ffffffff 	undefined instruction 0xffffffff
d0025360:	557575fd 	ldrbpl	r7, [r5, #-1533]!	; 0x5fd
d0025364:	00005555 	andeq	r5, r0, r5, asr r5
	...
d0025370:	aaeaaa02 	bge	cfacfb80 <_start-0x550490>
d0025374:	eaeeeaea 	b	cfbdff24 <_start-0x4400ec>
d0025378:	eaeeeeee 	b	cfbe0f38 <_start-0x43f0d8>
d002537c:	eaaaeaea 	b	ceadff2c <_start-0x15400e4>
d0025380:	eeeaeaea 	vfms.f32	s29, s21, s21
d0025384:	eaeaaaea 	b	cfacff34 <_start-0x5500dc>
d0025388:	aaaaaaaa 	bge	ceacfe38 <_start-0x15501d8>
d002538c:	aaaaaaaa 	bge	ceacfe3c <_start-0x15501d4>
d0025390:	aaeaaaea 	bge	cfacff40 <_start-0x5500d0>
d0025394:	aaeaaaea 	bge	cfacff44 <_start-0x5500cc>
d0025398:	eaeeeaea 	b	cfbdff48 <_start-0x4400c8>
d002539c:	aaeaeeee 	bge	cfae0f5c <_start-0x53f0b4>
d00253a0:	eeeeaaea 	vfms.f32	s21, s29, s21
d00253a4:	eaeeeeee 	b	cfbe0f64 <_start-0x43f0ac>
d00253a8:	aaaaaaea 	bge	ceacff58 <_start-0x15500b8>
d00253ac:	aaaaaaaa 	bge	ceacfe5c <_start-0x15501b4>
d00253b0:	000000aa 	andeq	r0, r0, sl, lsr #1
	...
d00253bc:	ffffff1f 	undefined instruction 0xffffff1f
d00253c0:	ffffffff 	undefined instruction 0xffffffff
d00253c4:	ffffffff 	undefined instruction 0xffffffff
d00253c8:	ffffffff 	undefined instruction 0xffffffff
d00253cc:	ffffffff 	undefined instruction 0xffffffff
d00253d0:	ffffffff 	undefined instruction 0xffffffff
d00253d4:	ffffffff 	undefined instruction 0xffffffff
d00253d8:	ffffffff 	undefined instruction 0xffffffff
d00253dc:	ffffffff 	undefined instruction 0xffffffff
d00253e0:	ffffffff 	undefined instruction 0xffffffff
d00253e4:	ffffffff 	undefined instruction 0xffffffff
d00253e8:	ffffffff 	undefined instruction 0xffffffff
d00253ec:	ffffffff 	undefined instruction 0xffffffff
d00253f0:	ffffffff 	undefined instruction 0xffffffff
d00253f4:	d5ddddfd 	ldrble	sp, [sp, #3581]	; 0xdfd
d00253f8:	d5555454 	ldrble	r5, [r5, #-1108]	; 0x454
	...
d0025404:	aaaa0000 	bge	ceaa540c <_start-0x157ac04>
d0025408:	bbbbfbbb 	bllt	cef242fc <_start-0x10fbd14>
d002540c:	bbbbbbeb 	bllt	cef143c0 <_start-0x110bc50>
d0025410:	bbbbbbbb 	bllt	cef14304 <_start-0x110bd0c>
d0025414:	bbbbbbbb 	bllt	cef14308 <_start-0x110bd08>
d0025418:	bbbbffbb 	bllt	cef2530c <_start-0x10fad04>
d002541c:	bbbbbbbb 	bllt	cef14310 <_start-0x110bd00>
d0025420:	bbbbbbbb 	bllt	cef14314 <_start-0x110bcfc>
d0025424:	bbbbbbbb 	bllt	cef14318 <_start-0x110bcf8>
d0025428:	bbbbbbbb 	bllt	cef1431c <_start-0x110bcf4>
d002542c:	bbbbbbbb 	bllt	cef14320 <_start-0x110bcf0>
d0025430:	bbfbbbfb 	bllt	cff14424 <_start-0x10bbec>
d0025434:	bbbbbbbb 	bllt	cef14328 <_start-0x110bce8>
d0025438:	bbfbfbbb 	bllt	cff2432c <_start-0xfbce4>
d002543c:	aabbbbbb 	bge	cef14330 <_start-0x110bce0>
d0025440:	aaaaaaaa 	bge	ceacfef0 <_start-0x1550120>
d0025444:	00aaaaaa 	adceq	sl, sl, sl, lsr #21
	...
d0025450:	ffff7701 	undefined instruction 0xffff7701
d0025454:	ffffffff 	undefined instruction 0xffffffff
d0025458:	ffffffff 	undefined instruction 0xffffffff
d002545c:	ffffffff 	undefined instruction 0xffffffff
d0025460:	ffffffff 	undefined instruction 0xffffffff
d0025464:	ffffffff 	undefined instruction 0xffffffff
d0025468:	ffffffff 	undefined instruction 0xffffffff
d002546c:	ffffffff 	undefined instruction 0xffffffff
d0025470:	ffffffff 	undefined instruction 0xffffffff
d0025474:	ffffffff 	undefined instruction 0xffffffff
d0025478:	ffffffff 	undefined instruction 0xffffffff
d002547c:	ffffffff 	undefined instruction 0xffffffff
d0025480:	ffffffff 	undefined instruction 0xffffffff
d0025484:	ffffffff 	undefined instruction 0xffffffff
d0025488:	75ffffff 	ldrbvc	pc, [pc, #4095]!	; d002648f <gImage_pic+0x3ac3>
d002548c:	55555555 	ldrbpl	r5, [r5, #-1365]	; 0x555
d0025490:	00005555 	andeq	r5, r0, r5, asr r5
d0025494:	00000000 	andeq	r0, r0, r0
d0025498:	0a000000 	beq	d00254a0 <gImage_pic+0x2ad4>
d002549c:	aeaeaaaa 	vfmage.f32	s20, s29, s21
d00254a0:	aeeeeeae 	cdpge	14, 14, cr14, cr14, cr14, {5}
d00254a4:	eeeeeeee 	cdp	14, 14, cr14, cr14, cr14, {7}
d00254a8:	aeaeaeee 	cdpge	14, 10, cr10, cr14, cr14, {7}
d00254ac:	eeeeaeee 	cdp	14, 14, cr10, cr14, cr14, {7}
d00254b0:	aeaeaeae 	cdpge	14, 10, cr10, cr14, cr14, {5}
d00254b4:	aaaaaeaa 	bge	cead0f64 <_start-0x154f0ac>
d00254b8:	aeaaaeae 	cdpge	14, 10, cr10, cr10, cr14, {5}
d00254bc:	aaaeaeae 	bge	cebd0f7c <_start-0x144f094>
d00254c0:	aeaeaeae 	cdpge	14, 10, cr10, cr14, cr14, {5}
d00254c4:	eeeeaeee 	cdp	14, 14, cr10, cr14, cr14, {7}
d00254c8:	aeeeeeee 	cdpge	14, 14, cr14, cr14, cr14, {7}
d00254cc:	eeeeaeaa 	cdp	14, 14, cr10, cr14, cr10, {5}
d00254d0:	eeeeeeee 	cdp	14, 14, cr14, cr14, cr14, {7}
d00254d4:	aaaaaaaa 	bge	ceacff84 <_start-0x155008c>
d00254d8:	aaaaaaaa 	bge	ceacff88 <_start-0x1550088>
d00254dc:	000000aa 	andeq	r0, r0, sl, lsr #1
d00254e0:	00000000 	andeq	r0, r0, r0
d00254e4:	df1d0000 	svcle	0x001d0000
d00254e8:	ffffffff 	undefined instruction 0xffffffff
d00254ec:	ffffffff 	undefined instruction 0xffffffff
d00254f0:	ffffffff 	undefined instruction 0xffffffff
d00254f4:	ffffffff 	undefined instruction 0xffffffff
d00254f8:	ffffffff 	undefined instruction 0xffffffff
d00254fc:	ffffffff 	undefined instruction 0xffffffff
d0025500:	ffffffff 	undefined instruction 0xffffffff
d0025504:	ffffffff 	undefined instruction 0xffffffff
d0025508:	ffffffff 	undefined instruction 0xffffffff
d002550c:	ffffffff 	undefined instruction 0xffffffff
d0025510:	ffffffff 	undefined instruction 0xffffffff
d0025514:	ffffffff 	undefined instruction 0xffffffff
d0025518:	ffffffff 	undefined instruction 0xffffffff
d002551c:	ffffffff 	undefined instruction 0xffffffff
d0025520:	4455d5fd 	ldrbmi	sp, [r5], #-1533	; 0x5fd
d0025524:	5d454544 	cfstr64pl	mvdx4, [r5, #-272]	; 0xfffffef0
	...
d0025530:	bbaaaa00 	bllt	ceacfd38 <_start-0x15502d8>
d0025534:	bbbbbbbb 	bllt	cef14428 <_start-0x110bbe8>
d0025538:	bbbbbbbb 	bllt	cef1442c <_start-0x110bbe4>
d002553c:	bbbbbbbb 	bllt	cef14430 <_start-0x110bbe0>
d0025540:	bbbbbbbb 	bllt	cef14434 <_start-0x110bbdc>
d0025544:	bbbbffbb 	bllt	cef25438 <_start-0x10fabd8>
d0025548:	bbbbbbbb 	bllt	cef1443c <_start-0x110bbd4>
d002554c:	bbbbbbbb 	bllt	cef14440 <_start-0x110bbd0>
d0025550:	bbbbbbbb 	bllt	cef14444 <_start-0x110bbcc>
d0025554:	bbbbbbbb 	bllt	cef14448 <_start-0x110bbc8>
d0025558:	bbbbbbbb 	bllt	cef1444c <_start-0x110bbc4>
d002555c:	bbbbbbbb 	bllt	cef14450 <_start-0x110bbc0>
d0025560:	bbbbbbbb 	bllt	cef14454 <_start-0x110bbbc>
d0025564:	bbbbbbbb 	bllt	cef14458 <_start-0x110bbb8>
d0025568:	aababbbb 	bge	ceed445c <_start-0x114bbb4>
d002556c:	aaaaaaaa 	bge	cead001c <_start-0x154fff4>
d0025570:	00aaaaaa 	adceq	sl, sl, sl, lsr #21
	...
d002557c:	ffff1700 	undefined instruction 0xffff1700
d0025580:	ffffffff 	undefined instruction 0xffffffff
d0025584:	ffffffff 	undefined instruction 0xffffffff
d0025588:	ffffffff 	undefined instruction 0xffffffff
d002558c:	ffffffff 	undefined instruction 0xffffffff
d0025590:	ffffffff 	undefined instruction 0xffffffff
d0025594:	ffffffff 	undefined instruction 0xffffffff
d0025598:	ffffffff 	undefined instruction 0xffffffff
d002559c:	ffffffff 	undefined instruction 0xffffffff
d00255a0:	ffffffff 	undefined instruction 0xffffffff
d00255a4:	ffffffff 	undefined instruction 0xffffffff
d00255a8:	ffffffff 	undefined instruction 0xffffffff
d00255ac:	ffffffff 	undefined instruction 0xffffffff
d00255b0:	ffffffff 	undefined instruction 0xffffffff
d00255b4:	55f7ffff 	ldrbpl	pc, [r7, #4095]!	; 0xfff
d00255b8:	11155555 	tstne	r5, r5, asr r5
d00255bc:	00005555 	andeq	r5, r0, r5, asr r5
d00255c0:	00000000 	andeq	r0, r0, r0
d00255c4:	aa020000 	bge	d00a55cc <bss_end+0x6fffc>
d00255c8:	eaeaaaaa 	b	cfad0078 <_start-0x54ff98>
d00255cc:	eaaaeeea 	b	ceae117c <_start-0x153ee94>
d00255d0:	eaeaaaaa 	b	cfad0080 <_start-0x54ff90>
d00255d4:	eaeaeaea 	b	cfae0184 <_start-0x53fe8c>
d00255d8:	eeeaeaea 	vfms.f32	s29, s21, s21
d00255dc:	eaaaeaea 	b	ceae018c <_start-0x153fe84>
d00255e0:	aaaaaaaa 	bge	cead0090 <_start-0x154ff80>
d00255e4:	aaaaaaaa 	bge	cead0094 <_start-0x154ff7c>
d00255e8:	eaaaaaaa 	b	cead0098 <_start-0x154ff78>
d00255ec:	eaaaeaaa 	b	ceae009c <_start-0x153ff74>
d00255f0:	eeeaeeea 	cdp	14, 14, cr14, cr10, cr10, {7}
d00255f4:	eaeaeeee 	b	cfae11b4 <_start-0x53ee5c>
d00255f8:	eeeeaaea 	vfms.f32	s21, s29, s21
d00255fc:	eaeaeaee 	b	cfae01bc <_start-0x53fe54>
d0025600:	aaaaaaaa 	bge	cead00b0 <_start-0x154ff60>
d0025604:	aaaaaaaa 	bge	cead00b4 <_start-0x154ff5c>
d0025608:	000000aa 	andeq	r0, r0, sl, lsr #1
d002560c:	00000000 	andeq	r0, r0, r0
d0025610:	5f000000 	svcpl	0x00000000
d0025614:	ffffffff 	undefined instruction 0xffffffff
d0025618:	ffffffff 	undefined instruction 0xffffffff
d002561c:	ffffffff 	undefined instruction 0xffffffff
d0025620:	ffffffff 	undefined instruction 0xffffffff
d0025624:	ffffffff 	undefined instruction 0xffffffff
d0025628:	ffffffff 	undefined instruction 0xffffffff
d002562c:	ffffffff 	undefined instruction 0xffffffff
d0025630:	ffffffff 	undefined instruction 0xffffffff
d0025634:	ffffffff 	undefined instruction 0xffffffff
d0025638:	ffffffff 	undefined instruction 0xffffffff
d002563c:	ffffffff 	undefined instruction 0xffffffff
d0025640:	ffffffff 	undefined instruction 0xffffffff
d0025644:	ffffffff 	undefined instruction 0xffffffff
d0025648:	fdffffff 	ldc2l	15, cr15, [pc, #1020]!	; 0x3fc
d002564c:	404444dd 	ldrdmi	r4, [r4], #-77	; 0xffffffb3
d0025650:	44444400 	strbmi	r4, [r4], #-1024	; 0x400
d0025654:	80008000 	andhi	r8, r0, r0
d0025658:	00000000 	andeq	r0, r0, r0
d002565c:	bbab8a0a 	bllt	ceb07e8c <_start-0x1518184>
d0025660:	bbbbbbbb 	bllt	cef14554 <_start-0x110babc>
d0025664:	bbbbbbbb 	bllt	cef14558 <_start-0x110bab8>
d0025668:	bbbbbbbb 	bllt	cef1455c <_start-0x110bab4>
d002566c:	bbbbbbbb 	bllt	cef14560 <_start-0x110bab0>
d0025670:	bbbbfbbb 	bllt	cef24564 <_start-0x10fbaac>
d0025674:	bbbbbbbb 	bllt	cef14568 <_start-0x110baa8>
d0025678:	bbbbbbbb 	bllt	cef1456c <_start-0x110baa4>
d002567c:	bbbbbbbb 	bllt	cef14570 <_start-0x110baa0>
d0025680:	bbbbbbbb 	bllt	cef14574 <_start-0x110ba9c>
d0025684:	bbbbbbbb 	bllt	cef14578 <_start-0x110ba98>
d0025688:	fbbbbbbb 	blx	cef1457e <_start-0x110ba92>
d002568c:	abbbbbbb 	blge	cef14580 <_start-0x110ba90>
d0025690:	bbbbbbbb 	bllt	cef14584 <_start-0x110ba8c>
d0025694:	aababbbb 	bge	ceed4588 <_start-0x114ba88>
d0025698:	aaaaaaaa 	bge	cead0148 <_start-0x154fec8>
d002569c:	00aaaaaa 	adceq	sl, sl, sl, lsr #21
	...
d00256a8:	ffff7f01 	undefined instruction 0xffff7f01
d00256ac:	ffffffff 	undefined instruction 0xffffffff
d00256b0:	ffffffff 	undefined instruction 0xffffffff
d00256b4:	ffffffff 	undefined instruction 0xffffffff
d00256b8:	ffffffff 	undefined instruction 0xffffffff
d00256bc:	ffffffff 	undefined instruction 0xffffffff
d00256c0:	ffffffff 	undefined instruction 0xffffffff
d00256c4:	ffffffff 	undefined instruction 0xffffffff
d00256c8:	ffffffff 	undefined instruction 0xffffffff
d00256cc:	ffffffff 	undefined instruction 0xffffffff
d00256d0:	ffffffff 	undefined instruction 0xffffffff
d00256d4:	ffffffff 	undefined instruction 0xffffffff
d00256d8:	ffffffff 	undefined instruction 0xffffffff
d00256dc:	ffffffff 	undefined instruction 0xffffffff
d00256e0:	11d5ffff 	ldrshne	pc, [r5, #255]	; 0xff
d00256e4:	11110111 	tstne	r1, r1, lsl r1
d00256e8:	00001151 	andeq	r1, r0, r1, asr r1
d00256ec:	00000000 	andeq	r0, r0, r0
d00256f0:	2a2a0000 	bcs	d0aa56f8 <bss_end+0xa70128>
d00256f4:	eeeeaaaa 	vfma.f32	s21, s29, s21
d00256f8:	aaaeeeee 	bge	cebe12b8 <_start-0x143ed58>
d00256fc:	aeaeaeaa 	cdpge	14, 10, cr10, cr14, cr10, {5}
d0025700:	eeaeaeae 	cdp	14, 10, cr10, cr14, cr14, {5}
d0025704:	eeabeeae 	cdp	14, 10, cr14, cr11, cr14, {5}
d0025708:	aeaeeeae 	cdpge	14, 10, cr14, cr14, cr14, {5}
d002570c:	aaaeaeaa 	bge	cebd11bc <_start-0x144ee54>
d0025710:	aaaaaaaa 	bge	cead01c0 <_start-0x154fe50>
d0025714:	aeaaaaae 	vfmage.f32	s20, s21, s29
d0025718:	aeaeeeae 	cdpge	14, 10, cr14, cr14, cr14, {5}
d002571c:	aeeeeeae 	cdpge	14, 14, cr14, cr14, cr14, {5}
d0025720:	eeeeeeee 	cdp	14, 14, cr14, cr14, cr14, {7}
d0025724:	eeaeaaea 	vfms.f32	s20, s29, s21
d0025728:	eaaeeeee 	b	cebe12e8 <_start-0x143ed28>
d002572c:	aaaaaaaa 	bge	cead01dc <_start-0x154fe34>
d0025730:	aaaaaaaa 	bge	cead01e0 <_start-0x154fe30>
d0025734:	000000aa 	andeq	r0, r0, sl, lsr #1
d0025738:	00000000 	andeq	r0, r0, r0
d002573c:	5d000000 	stcpl	0, cr0, [r0]
d0025740:	ffffffff 	undefined instruction 0xffffffff
d0025744:	ffffffff 	undefined instruction 0xffffffff
d0025748:	ffffffff 	undefined instruction 0xffffffff
d002574c:	ffffffff 	undefined instruction 0xffffffff
d0025750:	ffffffff 	undefined instruction 0xffffffff
d0025754:	ffffffff 	undefined instruction 0xffffffff
d0025758:	ffffffff 	undefined instruction 0xffffffff
d002575c:	ffffffff 	undefined instruction 0xffffffff
d0025760:	ffffffff 	undefined instruction 0xffffffff
d0025764:	ffffffff 	undefined instruction 0xffffffff
d0025768:	ffffffff 	undefined instruction 0xffffffff
d002576c:	ffffffff 	undefined instruction 0xffffffff
d0025770:	ffffffff 	undefined instruction 0xffffffff
d0025774:	fdffffff 	ldc2l	15, cr15, [pc, #1020]!	; 0x3fc
d0025778:	000040d4 	ldrdeq	r4, [r0], -r4
d002577c:	44040400 	strmi	r0, [r4], #-1024	; 0x400
	...
d0025788:	bbbb8a28 	bllt	cef08030 <_start-0x1117fe0>
d002578c:	bbbbbbbb 	bllt	cef14680 <_start-0x110b990>
d0025790:	bbaabaab 	bllt	cead4244 <_start-0x154bdcc>
d0025794:	bbbbbbbb 	bllt	cef14688 <_start-0x110b988>
d0025798:	bbbbbbbb 	bllt	cef1468c <_start-0x110b984>
d002579c:	bbbbfbbb 	bllt	cef24690 <_start-0x10fb980>
d00257a0:	bbbbbbbb 	bllt	cef14694 <_start-0x110b97c>
d00257a4:	bbbbbabb 	bllt	cef14298 <_start-0x110bd78>
d00257a8:	bbbbbbbb 	bllt	cef1469c <_start-0x110b974>
d00257ac:	bbbbbbbb 	bllt	cef146a0 <_start-0x110b970>
d00257b0:	bbbbbbbb 	bllt	cef146a4 <_start-0x110b96c>
d00257b4:	bbbbbbbb 	bllt	cef146a8 <_start-0x110b968>
d00257b8:	aabbbbbf 	bge	cef146bc <_start-0x110b954>
d00257bc:	bbbbbbbb 	bllt	cef146b0 <_start-0x110b960>
d00257c0:	aaaabbbb 	bge	cead46b4 <_start-0x154b95c>
d00257c4:	aa8aaaaa 	bge	ce2d0274 <_start-0x1d4fd9c>
d00257c8:	00aaaaaa 	adceq	sl, sl, sl, lsr #21
	...
d00257d4:	ffff7701 	undefined instruction 0xffff7701
d00257d8:	ffffffff 	undefined instruction 0xffffffff
d00257dc:	ffffffff 	undefined instruction 0xffffffff
d00257e0:	ffffffff 	undefined instruction 0xffffffff
d00257e4:	ffffffff 	undefined instruction 0xffffffff
d00257e8:	ffffffff 	undefined instruction 0xffffffff
d00257ec:	ffffffff 	undefined instruction 0xffffffff
d00257f0:	ffffffff 	undefined instruction 0xffffffff
d00257f4:	ffffffff 	undefined instruction 0xffffffff
d00257f8:	ffffffff 	undefined instruction 0xffffffff
d00257fc:	ffffffff 	undefined instruction 0xffffffff
d0025800:	ffffffff 	undefined instruction 0xffffffff
d0025804:	ffffffff 	undefined instruction 0xffffffff
d0025808:	ffffffff 	undefined instruction 0xffffffff
d002580c:	1151f7ff 	ldrshne	pc, [r1, #-127]	; 0xffffff81
d0025810:	11000010 	tstne	r0, r0, lsl r0
d0025814:	00000010 	andeq	r0, r0, r0, lsl r0
d0025818:	00000000 	andeq	r0, r0, r0
d002581c:	22a00000 	adccs	r0, r0, #0
d0025820:	eaeeeaaa 	b	cfbe02d0 <_start-0x43fd40>
d0025824:	aaeaeaea 	bge	cfae03d4 <_start-0x53fc3c>
d0025828:	eaeaaaaa 	b	cfad02d8 <_start-0x54fd38>
d002582c:	eaeaeaea 	b	cfae03dc <_start-0x53fc34>
d0025830:	faebeaea 	blx	cfb203e0 <_start-0x4ffc30>
d0025834:	eaeaeaea 	b	cfae03e4 <_start-0x53fc2c>
d0025838:	aaaaaaaa 	bge	cead02e8 <_start-0x154fd28>
d002583c:	aaeaaaaa 	bge	cfad02ec <_start-0x54fd24>
d0025840:	eaaaaaaa 	b	cead02f0 <_start-0x154fd20>
d0025844:	aaeaaaaa 	bge	cfad02f4 <_start-0x54fd1c>
d0025848:	eeeeeeae 	cdp	14, 14, cr14, cr14, cr14, {5}
d002584c:	aaeeeaee 	bge	cfbe040c <_start-0x43fc04>
d0025850:	aaaaaaaa 	bge	cead0300 <_start-0x154fd10>
d0025854:	aaaaaaea 	bge	cead0404 <_start-0x154fc0c>
d0025858:	aaaaaaaa 	bge	cead0308 <_start-0x154fd08>
d002585c:	aaaaaaaa 	bge	cead030c <_start-0x154fd04>
d0025860:	000000aa 	andeq	r0, r0, sl, lsr #1
d0025864:	00000000 	andeq	r0, r0, r0
d0025868:	df074000 	svcle	0x00074000
d002586c:	ffffffff 	undefined instruction 0xffffffff
d0025870:	ffffffff 	undefined instruction 0xffffffff
d0025874:	ffffffff 	undefined instruction 0xffffffff
d0025878:	ffffffff 	undefined instruction 0xffffffff
d002587c:	ffffffff 	undefined instruction 0xffffffff
d0025880:	ffffffff 	undefined instruction 0xffffffff
d0025884:	ffffffff 	undefined instruction 0xffffffff
d0025888:	ffffffff 	undefined instruction 0xffffffff
d002588c:	ffffffff 	undefined instruction 0xffffffff
d0025890:	ffffffff 	undefined instruction 0xffffffff
d0025894:	ffffffff 	undefined instruction 0xffffffff
d0025898:	ffffffff 	undefined instruction 0xffffffff
d002589c:	ffffffff 	undefined instruction 0xffffffff
d00258a0:	dcffffff 	ldclle	15, cr15, [pc], #1020	; 0x3fc
d00258a4:	00000040 	andeq	r0, r0, r0, asr #32
	...
d00258b4:	bbab8a80 	bllt	ceb082bc <_start-0x1517d54>
d00258b8:	bbbbfbfb 	bllt	cef248ac <_start-0x10fb764>
d00258bc:	bbaaabbb 	bllt	cead07b0 <_start-0x154f860>
d00258c0:	bbbbbbbb 	bllt	cef147b4 <_start-0x110b85c>
d00258c4:	bbbbbbbb 	bllt	cef147b8 <_start-0x110b858>
d00258c8:	bbbbfbbe 	bllt	cef247c8 <_start-0x10fb848>
d00258cc:	ababbbbb 	blge	ceb147c0 <_start-0x150b850>
d00258d0:	abbbabbb 	blge	cef107c4 <_start-0x110f84c>
d00258d4:	bbbbbbab 	bllt	cef14788 <_start-0x110b888>
d00258d8:	bbbbbbbb 	bllt	cef147cc <_start-0x110b844>
d00258dc:	bbbbbbbb 	bllt	cef147d0 <_start-0x110b840>
d00258e0:	fbfbbbfb 	blx	cff148d6 <_start-0x10b73a>
d00258e4:	ababbbbb 	blge	ceb147d8 <_start-0x150b838>
d00258e8:	abbbbbab 	blge	cef1479c <_start-0x110b874>
d00258ec:	a8aaaabb 	stmiage	sl!, {r0, r1, r3, r4, r5, r7, r9, fp, sp, pc}
d00258f0:	a888a8aa 	stmge	r8, {r1, r3, r5, r7, fp, sp, pc}
d00258f4:	008888a8 	addeq	r8, r8, r8, lsr #17
	...
d0025900:	ffffff1f 	undefined instruction 0xffffff1f
d0025904:	ffffffff 	undefined instruction 0xffffffff
d0025908:	ffffffff 	undefined instruction 0xffffffff
d002590c:	ffffffff 	undefined instruction 0xffffffff
d0025910:	ffffffff 	undefined instruction 0xffffffff
d0025914:	ffffffff 	undefined instruction 0xffffffff
d0025918:	ffffffff 	undefined instruction 0xffffffff
d002591c:	ffffffff 	undefined instruction 0xffffffff
d0025920:	ffffffff 	undefined instruction 0xffffffff
d0025924:	ffffffff 	undefined instruction 0xffffffff
d0025928:	ffffffff 	undefined instruction 0xffffffff
d002592c:	ffffffff 	undefined instruction 0xffffffff
d0025930:	ffffffff 	undefined instruction 0xffffffff
d0025934:	ffffffff 	undefined instruction 0xffffffff
d0025938:	000151ff 	strdeq	r5, [r1], -pc
	...
d0025948:	2a800200 	bcs	ce026150 <_start-0x1ff9ec0>
d002594c:	eeeeaeaa 	cdp	14, 14, cr10, cr14, cr10, {5}
d0025950:	aaeaaeee 	bge	cfad1510 <_start-0x54eb00>
d0025954:	aeaaaaaa 	vfmage.f32	s20, s21, s21
d0025958:	aeaeaeae 	cdpge	14, 10, cr10, cr14, cr14, {5}
d002595c:	eeaeaeae 	cdp	14, 10, cr10, cr14, cr14, {5}
d0025960:	aeeeeeae 	cdpge	14, 14, cr14, cr14, cr14, {5}
d0025964:	aaaaaaaa 	bge	cead0414 <_start-0x154fbfc>
d0025968:	aaaaaeaa 	bge	cead1418 <_start-0x154ebf8>
d002596c:	aeaaaeaa 	cdpge	14, 10, cr10, cr10, cr10, {5}
d0025970:	aeaeaeae 	cdpge	14, 10, cr10, cr14, cr14, {5}
d0025974:	eeeeaeee 	cdp	14, 14, cr10, cr14, cr14, {7}
d0025978:	aeeeeeee 	cdpge	14, 14, cr14, cr14, cr14, {7}
d002597c:	aaaaaaaa 	bge	cead042c <_start-0x154fbe4>
d0025980:	aaaaaaaa 	bge	cead0430 <_start-0x154fbe0>
d0025984:	a2aaaaaa 	adcge	sl, sl, #696320	; 0xaa000
d0025988:	a2aaaaaa 	adcge	sl, sl, #696320	; 0xaa000
d002598c:	000000a2 	andeq	r0, r0, r2, lsr #1
d0025990:	00000000 	andeq	r0, r0, r0
d0025994:	ff5f0000 	undefined instruction 0xff5f0000
d0025998:	ffffffff 	undefined instruction 0xffffffff
d002599c:	dfffffff 	svcle	0x00ffffff
d00259a0:	ffffffdf 	undefined instruction 0xffffffdf
d00259a4:	ffffffff 	undefined instruction 0xffffffff
d00259a8:	ffffffff 	undefined instruction 0xffffffff
d00259ac:	ffffffff 	undefined instruction 0xffffffff
d00259b0:	ffffffff 	undefined instruction 0xffffffff
d00259b4:	ffffffff 	undefined instruction 0xffffffff
d00259b8:	ffffffff 	undefined instruction 0xffffffff
d00259bc:	ffffffff 	undefined instruction 0xffffffff
d00259c0:	ffffffff 	undefined instruction 0xffffffff
d00259c4:	ffffffff 	undefined instruction 0xffffffff
d00259c8:	ffffffff 	undefined instruction 0xffffffff
d00259cc:	40ddffdf 	ldrsbmi	pc, [sp], #255	; 0xff
	...
d00259dc:	02000000 	andeq	r0, r0, #0
d00259e0:	bbbbaa00 	bllt	cef101e8 <_start-0x110fe28>
d00259e4:	bbbbbbbb 	bllt	cef148d8 <_start-0x110b738>
d00259e8:	aaaababa 	bge	cead44d8 <_start-0x154bb38>
d00259ec:	bbbbbbbb 	bllt	cef148e0 <_start-0x110b730>
d00259f0:	bbbbbbbb 	bllt	cef148e4 <_start-0x110b72c>
d00259f4:	bbbbbbbb 	bllt	cef148e8 <_start-0x110b728>
d00259f8:	bababbbb 	blt	ceed48ec <_start-0x114b724>
d00259fc:	bbbbbbaa 	bllt	cef148ac <_start-0x110b764>
d0025a00:	bbbbbbbb 	bllt	cef148f4 <_start-0x110b71c>
d0025a04:	bbbbbbbb 	bllt	cef148f8 <_start-0x110b718>
d0025a08:	bbbbbbbb 	bllt	cef148fc <_start-0x110b714>
d0025a0c:	bfbbbbbb 	svclt	0x00bbbbbb
d0025a10:	aababbbb 	bge	ceed4904 <_start-0x114b70c>
d0025a14:	abaabbaa 	blge	cead48c4 <_start-0x154b74c>
d0025a18:	8aaaaaaa 	bhi	cead04c8 <_start-0x154fb48>
d0025a1c:	88888888 	stmhi	r8, {r3, r7, fp, pc}
d0025a20:	00888888 	addeq	r8, r8, r8, lsl #17
d0025a24:	00000000 	andeq	r0, r0, r0
d0025a28:	01000000 	tsteq	r0, r0
d0025a2c:	ffffffff 	undefined instruction 0xffffffff
d0025a30:	ffffffff 	undefined instruction 0xffffffff
d0025a34:	ff7fffff 	undefined instruction 0xff7fffff
d0025a38:	ffffffff 	undefined instruction 0xffffffff
d0025a3c:	ffffffff 	undefined instruction 0xffffffff
d0025a40:	ffffffff 	undefined instruction 0xffffffff
d0025a44:	ffffffff 	undefined instruction 0xffffffff
d0025a48:	ffffffff 	undefined instruction 0xffffffff
d0025a4c:	ffffffff 	undefined instruction 0xffffffff
d0025a50:	ffffffff 	undefined instruction 0xffffffff
d0025a54:	ffffffff 	undefined instruction 0xffffffff
d0025a58:	ffffffff 	undefined instruction 0xffffffff
d0025a5c:	ffffffff 	undefined instruction 0xffffffff
d0025a60:	75ffffff 	ldrbvc	pc, [pc, #4095]!	; d0026a67 <gImage_pic+0x409b>
d0025a64:	00000055 	andeq	r0, r0, r5, asr r0
	...
d0025a74:	aa020200 	bge	d00a627c <bss_end+0x70cac>
d0025a78:	eaeaeaea 	b	cfae0628 <_start-0x53f9e8>
d0025a7c:	aaaaeaee 	bge	ceae063c <_start-0x153f9d4>
d0025a80:	aaaaaaaa 	bge	cead0530 <_start-0x154fae0>
d0025a84:	aaeaeaaa 	bge	cfae0534 <_start-0x53fadc>
d0025a88:	eaaaeaaa 	b	ceae0538 <_start-0x153fad8>
d0025a8c:	eaeaeeea 	b	cfae163c <_start-0x53e9d4>
d0025a90:	aaaaaaaa 	bge	cead0540 <_start-0x154fad0>
d0025a94:	aaaaaaaa 	bge	cead0544 <_start-0x154facc>
d0025a98:	aaaaaaaa 	bge	cead0548 <_start-0x154fac8>
d0025a9c:	aaeaaaaa 	bge	cfad054c <_start-0x54fac4>
d0025aa0:	eeeaeaaa 	vfma.f32	s29, s21, s21
d0025aa4:	eaeeeeee 	b	cfbe1664 <_start-0x43e9ac>
d0025aa8:	aaaaaaaa 	bge	cead0558 <_start-0x154fab8>
d0025aac:	aaaaaaaa 	bge	cead055c <_start-0x154fab4>
d0025ab0:	2aa0aaaa 	bcs	ce850560 <_start-0x17cfab0>
d0025ab4:	2022aaaa 	eorcs	sl, r2, sl, lsr #21
	...
d0025ac0:	dfdf0100 	svcle	0x00df0100
d0025ac4:	ffffffff 	undefined instruction 0xffffffff
d0025ac8:	ddfdffff 	ldclle	15, cr15, [sp, #1020]!	; 0x3fc
d0025acc:	ffffffdd 	undefined instruction 0xffffffdd
d0025ad0:	ffffffff 	undefined instruction 0xffffffff
d0025ad4:	ffffffff 	undefined instruction 0xffffffff
d0025ad8:	ffffffff 	undefined instruction 0xffffffff
d0025adc:	ffffffff 	undefined instruction 0xffffffff
d0025ae0:	ffffffff 	undefined instruction 0xffffffff
d0025ae4:	ffffffff 	undefined instruction 0xffffffff
d0025ae8:	ffffffff 	undefined instruction 0xffffffff
d0025aec:	ffffffff 	undefined instruction 0xffffffff
d0025af0:	ffffffff 	undefined instruction 0xffffffff
d0025af4:	fdffddff 	ldc2l	13, cr13, [pc, #1020]!	; 0x3fc
d0025af8:	00c4d5dd 	ldrdeq	sp, [r4], #93	; 0x5d
	...
d0025b08:	08000000 	stmdaeq	r0, {}
d0025b0c:	bbbbab83 	bllt	cef10920 <_start-0x110f6f0>
d0025b10:	bbbbbbbb 	bllt	cef14a04 <_start-0x110b60c>
d0025b14:	aaaaaaab 	bge	cead05c8 <_start-0x154fa48>
d0025b18:	bbbbabab 	bllt	cef109cc <_start-0x110f644>
d0025b1c:	bbbbbbbb 	bllt	cef14a10 <_start-0x110b600>
d0025b20:	fbbbbbbb 	blx	cef14a16 <_start-0x110b5fa>
d0025b24:	aaaabbbb 	bge	cead4a18 <_start-0x154b5f8>
d0025b28:	abababaa 	blge	ceb109d8 <_start-0x150f638>
d0025b2c:	bbbbabab 	bllt	cef109e0 <_start-0x110f630>
d0025b30:	bbbbbbbb 	bllt	cef14a24 <_start-0x110b5ec>
d0025b34:	bbbbbbbb 	bllt	cef14a28 <_start-0x110b5e8>
d0025b38:	fbbbfbbb 	blx	cef24a2e <_start-0x10fb5e2>
d0025b3c:	baabbbfb 	blt	ceb14b30 <_start-0x150b4e0>
d0025b40:	aaaaaaaa 	bge	cead05f0 <_start-0x154fa20>
d0025b44:	8888a8aa 	stmhi	r8, {r1, r3, r5, r7, fp, sp, pc}
d0025b48:	88888888 	stmhi	r8, {r3, r7, fp, pc}
d0025b4c:	00888888 	addeq	r8, r8, r8, lsl #17
d0025b50:	00000000 	andeq	r0, r0, r0
d0025b54:	07000000 	streq	r0, [r0, -r0]
d0025b58:	fff77fff 	undefined instruction 0xfff77fff
d0025b5c:	ffffffff 	undefined instruction 0xffffffff
d0025b60:	ff7ff7f7 	undefined instruction 0xff7ff7f7
d0025b64:	ffffffff 	undefined instruction 0xffffffff
d0025b68:	ffffffff 	undefined instruction 0xffffffff
d0025b6c:	ffffffff 	undefined instruction 0xffffffff
d0025b70:	ffffffff 	undefined instruction 0xffffffff
d0025b74:	ffffffff 	undefined instruction 0xffffffff
d0025b78:	ffffffff 	undefined instruction 0xffffffff
d0025b7c:	ffffffff 	undefined instruction 0xffffffff
d0025b80:	ffffffff 	undefined instruction 0xffffffff
d0025b84:	ffffffff 	undefined instruction 0xffffffff
d0025b88:	f7ffffff 	undefined instruction 0xf7ffffff
d0025b8c:	55f7ffff 	ldrbpl	pc, [r7, #4095]!	; 0xfff
d0025b90:	00000040 	andeq	r0, r0, r0, asr #32
	...
d0025ba0:	ae020800 	cdpge	8, 0, cr0, cr2, cr0, {0}
d0025ba4:	eeeeeaae 	vfma.f32	s29, s29, s29
d0025ba8:	aaaaaaae 	bge	cead0668 <_start-0x154f9a8>
d0025bac:	aaaaaaaa 	bge	cead065c <_start-0x154f9b4>
d0025bb0:	aeaeaeaa 	cdpge	14, 10, cr10, cr14, cr10, {5}
d0025bb4:	eeaeaeae 	cdp	14, 10, cr10, cr14, cr14, {5}
d0025bb8:	eeeeeeae 	cdp	14, 14, cr14, cr14, cr14, {5}
d0025bbc:	aaaaaaaa 	bge	cead066c <_start-0x154f9a4>
d0025bc0:	aaaaaaaa 	bge	cead0670 <_start-0x154f9a0>
d0025bc4:	aeaeaaaa 	vfmage.f32	s20, s29, s21
d0025bc8:	aeaeeeae 	cdpge	14, 10, cr14, cr14, cr14, {5}
d0025bcc:	eeeeeeae 	cdp	14, 14, cr14, cr14, cr14, {5}
d0025bd0:	eeeeeeee 	cdp	14, 14, cr14, cr14, cr14, {7}
d0025bd4:	aaaaaaaa 	bge	cead0684 <_start-0x154f98c>
d0025bd8:	aaaaaaaa 	bge	cead0688 <_start-0x154f988>
d0025bdc:	a2a2a2aa 	adcge	sl, r2, #-1610612726	; 0xa000000a
d0025be0:	000022a2 	andeq	r2, r0, r2, lsr #5
	...
d0025bec:	ff7d0600 	undefined instruction 0xff7d0600
d0025bf0:	ffffffff 	undefined instruction 0xffffffff
d0025bf4:	ddffffff 	ldclle	15, cr15, [pc, #1020]!	; 0x3fc
d0025bf8:	ffffdfdd 	undefined instruction 0xffffdfdd
d0025bfc:	ffffffff 	undefined instruction 0xffffffff
d0025c00:	ffffffff 	undefined instruction 0xffffffff
d0025c04:	ffffffff 	undefined instruction 0xffffffff
d0025c08:	ffffdfff 	undefined instruction 0xffffdfff
d0025c0c:	ffffffff 	undefined instruction 0xffffffff
d0025c10:	ffffffff 	undefined instruction 0xffffffff
d0025c14:	ffffffff 	undefined instruction 0xffffffff
d0025c18:	ffffffff 	undefined instruction 0xffffffff
d0025c1c:	ffffffff 	undefined instruction 0xffffffff
d0025c20:	ddddddff 	ldclle	13, cr13, [sp, #1020]	; 0x3fc
d0025c24:	000044dd 	ldrdeq	r4, [r0], -sp
	...
d0025c34:	08000000 	stmdaeq	r0, {}
d0025c38:	bbbbaa0a 	bllt	cef10468 <_start-0x110fba8>
d0025c3c:	babbbbbb 	blt	cef14b30 <_start-0x110b4e0>
d0025c40:	aaaaaaaa 	bge	cead06f0 <_start-0x154f920>
d0025c44:	bbbbaaaa 	bllt	cef106f4 <_start-0x110f91c>
d0025c48:	bbbbbbbb 	bllt	cef14b3c <_start-0x110b4d4>
d0025c4c:	bbbfbbba 	bllt	cf014b3c <_start-0x100b4d4>
d0025c50:	aaaabbbb 	bge	cead4b44 <_start-0x154b4cc>
d0025c54:	bbaaaaab 	bllt	cead0708 <_start-0x154f908>
d0025c58:	bbbbbbbb 	bllt	cef14b4c <_start-0x110b4c4>
d0025c5c:	bbbbbbbb 	bllt	cef14b50 <_start-0x110b4c0>
d0025c60:	bbbbbbbb 	bllt	cef14b54 <_start-0x110b4bc>
d0025c64:	bbbbbbbb 	bllt	cef14b58 <_start-0x110b4b8>
d0025c68:	babbbbbb 	blt	cef14b5c <_start-0x110b4b4>
d0025c6c:	aaaaaaaa 	bge	cead071c <_start-0x154f8f4>
d0025c70:	88888aaa 	stmhi	r8, {r1, r3, r5, r7, r9, fp, pc}
d0025c74:	88888888 	stmhi	r8, {r3, r7, fp, pc}
d0025c78:	00888888 	addeq	r8, r8, r8, lsl #17
d0025c7c:	00000000 	andeq	r0, r0, r0
d0025c80:	07000000 	streq	r0, [r0, -r0]
d0025c84:	ffffff77 	undefined instruction 0xffffff77
d0025c88:	ffffffff 	undefined instruction 0xffffffff
d0025c8c:	7f577dfd 	svcvc	0x00577dfd
d0025c90:	ffffff7f 	undefined instruction 0xffffff7f
d0025c94:	ffffffff 	undefined instruction 0xffffffff
d0025c98:	ffffffff 	undefined instruction 0xffffffff
d0025c9c:	ffffffff 	undefined instruction 0xffffffff
d0025ca0:	ffffffff 	undefined instruction 0xffffffff
d0025ca4:	ffffffff 	undefined instruction 0xffffffff
d0025ca8:	ffffffff 	undefined instruction 0xffffffff
d0025cac:	ffffffff 	undefined instruction 0xffffffff
d0025cb0:	ffffffff 	undefined instruction 0xffffffff
d0025cb4:	ffffffff 	undefined instruction 0xffffffff
d0025cb8:	105575ff 	ldrshne	r7, [r5], #-95	; 0xffffffa1
	...
d0025ccc:	aa0a0800 	bge	d02a7cd4 <bss_end+0x272704>
d0025cd0:	eeeaaaea 	vfms.f32	s21, s21, s21
d0025cd4:	aaaaaaaa 	bge	cead0784 <_start-0x154f88c>
d0025cd8:	aaaaaaaa 	bge	cead0788 <_start-0x154f888>
d0025cdc:	aaaaaaaa 	bge	cead078c <_start-0x154f884>
d0025ce0:	eaaeeaea 	b	cebe0890 <_start-0x143f780>
d0025ce4:	aaeaeeae 	bge	cfae17a4 <_start-0x53e86c>
d0025ce8:	eaaaaaaa 	b	cead0798 <_start-0x154f878>
d0025cec:	aaaaaaaa 	bge	cead079c <_start-0x154f874>
d0025cf0:	eaeaaaaa 	b	cfad07a0 <_start-0x54f870>
d0025cf4:	aaeeeaea 	bge	cfbe08a4 <_start-0x43f76c>
d0025cf8:	eeeeeeea 	cdp	14, 14, cr14, cr14, cr10, {7}
d0025cfc:	eeeeeeee 	cdp	14, 14, cr14, cr14, cr14, {7}
d0025d00:	aaaaaaea 	bge	cead08b0 <_start-0x154f760>
d0025d04:	aaaaaaaa 	bge	cead07b4 <_start-0x154f85c>
d0025d08:	20222222 	eorcs	r2, r2, r2, lsr #4
d0025d0c:	00000020 	andeq	r0, r0, r0, lsr #32
	...
d0025d18:	ffc70d00 	undefined instruction 0xffc70d00
d0025d1c:	ffffffff 	undefined instruction 0xffffffff
d0025d20:	ddddfdff 	ldclle	13, cr15, [sp, #1020]	; 0x3fc
d0025d24:	ffffdddd 	undefined instruction 0xffffdddd
d0025d28:	ffffffff 	undefined instruction 0xffffffff
d0025d2c:	ffffffff 	undefined instruction 0xffffffff
d0025d30:	fdffffff 	ldc2l	15, cr15, [pc, #1020]!	; 0x3fc
d0025d34:	fdfddddd 	ldc2l	13, cr13, [sp, #884]!	; 0x374
d0025d38:	ffffffff 	undefined instruction 0xffffffff
d0025d3c:	ffffffff 	undefined instruction 0xffffffff
d0025d40:	ffffffff 	undefined instruction 0xffffffff
d0025d44:	ffffffff 	undefined instruction 0xffffffff
d0025d48:	ffffffff 	undefined instruction 0xffffffff
d0025d4c:	ddddddfd 	ldclle	13, cr13, [sp, #1012]	; 0x3f4
d0025d50:	000040d4 	ldrdeq	r4, [r0], -r4
	...
d0025d5c:	00800000 	addeq	r0, r0, r0
d0025d60:	08000000 	stmdaeq	r0, {}
d0025d64:	abbbab8a 	blge	cef10b94 <_start-0x110f47c>
d0025d68:	bbbbabbb 	bllt	cef10c5c <_start-0x110f3b4>
d0025d6c:	aaaaaaaa 	bge	cead081c <_start-0x154f7f4>
d0025d70:	bbababaa 	bllt	ceb10c20 <_start-0x150f3f0>
d0025d74:	bbbbbbab 	bllt	cef14c28 <_start-0x110b3e8>
d0025d78:	fbbbfbbb 	blx	cef24c6e <_start-0x10fb3a2>
d0025d7c:	aaaabbfb 	bge	cead4d70 <_start-0x154b2a0>
d0025d80:	abaaaaaa 	blge	cead0830 <_start-0x154f7e0>
d0025d84:	abbbabab 	blge	cef10c38 <_start-0x110f3d8>
d0025d88:	bbbbbbbb 	bllt	cef14c7c <_start-0x110b394>
d0025d8c:	bbbbbbbb 	bllt	cef14c80 <_start-0x110b390>
d0025d90:	fbbbbbbb 	blx	cef14c86 <_start-0x110b38a>
d0025d94:	babbfbfb 	blt	cef24d88 <_start-0x10fb288>
d0025d98:	aaaaaaaa 	bge	cead0848 <_start-0x154f7c8>
d0025d9c:	888888a8 	stmhi	r8, {r3, r5, r7, fp, pc}
d0025da0:	80808888 	addhi	r8, r0, r8, lsl #17
d0025da4:	00808080 	addeq	r8, r0, r0, lsl #1
d0025da8:	00000000 	andeq	r0, r0, r0
d0025dac:	1f000000 	svcne	0x00000000
d0025db0:	ffffff5f 	undefined instruction 0xffffff5f
d0025db4:	f7ffffff 	undefined instruction 0xf7ffffff
d0025db8:	575577f7 	smmlsrpl	r5, r7, r7, r7
d0025dbc:	fffffff7 	undefined instruction 0xfffffff7
d0025dc0:	ffffffff 	undefined instruction 0xffffffff
d0025dc4:	ffffffff 	undefined instruction 0xffffffff
d0025dc8:	f7ffffff 	undefined instruction 0xf7ffffff
d0025dcc:	ffffff7f 	undefined instruction 0xffffff7f
d0025dd0:	ffffffff 	undefined instruction 0xffffffff
d0025dd4:	ffffffff 	undefined instruction 0xffffffff
d0025dd8:	ffffffff 	undefined instruction 0xffffffff
d0025ddc:	ffffffff 	undefined instruction 0xffffffff
d0025de0:	d7ffffff 	undefined instruction 0xd7ffffff
d0025de4:	0055d577 	subseq	sp, r5, r7, ror r5
	...
d0025df8:	ae2a0800 	cdpge	8, 2, cr0, cr10, cr0, {0}
d0025dfc:	aaaaaaaa 	bge	cead08ac <_start-0x154f764>
d0025e00:	aaaaeaee 	bge	ceae09c0 <_start-0x153f650>
d0025e04:	aaaaaaaa 	bge	cead08b4 <_start-0x154f75c>
d0025e08:	aeaaaeaa 	cdpge	14, 10, cr10, cr10, cr10, {5}
d0025e0c:	eeaeaeae 	cdp	14, 10, cr10, cr14, cr14, {5}
d0025e10:	aeeeeeae 	cdpge	14, 14, cr14, cr14, cr14, {5}
d0025e14:	aaaaaaaa 	bge	cead08c4 <_start-0x154f74c>
d0025e18:	aeaaaaaa 	vfmage.f32	s20, s21, s21
d0025e1c:	aaaaaaaa 	bge	cead08cc <_start-0x154f744>
d0025e20:	aeaeaeae 	cdpge	14, 10, cr10, cr14, cr14, {5}
d0025e24:	eeeeaeee 	cdp	14, 14, cr10, cr14, cr14, {7}
d0025e28:	eeeeeeee 	cdp	14, 14, cr14, cr14, cr14, {7}
d0025e2c:	aaaaaaea 	bge	cead09dc <_start-0x154f634>
d0025e30:	a2aaaaaa 	adcge	sl, sl, #696320	; 0xaa000
d0025e34:	000022a2 	andeq	r2, r0, r2, lsr #5
	...
d0025e44:	df5f0400 	svcle	0x005f0400
d0025e48:	fffffffd 	undefined instruction 0xfffffffd
d0025e4c:	ddddddff 	ldclle	13, cr13, [sp, #1020]	; 0x3fc
d0025e50:	dfdfdddd 	svcle	0x00dfdddd
d0025e54:	ffffffff 	undefined instruction 0xffffffff
d0025e58:	ffffffff 	undefined instruction 0xffffffff
d0025e5c:	ffffffff 	undefined instruction 0xffffffff
d0025e60:	dfdddddd 	svcle	0x00dddddd
d0025e64:	ffffffff 	undefined instruction 0xffffffff
d0025e68:	ffffffff 	undefined instruction 0xffffffff
d0025e6c:	ffffffff 	undefined instruction 0xffffffff
d0025e70:	ffffffff 	undefined instruction 0xffffffff
d0025e74:	ffffffff 	undefined instruction 0xffffffff
d0025e78:	dcddddfd 	ldclle	13, cr13, [sp], {253}	; 0xfd
d0025e7c:	00000040 	andeq	r0, r0, r0, asr #32
	...
d0025e8c:	08000000 	stmdaeq	r0, {}
d0025e90:	baabba2a 	blt	ceb14740 <_start-0x150b8d0>
d0025e94:	babbbabb 	blt	cef14988 <_start-0x110b688>
d0025e98:	aaaaaaaa 	bge	cead0948 <_start-0x154f6c8>
d0025e9c:	bbaaaaaa 	bllt	cead094c <_start-0x154f6c4>
d0025ea0:	bbbbbbaa 	bllt	cef14d50 <_start-0x110b2c0>
d0025ea4:	bbbbbbbb 	bllt	cef14d98 <_start-0x110b278>
d0025ea8:	aaaabbbb 	bge	cead4d9c <_start-0x154b274>
d0025eac:	aaaaaaaa 	bge	cead095c <_start-0x154f6b4>
d0025eb0:	bbbabbaa 	bllt	ceed4d60 <_start-0x114b2b0>
d0025eb4:	bbbbbbbb 	bllt	cef14da8 <_start-0x110b268>
d0025eb8:	bbbbbbbb 	bllt	cef14dac <_start-0x110b264>
d0025ebc:	bbbbbbbb 	bllt	cef14db0 <_start-0x110b260>
d0025ec0:	aababfbb 	bge	ceed5db4 <_start-0x114a25c>
d0025ec4:	aaaaaaaa 	bge	cead0974 <_start-0x154f69c>
d0025ec8:	888888a8 	stmhi	r8, {r3, r5, r7, fp, pc}
	...
d0025ed8:	05100000 	ldreq	r0, [r0]
d0025edc:	7f7dff7f 	svcvc	0x007dff7f
d0025ee0:	f5ffffff 	undefined instruction 0xf5ffffff
d0025ee4:	55557555 	ldrbpl	r7, [r5, #-1365]	; 0x555
d0025ee8:	ffffff55 	undefined instruction 0xffffff55
d0025eec:	ffffffff 	undefined instruction 0xffffffff
d0025ef0:	ffffffff 	undefined instruction 0xffffffff
d0025ef4:	77f5ffff 	undefined instruction 0x77f5ffff
d0025ef8:	ffffff7f 	undefined instruction 0xffffff7f
d0025efc:	ffffffff 	undefined instruction 0xffffffff
d0025f00:	ffffffff 	undefined instruction 0xffffffff
d0025f04:	ffffffff 	undefined instruction 0xffffffff
d0025f08:	ffffffff 	undefined instruction 0xffffffff
d0025f0c:	55fdffff 	ldrbpl	pc, [sp, #4095]!	; 0xfff
d0025f10:	00115575 	andseq	r5, r1, r5, ror r5
	...
d0025f24:	aa2a2800 	bge	d0aaff2c <bss_end+0xa7a95c>
d0025f28:	aaaaaaaa 	bge	cead09d8 <_start-0x154f638>
d0025f2c:	aaaaeaaa 	bge	ceae09dc <_start-0x153f634>
d0025f30:	aaaaaaaa 	bge	cead09e0 <_start-0x154f630>
d0025f34:	aaaaaaaa 	bge	cead09e4 <_start-0x154f62c>
d0025f38:	eaaeaaea 	b	cebd0ae8 <_start-0x144f528>
d0025f3c:	aaeaeeee 	bge	cfae1afc <_start-0x53e514>
d0025f40:	aaaaaaaa 	bge	cead09f0 <_start-0x154f620>
d0025f44:	aaaaaaaa 	bge	cead09f4 <_start-0x154f61c>
d0025f48:	aaaaaaaa 	bge	cead09f8 <_start-0x154f618>
d0025f4c:	eaeaeaaa 	b	cfae09fc <_start-0x53f614>
d0025f50:	eeeaeeea 	cdp	14, 14, cr14, cr10, cr10, {7}
d0025f54:	eeeeeeee 	cdp	14, 14, cr14, cr14, cr14, {7}
d0025f58:	aaaaaaea 	bge	cead0b08 <_start-0x154f508>
d0025f5c:	22aaaaaa 	adccs	sl, sl, #696320	; 0xaa000
d0025f60:	00000080 	andeq	r0, r0, r0, lsl #1
	...
d0025f70:	ff7f0c00 	undefined instruction 0xff7f0c00
d0025f74:	fffdfffc 	undefined instruction 0xfffdfffc
d0025f78:	5dd5ddff 	ldclpl	13, cr13, [r5, #1020]	; 0x3fc
d0025f7c:	dddd45d5 	cfldr64le	mvdx4, [sp, #852]	; 0x354
d0025f80:	fffffdff 	undefined instruction 0xfffffdff
d0025f84:	ffffffff 	undefined instruction 0xffffffff
d0025f88:	fdffffff 	ldc2l	15, cr15, [pc, #1020]!	; 0x3fc
d0025f8c:	ddddddd5 	ldclle	13, cr13, [sp, #852]	; 0x354
d0025f90:	ffffffdd 	undefined instruction 0xffffffdd
d0025f94:	ffffffff 	undefined instruction 0xffffffff
d0025f98:	ffffffff 	undefined instruction 0xffffffff
d0025f9c:	ffffffff 	undefined instruction 0xffffffff
d0025fa0:	ffffffff 	undefined instruction 0xffffffff
d0025fa4:	40ddd5fd 	ldrshmi	sp, [sp], #93	; 0x5d
d0025fa8:	c0000000 	andgt	r0, r0, r0
	...
d0025fb8:	88000000 	stmdahi	r0, {}
d0025fbc:	baabaa2a 	blt	ceb1086c <_start-0x150f7a4>
d0025fc0:	bbebfbbb 	bllt	cfb24eb4 <_start-0x4fb15c>
d0025fc4:	aaaaaaaa 	bge	cead0a74 <_start-0x154f59c>
d0025fc8:	aaaaaaaa 	bge	cead0a78 <_start-0x154f598>
d0025fcc:	bbbbabab 	bllt	cef10e80 <_start-0x110f190>
d0025fd0:	fbfbbabb 	blx	cff14ac6 <_start-0x10b54a>
d0025fd4:	aaaabbbb 	bge	cead4ec8 <_start-0x154b148>
d0025fd8:	aaaaaaaa 	bge	cead0a88 <_start-0x154f588>
d0025fdc:	ababbbaa 	blge	ceb14e8c <_start-0x150b184>
d0025fe0:	bbbbbbab 	bllt	cef14e94 <_start-0x110b17c>
d0025fe4:	bbbbbbbb 	bllt	cef14ed8 <_start-0x110b138>
d0025fe8:	fbbbbbbb 	blx	cef14ede <_start-0x110b132>
d0025fec:	aabbfbfb 	bge	cef24fe0 <_start-0x10fb030>
d0025ff0:	a8aaaaaa 	stmiage	sl!, {r1, r3, r5, r7, r9, fp, sp, pc}
d0025ff4:	80a88088 	adchi	r8, r8, r8, lsl #1
d0025ff8:	00008000 	andeq	r8, r0, r0
	...
d0026004:	37100000 	ldrcc	r0, [r0, -r0]
d0026008:	7ffedf7f 	svcvc	0x00fedf7f
d002600c:	f7ffffff 	undefined instruction 0xf7ffffff
d0026010:	55555555 	ldrbpl	r5, [r5, #-1365]	; 0x555
d0026014:	ffff7757 	undefined instruction 0xffff7757
d0026018:	ffffffff 	undefined instruction 0xffffffff
d002601c:	ffffffff 	undefined instruction 0xffffffff
d0026020:	5555ffff 	ldrbpl	pc, [r5, #-4095]	; 0xfff
d0026024:	ffff5757 	undefined instruction 0xffff5757
d0026028:	ffffffff 	undefined instruction 0xffffffff
d002602c:	ffffffff 	undefined instruction 0xffffffff
d0026030:	ffffffff 	undefined instruction 0xffffffff
d0026034:	ffffffff 	undefined instruction 0xffffffff
d0026038:	55f5ffff 	ldrbpl	pc, [r5, #4095]!	; 0xfff
d002603c:	00001155 	andeq	r1, r0, r5, asr r1
d0026040:	00003000 	andeq	r3, r0, r0
	...
d0026050:	ae2a2800 	cdpge	8, 2, cr2, cr10, cr0, {0}
d0026054:	eeaaaeaa 	cdp	14, 10, cr10, cr10, cr10, {5}
d0026058:	aaaaaaee 	bge	cead0c18 <_start-0x154f3f8>
d002605c:	aaaaaaaa 	bge	cead0b0c <_start-0x154f504>
d0026060:	aeaaaaaa 	vfmage.f32	s20, s21, s21
d0026064:	aaaeaeae 	bge	cebd1b24 <_start-0x144e4ec>
d0026068:	aaaeeeee 	bge	cebe1c28 <_start-0x143e3e8>
d002606c:	aaaaaaaa 	bge	cead0b1c <_start-0x154f4f4>
d0026070:	aaaaaaaa 	bge	cead0b20 <_start-0x154f4f0>
d0026074:	aaaaaaaa 	bge	cead0b24 <_start-0x154f4ec>
d0026078:	eeaeeeae 	cdp	14, 10, cr14, cr14, cr14, {5}
d002607c:	eeeeeeae 	cdp	14, 14, cr14, cr14, cr14, {5}
d0026080:	eeeeeeee 	cdp	14, 14, cr14, cr14, cr14, {7}
d0026084:	aaaaaaae 	bge	cead0b44 <_start-0x154f4cc>
d0026088:	0000a0aa 	andeq	sl, r0, sl, lsr #1
d002608c:	0000002a 	andeq	r0, r0, sl, lsr #32
	...
d002609c:	dfff1400 	svcle	0x00ff1400
d00260a0:	ffff7fdf 	undefined instruction 0xffff7fdf
d00260a4:	5d45ddff 	stclpl	13, cr13, [r5, #-1020]	; 0xfffffc04
d00260a8:	dd45c4c5 	cfstrdle	mvd12, [r5, #-788]	; 0xfffffcec
d00260ac:	ffffdffd 	undefined instruction 0xffffdffd
d00260b0:	ffffffff 	undefined instruction 0xffffffff
d00260b4:	ddffffff 	ldclle	15, cr15, [pc, #1020]!	; 0x3fc
d00260b8:	5d5545dd 	cfldr64pl	mvdx4, [r5, #-884]	; 0xfffffc8c
d00260bc:	ffffffdd 	undefined instruction 0xffffffdd
d00260c0:	ffffffff 	undefined instruction 0xffffffff
d00260c4:	ffffffff 	undefined instruction 0xffffffff
d00260c8:	ffffffff 	undefined instruction 0xffffffff
d00260cc:	ffffffff 	undefined instruction 0xffffffff
d00260d0:	40d4c5dd 	ldrsbmi	ip, [r4], #93	; 0x5d
d00260d4:	05000000 	streq	r0, [r0]
	...
d00260e4:	08000000 	stmdaeq	r0, {}
d00260e8:	aaaaba2a 	bge	cead4998 <_start-0x154b678>
d00260ec:	babbbbaa 	blt	cef14f9c <_start-0x110b074>
d00260f0:	aaaaaaaa 	bge	cead0ba0 <_start-0x154f470>
d00260f4:	baaaaaaa 	blt	cead0ba4 <_start-0x154f46c>
d00260f8:	bbbbbbaa 	bllt	cef14fa8 <_start-0x110b068>
d00260fc:	bbbbbbbb 	bllt	cef14ff0 <_start-0x110b020>
d0026100:	aaaababb 	bge	cead4bf4 <_start-0x154b41c>
d0026104:	aaaaaaaa 	bge	cead0bb4 <_start-0x154f45c>
d0026108:	bbabaaaa 	bllt	ceb10bb8 <_start-0x150f458>
d002610c:	bbbbbbbb 	bllt	cef15000 <_start-0x110b010>
d0026110:	bbbbbbbb 	bllt	cef15004 <_start-0x110b00c>
d0026114:	fbbbbbbb 	blx	cef1500a <_start-0x110b006>
d0026118:	aabbbfbb 	bge	cef1600c <_start-0x110a004>
d002611c:	00a8aaaa 	adceq	sl, r8, sl, lsr #21
d0026120:	a8008008 	stmdage	r0, {r3, pc}
	...
d0026130:	31000000 	tstcc	r0, r0
d0026134:	dfdfddff 	svcle	0x00dfddff
d0026138:	f5ffffff 	undefined instruction 0xf5ffffff
d002613c:	55555511 	ldrbpl	r5, [r5, #-1297]	; 0x511
d0026140:	f73d7715 	undefined instruction 0xf73d7715
d0026144:	ffffff7f 	undefined instruction 0xffffff7f
d0026148:	ffffffff 	undefined instruction 0xffffffff
d002614c:	5555ffff 	ldrbpl	pc, [r5, #-4095]	; 0xfff
d0026150:	7f775555 	svcvc	0x00775555
d0026154:	ffffffff 	undefined instruction 0xffffffff
d0026158:	ffffffff 	undefined instruction 0xffffffff
d002615c:	ffffffff 	undefined instruction 0xffffffff
d0026160:	ffffffff 	undefined instruction 0xffffffff
d0026164:	55fdffff 	ldrbpl	pc, [sp, #4095]!	; 0xfff
d0026168:	00000051 	andeq	r0, r0, r1, asr r0
d002616c:	00100000 	andseq	r0, r0, r0
	...
d002617c:	ea220a00 	b	d08a8984 <bss_end+0x8733b4>
d0026180:	aeeeaaaa 	vfmage.f32	s21, s29, s21
d0026184:	aaaaaaee 	bge	cead0d44 <_start-0x154f2cc>
d0026188:	aaaaaaaa 	bge	cead0c38 <_start-0x154f3d8>
d002618c:	aaaaaaaa 	bge	cead0c3c <_start-0x154f3d4>
d0026190:	aaeeaaaa 	bge	cfbd0c40 <_start-0x44f3d0>
d0026194:	aaaaaaea 	bge	cead0d44 <_start-0x154f2cc>
d0026198:	aaaaaaaa 	bge	cead0c48 <_start-0x154f3c8>
d002619c:	aaaaaaaa 	bge	cead0c4c <_start-0x154f3c4>
d00261a0:	aaaaaaaa 	bge	cead0c50 <_start-0x154f3c0>
d00261a4:	eaeaeaea 	b	cfae0d54 <_start-0x53f2bc>
d00261a8:	eaeaeaea 	b	cfae0d58 <_start-0x53f2b8>
d00261ac:	eeeeeeee 	cdp	14, 14, cr14, cr14, cr14, {7}
d00261b0:	aaaaaaea 	bge	cead0d60 <_start-0x154f2b0>
d00261b4:	00000080 	andeq	r0, r0, r0, lsl #1
d00261b8:	00000a00 	andeq	r0, r0, r0, lsl #20
	...
d00261c8:	9cff1104 	ldflse	f1, [pc], #16
d00261cc:	fffffdcd 	undefined instruction 0xfffffdcd
d00261d0:	5c44d4ff 	cfstrdpl	mvd13, [r4], {255}	; 0xff
d00261d4:	dd445455 	cfstrdle	mvd5, [r4, #-340]	; 0xfffffeac
d00261d8:	ffffdd5d 	undefined instruction 0xffffdd5d
d00261dc:	ffffffff 	undefined instruction 0xffffffff
d00261e0:	ddfdffff 	ldclle	15, cr15, [sp, #1020]!	; 0x3fc
d00261e4:	555544d4 	ldrbpl	r4, [r5, #-1236]	; 0x4d4
d00261e8:	fffddddd 	undefined instruction 0xfffddddd
d00261ec:	ffffffff 	undefined instruction 0xffffffff
d00261f0:	ffffffff 	undefined instruction 0xffffffff
d00261f4:	ffffffff 	undefined instruction 0xffffffff
d00261f8:	ffffffff 	undefined instruction 0xffffffff
d00261fc:	0040c5fd 	strdeq	ip, [r0], #-93	; 0xffffffa3
	...
d002620c:	00800000 	addeq	r0, r0, r0
d0026210:	0a000000 	beq	d0026218 <gImage_pic+0x384c>
d0026214:	aaaaaaab 	bge	cead0cc8 <_start-0x154f348>
d0026218:	fbbbbbab 	blx	cef150ce <_start-0x110af42>
d002621c:	aaaaaaaa 	bge	cead0ccc <_start-0x154f344>
d0026220:	aaaaaaaa 	bge	cead0cd0 <_start-0x154f340>
d0026224:	bbbbabaa 	bllt	cef110d4 <_start-0x110ef3c>
d0026228:	abbbabbb 	blge	cef1111c <_start-0x110eef4>
d002622c:	aaaaaaab 	bge	cead0ce0 <_start-0x154f330>
d0026230:	aaaaaaaa 	bge	cead0ce0 <_start-0x154f330>
d0026234:	bbabaaaa 	bllt	ceb10ce4 <_start-0x150f32c>
d0026238:	bbbbbbbb 	bllt	cef1512c <_start-0x110aee4>
d002623c:	bbbbbbbb 	bllt	cef15130 <_start-0x110aee0>
d0026240:	fbbbbbbb 	blx	cef15136 <_start-0x110aeda>
d0026244:	aafbfbfb 	bge	cff25238 <_start-0xfadd8>
d0026248:	0080a8aa 	addeq	sl, r0, sl, lsr #17
d002624c:	80808000 	addhi	r8, r0, r0
d0026250:	000080a8 	andeq	r8, r0, r8, lsr #1
	...
d002625c:	13040000 	movwne	r0, #16384	; 0x4000
d0026260:	7f4731f7 	svcvc	0x004731f7
d0026264:	f0ffffff 	undefined instruction 0xf0ffffff
d0026268:	55515511 	ldrbpl	r5, [r1, #-1297]	; 0x511
d002626c:	57557751 	undefined instruction 0x57557751
d0026270:	f7ffffff 	undefined instruction 0xf7ffffff
d0026274:	ffffffff 	undefined instruction 0xffffffff
d0026278:	5555f7ff 	ldrbpl	pc, [r5, #-2047]	; 0x7ff
d002627c:	77575511 	smmlavc	r7, r1, r5, r5
d0026280:	fffffff7 	undefined instruction 0xfffffff7
d0026284:	ffffffff 	undefined instruction 0xffffffff
d0026288:	ffffffff 	undefined instruction 0xffffffff
d002628c:	ffffffff 	undefined instruction 0xffffffff
d0026290:	45f7ffff 	ldrbmi	pc, [r7, #4095]!	; 0xfff
d0026294:	00000000 	andeq	r0, r0, r0
d0026298:	01000000 	tsteq	r0, r0
	...
d00262a8:	ee220a00 	vmul.f32	s0, s4, s0
d00262ac:	aaaaaaaa 	bge	cead0d5c <_start-0x154f2b4>
d00262b0:	aaaaaeae 	bge	cead1d70 <_start-0x154e2a0>
d00262b4:	aaaaaaaa 	bge	cead0d64 <_start-0x154f2ac>
d00262b8:	aaaaaaaa 	bge	cead0d68 <_start-0x154f2a8>
d00262bc:	eeaaaaae 	vfma.f32	s20, s21, s29
d00262c0:	aeaaaaea 	vfmsge.f32	s20, s21, s21
d00262c4:	aaaaaaaa 	bge	cead0d74 <_start-0x154f29c>
d00262c8:	aaaaaaaa 	bge	cead0d78 <_start-0x154f298>
d00262cc:	aeaeaaaa 	vfmage.f32	s20, s29, s21
d00262d0:	aeaeaeae 	cdpge	14, 10, cr10, cr14, cr14, {5}
d00262d4:	aeaeaeae 	cdpge	14, 10, cr10, cr14, cr14, {5}
d00262d8:	eeeeeeee 	cdp	14, 14, cr14, cr14, cr14, {7}
d00262dc:	a0aaaaee 	adcge	sl, sl, lr, ror #21
d00262e0:	00000000 	andeq	r0, r0, r0
d00262e4:	a0020000 	andge	r0, r2, r0
	...
d00262f4:	11e71104 	mvnne	r1, r4, lsl #2
d00262f8:	ffff9fc1 	undefined instruction 0xffff9fc1
d00262fc:	5400fcff 	strpl	pc, [r0], #-3327	; 0xcff
d0026300:	45405d5d 	strbmi	r5, [r0, #-3421]	; 0xd5d
d0026304:	ffff454d 	undefined instruction 0xffff454d
d0026308:	00c0ddff 	strdeq	sp, [r0], #223	; 0xdf
d002630c:	fd050000 	stc2	0, cr0, [r5]
d0026310:	554444d5 	strbpl	r4, [r4, #-1237]	; 0x4d5
d0026314:	ffdfdd5d 	undefined instruction 0xffdfdd5d
d0026318:	ffffffff 	undefined instruction 0xffffffff
d002631c:	ffffffff 	undefined instruction 0xffffffff
d0026320:	ffffffff 	undefined instruction 0xffffffff
d0026324:	ffffffff 	undefined instruction 0xffffffff
d0026328:	000044fd 	strdeq	r4, [r0], -sp
	...
d002633c:	0a000000 	beq	d0026344 <gImage_pic+0x3978>
d0026340:	aaaaaaaa 	bge	cead0df0 <_start-0x154f220>
d0026344:	bbbbbbbb 	bllt	cef15238 <_start-0x110add8>
d0026348:	aaaaaaaa 	bge	cead0df8 <_start-0x154f218>
d002634c:	aaaaaaaa 	bge	cead0dfc <_start-0x154f214>
d0026350:	babbaaaa 	blt	cef10e00 <_start-0x110f210>
d0026354:	bfaaa8aa 	svclt	0x00aaa8aa
d0026358:	aa8aa8fa 	bge	ce2d0748 <_start-0x1d4f8c8>
d002635c:	aaaaaaaa 	bge	cead0e0c <_start-0x154f204>
d0026360:	baaaaaaa 	blt	cead0e10 <_start-0x154f200>
d0026364:	bbbbbbbb 	bllt	cef15258 <_start-0x110adb8>
d0026368:	bbbbbbbb 	bllt	cef1525c <_start-0x110adb4>
d002636c:	bfbbbbbb 	svclt	0x00bbbbbb
d0026370:	aabbbfbf 	bge	cef16274 <_start-0x1109d9c>
d0026374:	000088a8 	andeq	r8, r0, r8, lsr #17
d0026378:	08880800 	stmeq	r8, {fp}
d002637c:	00800a00 	addeq	r0, r0, r0, lsl #20
	...
d0026388:	11010000 	tstne	r1, r0
d002638c:	ff5111f7 	undefined instruction 0xff5111f7
d0026390:	f4ffffff 	undefined instruction 0xf4ffffff
d0026394:	51550500 	cmppl	r5, r0, lsl #10
d0026398:	55d15551 	ldrbpl	r5, [r1, #1361]	; 0x551
d002639c:	c0ffff7f 	rscsgt	pc, pc, pc, ror pc
d00263a0:	ffffff7f 	undefined instruction 0xffffff7f
d00263a4:	111550ff 	ldrshne	r5, [r5, -pc]
d00263a8:	57551111 	smmlapl	r5, r1, r1, r1
d00263ac:	ffffff7f 	undefined instruction 0xffffff7f
d00263b0:	ffffffff 	undefined instruction 0xffffffff
d00263b4:	ffffffff 	undefined instruction 0xffffffff
d00263b8:	ffffffff 	undefined instruction 0xffffffff
d00263bc:	50fdffff 	ldrshtpl	pc, [sp], #255	; 0xff
	...
d00263c8:	00001001 	andeq	r1, r0, r1
	...
d00263d4:	ea2a0200 	b	d0aa6bdc <bss_end+0xa7160c>
d00263d8:	aaeaaaaa 	bge	cfad0e88 <_start-0x54f188>
d00263dc:	aaeaaaee 	bge	cfad0f9c <_start-0x54f074>
d00263e0:	aaaaaa2a 	bge	cead0c90 <_start-0x154f380>
d00263e4:	aaaaaaaa 	bge	cead0e94 <_start-0x154f17c>
d00263e8:	fea0aaaa 	cdp2	10, 10, cr10, cr0, cr10, {5}
d00263ec:	eeaaaaaa 	vfma.f32	s20, s21, s21
d00263f0:	aaaa82ee 	bge	ceac6fb0 <_start-0x1559060>
d00263f4:	aaaaaaaa 	bge	cead0ea4 <_start-0x154f16c>
d00263f8:	aaaaaaaa 	bge	cead0ea8 <_start-0x154f168>
d00263fc:	eeeaeaaa 	vfma.f32	s29, s21, s21
d0026400:	eaeaeaaa 	b	cfae0eb0 <_start-0x53f160>
d0026404:	eeeeeeea 	cdp	14, 14, cr14, cr14, cr10, {7}
d0026408:	00aaaaea 	adceq	sl, sl, sl, ror #21
	...
d0026414:	0000002a 	andeq	r0, r0, sl, lsr #32
	...
d0026420:	01f50100 	mvnseq	r0, r0, lsl #2
d0026424:	ffdfdfc5 	undefined instruction 0xffdfdfc5
d0026428:	0000fcff 	strdeq	pc, [r0], -pc
d002642c:	455cd445 	ldrbmi	sp, [ip, #-1093]	; 0x445
d0026430:	ffdd05c0 	undefined instruction 0xffdd05c0
d0026434:	0040e0fc 	strdeq	lr, [r0], #-12
d0026438:	ff050000 	undefined instruction 0xff050000
d002643c:	454040d0 	strbmi	r4, [r0, #-208]	; 0xd0
d0026440:	ffdddd55 	undefined instruction 0xffdddd55
d0026444:	ffffffff 	undefined instruction 0xffffffff
d0026448:	ffffffff 	undefined instruction 0xffffffff
d002644c:	ffffffff 	undefined instruction 0xffffffff
d0026450:	ffffffff 	undefined instruction 0xffffffff
d0026454:	0000c0fd 	strdeq	ip, [r0], -sp
d0026458:	00000000 	andeq	r0, r0, r0
d002645c:	04000000 	streq	r0, [r0]
d0026460:	00000040 	andeq	r0, r0, r0, asr #32
	...
d002646c:	ab8aaa88 	blge	ce2d0e94 <_start-0x1d4f17c>
d0026470:	fbbbabaa 	blx	cef11322 <_start-0x110ecee>
d0026474:	aa8a88ba 	bge	ce2c8764 <_start-0x1d578ac>
d0026478:	aaaaaaaa 	bge	cead0f28 <_start-0x154f0e8>
d002647c:	ababaaaa 	blge	ceb10f2c <_start-0x150f0e4>
d0026480:	880880e0 	stmdahi	r8, {r5, r6, r7, pc}
d0026484:	fe8b0080 	cdp2	0, 8, cr0, cr11, cr0, {4}
d0026488:	aaaaaaaa 	bge	cead0f38 <_start-0x154f0d8>
d002648c:	abaaaaaa 	blge	cead0f3c <_start-0x154f0d4>
d0026490:	bbbbbbbb 	bllt	cef15384 <_start-0x110ac8c>
d0026494:	bbbbbbbb 	bllt	cef15388 <_start-0x110ac88>
d0026498:	fbbbbbbb 	blx	cef1538e <_start-0x110ac82>
d002649c:	aabbfbfb 	bge	cef25490 <_start-0x10fab80>
d00264a0:	800080a8 	andhi	r8, r0, r8, lsr #1
d00264a4:	80808800 	addhi	r8, r0, r0, lsl #16
d00264a8:	aa808080 	bge	ce0466b0 <_start-0x1fd9960>
d00264ac:	00000080 	andeq	r0, r0, r0, lsl #1
d00264b0:	00000000 	andeq	r0, r0, r0
d00264b4:	01010000 	tsteq	r1, r0
d00264b8:	ff7787ff 	undefined instruction 0xff7787ff
d00264bc:	ffffff7f 	undefined instruction 0xffffff7f
d00264c0:	11550100 	cmpne	r5, r0, lsl #2
d00264c4:	01555555 	cmpeq	r5, r5, asr r5
d00264c8:	f0ffff77 	undefined instruction 0xf0ffff77
d00264cc:	ffff7f01 	undefined instruction 0xffff7f01
d00264d0:	917f0050 	cmnls	pc, r0, asr r0
d00264d4:	57551100 	ldrbpl	r1, [r5, -r0, lsl #2]
d00264d8:	ffffff57 	undefined instruction 0xffffff57
d00264dc:	ffffffff 	undefined instruction 0xffffffff
d00264e0:	ffffffff 	undefined instruction 0xffffffff
d00264e4:	ffffffff 	undefined instruction 0xffffffff
d00264e8:	40ffffff 	ldrshtmi	pc, [pc, #255]	; d00265ef <gImage_pic+0x3c23>
	...
d00264f4:	50010000 	andpl	r0, r1, r0
	...
d0026500:	aa880000 	bge	ce226508 <_start-0x1df9b08>
d0026504:	aeaeaaaa 	vfmage.f32	s20, s29, s21
d0026508:	a2eeaeee 	rscge	sl, lr, #3808	; 0xee0
d002650c:	aaaaaaa2 	bge	cead0f9c <_start-0x154f074>
d0026510:	aaaaaaaa 	bge	cead0fc0 <_start-0x154f050>
d0026514:	2aa0eeaa 	bcs	ce861fc4 <_start-0x17be04c>
d0026518:	aaaaaaaa 	bge	cead0fc8 <_start-0x154f048>
d002651c:	aaea0ba0 	bge	cfaa93a4 <_start-0x576c6c>
d0026520:	aaaaaaaa 	bge	cead0fd0 <_start-0x154f040>
d0026524:	aeaaaaaa 	vfmage.f32	s20, s21, s21
d0026528:	eeeeeeae 	cdp	14, 14, cr14, cr14, cr14, {5}
d002652c:	aeaeaeae 	cdpge	14, 10, cr10, cr14, cr14, {5}
d0026530:	eeeeeeee 	cdp	14, 14, cr14, cr14, cr14, {7}
d0026534:	00a2aaee 	adceq	sl, r2, lr, ror #21
d0026538:	02000000 	andeq	r0, r0, #0
d002653c:	00000000 	andeq	r0, r0, r0
d0026540:	aa2a0000 	bge	d0aa6548 <bss_end+0xa70f78>
	...
d002654c:	c4f80000 	ldrbtgt	r0, [r8]
d0026550:	ffffe71f 	undefined instruction 0xffffe71f
d0026554:	0100ffff 	strdeq	pc, [r0, -pc]
d0026558:	455d40c0 	ldrbmi	r4, [sp, #-192]	; 0xc0
d002655c:	dfdf0144 	svcle	0x00df0144
d0026560:	dfdd0dfc 	svcle	0x00dd0dfc
d0026564:	dcdddddf 	ldclle	13, cr13, [sp], {223}	; 0xdf
d0026568:	0400fc00 	streq	pc, [r0], #-3072	; 0xc00
d002656c:	dfdd5d04 	svcle	0x00dd5d04
d0026570:	ffffffff 	undefined instruction 0xffffffff
d0026574:	ffffffff 	undefined instruction 0xffffffff
d0026578:	ffffffff 	undefined instruction 0xffffffff
d002657c:	ffffffff 	undefined instruction 0xffffffff
d0026580:	0000c0fd 	strdeq	ip, [r0], -sp
	...
d0026598:	aaaab888 	bge	cead47c0 <_start-0x154b850>
d002659c:	bbbbabaa 	bllt	cef1144c <_start-0x110ebc4>
d00265a0:	aa88a8ba 	bge	ce250890 <_start-0x1dcf780>
d00265a4:	aaaaaaaa 	bge	cead1054 <_start-0x154efbc>
d00265a8:	a8abaa8a 	stmiage	fp!, {r1, r3, r7, r9, fp, sp, pc}
d00265ac:	aaaaaaba 	bge	cead109c <_start-0x154ef74>
d00265b0:	a8aaaaaa 	stmiage	sl!, {r1, r3, r5, r7, r9, fp, sp, pc}
d00265b4:	aaaaaaba 	bge	cead10a4 <_start-0x154ef6c>
d00265b8:	aaaaaaaa 	bge	cead1068 <_start-0x154efa8>
d00265bc:	bbbbbbbb 	bllt	cef154b0 <_start-0x110ab60>
d00265c0:	bbbbbbbb 	bllt	cef154b4 <_start-0x110ab5c>
d00265c4:	bfbbbbbb 	svclt	0x00bbbbbb
d00265c8:	aabbbbbf 	bge	cef154cc <_start-0x110ab44>
d00265cc:	000080a8 	andeq	r8, r0, r8, lsr #1
d00265d0:	08880800 	stmeq	r8, {fp}
d00265d4:	80000008 	andhi	r0, r0, r8
d00265d8:	00000808 	andeq	r0, r0, r8, lsl #16
	...
d00265e4:	f31d1170 	vbsl	<illegal reg q0.5>, <illegal reg q6.5>, q8
d00265e8:	ffffff7f 	undefined instruction 0xffffff7f
d00265ec:	111100c0 	tstne	r1, r0, asr #1
d00265f0:	00155541 	andseq	r5, r5, r1, asr #10
d00265f4:	ffc17f57 	undefined instruction 0xffc17f57
d00265f8:	f5f7ff77 	undefined instruction 0xf5f7ff77
d00265fc:	1f705575 	svcne	0x00705575
d0026600:	55551511 	ldrbpl	r1, [r5, #-1297]	; 0x511
d0026604:	ffffff77 	undefined instruction 0xffffff77
d0026608:	ffffffff 	undefined instruction 0xffffffff
d002660c:	ffffffff 	undefined instruction 0xffffffff
d0026610:	ffffffff 	undefined instruction 0xffffffff
d0026614:	50fdffff 	ldrshtpl	pc, [sp], #255	; 0xff
	...
d002662c:	aaa20000 	bge	ce8a6634 <_start-0x17799dc>
d0026630:	aaaaaaa2 	bge	cead10c0 <_start-0x154ef50>
d0026634:	a8eeeaee 	stmiage	lr!, {r1, r2, r3, r5, r6, r7, r9, fp, sp, lr, pc}^
d0026638:	aaaaaa2a 	bge	cead0ee8 <_start-0x154f128>
d002663c:	aaaaaaaa 	bge	cead10ec <_start-0x154ef24>
d0026640:	aaaa8aaa 	bge	ceac90f0 <_start-0x1556f20>
d0026644:	aaaaaaaa 	bge	cead10f4 <_start-0x154ef1c>
d0026648:	aa0eaaaa 	bge	d03d10f8 <bss_end+0x39bb28>
d002664c:	aaaaaaaa 	bge	cead10fc <_start-0x154ef14>
d0026650:	eaaaaaaa 	b	cead1100 <_start-0x154ef10>
d0026654:	aaeaeaea 	bge	cfae1204 <_start-0x53ee0c>
d0026658:	aaeaaaaa 	bge	cfad1108 <_start-0x54ef08>
d002665c:	eeeeeeee 	cdp	14, 14, cr14, cr14, cr14, {7}
d0026660:	00a0aaea 	adceq	sl, r0, sl, ror #21
	...
d0026678:	007c4000 	rsbseq	r4, ip, r0
d002667c:	ffdf591c 	undefined instruction 0xffdf591c
d0026680:	00c0ffff 	strdeq	pc, [r0], #255	; 0xff
d0026684:	5c044000 	stcpl	0, cr4, [r4], {0}
d0026688:	dd4d4044 	stclle	0, cr4, [sp, #-272]	; 0xfffffef0
d002668c:	ffdddd1d 	undefined instruction 0xffdddd1d
d0026690:	55ddddfd 	ldrbpl	sp, [sp, #3581]	; 0xdfd
d0026694:	04c001d5 	strbeq	r0, [r0], #469	; 0x1d5
d0026698:	dddd5544 	cfldr64le	mvdx5, [sp, #272]	; 0x110
d002669c:	ffffffff 	undefined instruction 0xffffffff
d00266a0:	ffffffff 	undefined instruction 0xffffffff
d00266a4:	ffffffff 	undefined instruction 0xffffffff
d00266a8:	ffffffff 	undefined instruction 0xffffffff
d00266ac:	0000c0fd 	strdeq	ip, [r0], -sp
	...
d00266bc:	00800080 	addeq	r0, r0, r0, lsl #1
d00266c0:	00000000 	andeq	r0, r0, r0
d00266c4:	aaa8aaa2 	bge	cea51154 <_start-0x15ceebc>
d00266c8:	fbfbaba8 	blx	cff11572 <_start-0x10ea9e>
d00266cc:	8a82a8bb 	bhi	ce0d09c0 <_start-0x1f4f650>
d00266d0:	aaaa8aaa 	bge	ceac9180 <_start-0x1556e90>
d00266d4:	aaaaaaaa 	bge	cead1184 <_start-0x154ee8c>
d00266d8:	abbbaaaa 	blge	cef11188 <_start-0x110ee88>
d00266dc:	aaaaaaaa 	bge	cead118c <_start-0x154ee84>
d00266e0:	aaaaaaa0 	bge	cead1168 <_start-0x154eea8>
d00266e4:	abaaaaaa 	blge	cead1194 <_start-0x154ee7c>
d00266e8:	bbbbbbbb 	bllt	cef155dc <_start-0x110aa34>
d00266ec:	bbabbbbb 	bllt	ceb155e0 <_start-0x150aa30>
d00266f0:	fbfbbbfb 	blx	cff156e6 <_start-0x10a92a>
d00266f4:	aabbfbfb 	bge	cef256e8 <_start-0x10fa928>
d00266f8:	000080a8 	andeq	r8, r0, r8, lsr #1
d00266fc:	80800000 	addhi	r0, r0, r0
d0026700:	80808080 	addhi	r8, r0, r0, lsl #1
d0026704:	00008080 	andeq	r8, r0, r0, lsl #1
d0026708:	00000000 	andeq	r0, r0, r0
d002670c:	11000000 	tstne	r0, r0
d0026710:	1c1f101f 	ldcne	0, cr1, [pc], {31}
d0026714:	ffffff5f 	undefined instruction 0xffffff5f
d0026718:	110000f0 	strdne	r0, [r0, r0]
d002671c:	50155501 	andspl	r5, r5, r1, lsl #10
d0026720:	57775751 	undefined instruction 0x57775751
d0026724:	d5ffff57 	ldrble	pc, [pc, #3927]!	; d0027683 <gImage_pic+0x4cb7>
d0026728:	50555555 	subspl	r5, r5, r5, asr r5
d002672c:	55115161 	ldrpl	r5, [r1, #-353]	; 0x161
d0026730:	fffff757 	undefined instruction 0xfffff757
d0026734:	ffffffff 	undefined instruction 0xffffffff
d0026738:	ffffffff 	undefined instruction 0xffffffff
d002673c:	ffffffff 	undefined instruction 0xffffffff
d0026740:	50ffffff 	ldrshtpl	pc, [pc, #255]	; d0026847 <gImage_pic+0x3e7b>
	...
d0026758:	ae2a0000 	cdpge	0, 2, cr0, cr10, cr0, {0}
d002675c:	aeaeae8a 	cdpge	14, 10, cr10, cr14, cr10, {4}
d0026760:	aaeaeeee 	bge	cfae2320 <_start-0x53dcf0>
d0026764:	a2aa2200 	adcge	r2, sl, #0
d0026768:	aaaaaaaa 	bge	cead1218 <_start-0x154edf8>
d002676c:	aaaa2aaa 	bge	ceab121c <_start-0x156edf4>
d0026770:	aaaaaeaa 	bge	cead2220 <_start-0x154ddf0>
d0026774:	2aa8aaaa 	bcs	cea51224 <_start-0x15cedec>
d0026778:	aaaaaaaa 	bge	cead1228 <_start-0x154ede8>
d002677c:	aeaaaaaa 	vfmage.f32	s20, s21, s21
d0026780:	aaeeaeee 	bge	cfbd2340 <_start-0x44dcd0>
d0026784:	aeaaaeaa 	cdpge	14, 10, cr10, cr10, cr10, {5}
d0026788:	eeeeeeee 	cdp	14, 14, cr14, cr14, cr14, {7}
d002678c:	00a0aaee 	adceq	sl, r0, lr, ror #21
	...
d00267a4:	041f0000 	ldreq	r0, [pc], #0	; d00267ac <gImage_pic+0x3de0>
d00267a8:	ff5f0e5f 	undefined instruction 0xff5f0e5f
d00267ac:	00fcffff 	ldrshteq	pc, [ip], #255	; 0xff
d00267b0:	05000400 	streq	r0, [r0, #-1024]	; 0x400
d00267b4:	c4054405 	strgt	r4, [r5], #-1029	; 0x405
d00267b8:	ffddd55d 	undefined instruction 0xffddd55d
d00267bc:	4554cdff 	ldrbmi	ip, [r4, #-3583]	; 0xdff
d00267c0:	451044d4 	ldrmi	r4, [r0, #-1236]	; 0x4d4
d00267c4:	dfdd454d 	svcle	0x00dd454d
d00267c8:	ffffffff 	undefined instruction 0xffffffff
d00267cc:	ffffffff 	undefined instruction 0xffffffff
d00267d0:	ffffffff 	undefined instruction 0xffffffff
d00267d4:	ffffffff 	undefined instruction 0xffffffff
d00267d8:	0000c0fd 	strdeq	ip, [r0], -sp
	...
d00267f0:	ab8aaa08 	blge	ce2d1018 <_start-0x1d4eff8>
d00267f4:	bbbbab8a 	bllt	cef11624 <_start-0x110e9ec>
d00267f8:	0888aabb 	stmeq	r8, {r0, r1, r3, r4, r5, r7, r9, fp, sp, pc}
d00267fc:	aaaaaa8a 	bge	cead122c <_start-0x154ede4>
d0026800:	aaaaaaaa 	bge	cead12b0 <_start-0x154ed60>
d0026804:	bebbaaaa 	cdplt	10, 11, cr10, cr11, cr10, {5}
d0026808:	aaaaaaaa 	bge	cead12b8 <_start-0x154ed58>
d002680c:	aaaa3aaa 	bge	ceab52bc <_start-0x156ad54>
d0026810:	bbaaaaaa 	bllt	cead12c0 <_start-0x154ed50>
d0026814:	bbbbbbbb 	bllt	cef15708 <_start-0x110a908>
d0026818:	bbbbbbbb 	bllt	cef1570c <_start-0x110a904>
d002681c:	bbbfbbbb 	bllt	cf015710 <_start-0x100a900>
d0026820:	aabbbbbb 	bge	cef15714 <_start-0x110a8fc>
d0026824:	000000a8 	andeq	r0, r0, r8, lsr #1
d0026828:	00880000 	addeq	r0, r8, r0
d002682c:	08080800 	stmdaeq	r8, {fp}
d0026830:	00000888 	andeq	r0, r0, r8, lsl #17
	...
d002683c:	c711c01f 	undefined instruction 0xc711c01f
d0026840:	ffffff17 	undefined instruction 0xffffff17
d0026844:	000000fc 	strdeq	r0, [r0], -ip
d0026848:	55510110 	ldrbpl	r0, [r1, #-272]	; 0x110
d002684c:	55757755 	ldrbpl	r7, [r5, #-1877]!	; 0x755
d0026850:	40fdff57 	rscsmi	pc, sp, r7, asr pc
d0026854:	55551100 	ldrbpl	r1, [r5, #-256]	; 0x100
d0026858:	5515111d 	ldrpl	r1, [r5, #-285]	; 0x11d
d002685c:	ffff7f55 	undefined instruction 0xffff7f55
d0026860:	ffffffff 	undefined instruction 0xffffffff
d0026864:	ffffffff 	undefined instruction 0xffffffff
d0026868:	ffffffff 	undefined instruction 0xffffffff
d002686c:	50fdffff 	ldrshtpl	pc, [sp], #255	; 0xff
	...
d0026884:	aa020000 	bge	d00a688c <bss_end+0x712bc>
d0026888:	aaea2aa2 	bge	cfab1318 <_start-0x56ecf8>
d002688c:	eaeeeeee 	b	cfbe244c <_start-0x43dbc4>
d0026890:	aaaa02a0 	bge	ceaa7318 <_start-0x1578cf8>
d0026894:	aaaaaaaa 	bge	cead1344 <_start-0x154eccc>
d0026898:	aaaa2aaa 	bge	ceab1348 <_start-0x156ecc8>
d002689c:	aaaaaaaa 	bge	cead134c <_start-0x154ecc4>
d00268a0:	8aaaaaaa 	bhi	cead1350 <_start-0x154ecc0>
d00268a4:	aaaaaaaa 	bge	cead1354 <_start-0x154ecbc>
d00268a8:	aaaaaaaa 	bge	cead1358 <_start-0x154ecb8>
d00268ac:	aaeaeaea 	bge	cfae145c <_start-0x53ebb4>
d00268b0:	eaeaeaaa 	b	cfae1360 <_start-0x53ecb0>
d00268b4:	eeeeeeee 	cdp	14, 14, cr14, cr14, cr14, {7}
d00268b8:	00a0aaea 	adceq	sl, r0, sl, ror #21
	...
d00268d0:	c05d0000 	subsgt	r0, sp, r0
d00268d4:	ffdfc51c 	undefined instruction 0xffdfc51c
d00268d8:	00fcffff 	ldrshteq	pc, [ip], #255	; 0xff
d00268dc:	00000000 	andeq	r0, r0, r0
d00268e0:	45044044 	strmi	r4, [r4, #-68]	; 0x44
d00268e4:	44000000 	strmi	r0, [r0]
d00268e8:	5544c005 	strbpl	ip, [r4, #-5]
d00268ec:	440450d4 	strmi	r5, [r4], #-212	; 0xd4
d00268f0:	ddd55d45 	ldclle	13, cr5, [r5, #276]	; 0x114
d00268f4:	ffffffff 	undefined instruction 0xffffffff
d00268f8:	ffffffff 	undefined instruction 0xffffffff
d00268fc:	ffffffff 	undefined instruction 0xffffffff
d0026900:	ffffffff 	undefined instruction 0xffffffff
d0026904:	0000c0fd 	strdeq	ip, [r0], -sp
	...
d0026918:	80008000 	andhi	r8, r0, r0
d002691c:	8aa8aa02 	bhi	cea5112c <_start-0x15ceee4>
d0026920:	fbbbbaaa 	blx	cef153d2 <_start-0x110ac3e>
d0026924:	8888bafb 	stmhi	r8, {r0, r1, r3, r4, r5, r6, r7, r9, fp, ip, sp, pc}
d0026928:	aa8aa8aa 	bge	ce2d0bd8 <_start-0x1d4f438>
d002692c:	a8aaaaa8 	stmiage	sl!, {r3, r5, r7, r9, fp, sp, pc}
d0026930:	aaaa8888 	bge	ceac8b58 <_start-0x15574b8>
d0026934:	aaaaaaaa 	bge	cead13e4 <_start-0x154ec2c>
d0026938:	aaaa8aaa 	bge	ceac93e8 <_start-0x1556c28>
d002693c:	abaaaaaa 	blge	cead13ec <_start-0x154ec24>
d0026940:	bbbbbbbb 	bllt	cef15834 <_start-0x110a7dc>
d0026944:	bbbbbbbb 	bllt	cef15838 <_start-0x110a7d8>
d0026948:	bbbbbbab 	bllt	cef157fc <_start-0x110a814>
d002694c:	aabbfbfb 	bge	cef25940 <_start-0x10fa6d0>
d0026950:	000000a8 	andeq	r0, r0, r8, lsr #1
d0026954:	80888000 	addhi	r8, r8, r0
d0026958:	80008080 	andhi	r8, r0, r0, lsl #1
d002695c:	00008080 	andeq	r8, r0, r0, lsl #1
d0026960:	00000000 	andeq	r0, r0, r0
d0026964:	01000000 	tsteq	r0, r0
d0026968:	714cf01f 	cmppvc	ip, pc, lsl r0
d002696c:	fffffffd 	undefined instruction 0xfffffffd
d0026970:	010000ff 	strdeq	r0, [r0, -pc]
d0026974:	55110100 	ldrpl	r0, [r1, #-256]	; 0x100
d0026978:	00107317 	andseq	r7, r0, r7, lsl r3
d002697c:	71155701 	tstvc	r5, r1, lsl #14
d0026980:	51555511 	cmppl	r5, r1, lsl r5
d0026984:	55515143 	ldrbpl	r5, [r1, #-323]	; 0x143
d0026988:	ffff5d57 	undefined instruction 0xffff5d57
d002698c:	ffffffff 	undefined instruction 0xffffffff
d0026990:	ffffffff 	undefined instruction 0xffffffff
d0026994:	ffffffff 	undefined instruction 0xffffffff
d0026998:	50f7ffff 	ldrshtpl	pc, [r7], #255	; 0xff
	...
d00269b0:	aa020000 	bge	d00a69b8 <bss_end+0x713e8>
d00269b4:	aeaaaeaa 	cdpge	14, 10, cr10, cr10, cr10, {5}
d00269b8:	eaaeeeea 	b	cebe2568 <_start-0x143daa8>
d00269bc:	a20a0aa2 	andge	r0, sl, #663552	; 0xa2000
d00269c0:	aaaaaaa2 	bge	cead1450 <_start-0x154ebc0>
d00269c4:	a2a2aaaa 	adcge	sl, r2, #696320	; 0xaa000
d00269c8:	aaaaaaaa 	bge	cead1478 <_start-0x154eb98>
d00269cc:	a2aaaaaa 	adcge	sl, sl, #696320	; 0xaa000
d00269d0:	aaaaaaaa 	bge	cead1480 <_start-0x154eb90>
d00269d4:	aaaaaaaa 	bge	cead1484 <_start-0x154eb8c>
d00269d8:	aaaaaeae 	bge	cead2498 <_start-0x154db78>
d00269dc:	aeaaaaae 	vfmage.f32	s20, s21, s29
d00269e0:	eeeeeeee 	cdp	14, 14, cr14, cr14, cr14, {7}
d00269e4:	00a0aaaa 	adceq	sl, r0, sl, lsr #21
	...
d00269fc:	f40f0000 	vst4.8	{d0-d3}, [pc], r0
d0026a00:	ff5f1c1e 	undefined instruction 0xff5f1c1e
d0026a04:	40ffffff 	ldrshtmi	pc, [pc, #255]	; d0026b0b <gImage_pic+0x413f>
d0026a08:	00000000 	andeq	r0, r0, r0
d0026a0c:	d1454404 	cmple	r5, r4, lsl #8
d0026a10:	55000000 	strpl	r0, [r0]
d0026a14:	0500f055 	streq	pc, [r0, #-85]	; 0x55
d0026a18:	dd414455 	cfstrdle	mvd4, [r1, #-340]	; 0xfffffeac
d0026a1c:	dd5d5d44 	ldclle	13, cr5, [sp, #-272]	; 0xfffffef0
d0026a20:	ffffffdd 	undefined instruction 0xffffffdd
d0026a24:	ffffffff 	undefined instruction 0xffffffff
d0026a28:	ffffffff 	undefined instruction 0xffffffff
d0026a2c:	ffffffff 	undefined instruction 0xffffffff
d0026a30:	000040dd 	ldrdeq	r4, [r0], -sp
	...
d0026a48:	aaaa8a00 	bge	ceac9250 <_start-0x1556dc0>
d0026a4c:	bbbbab8a 	bllt	cef1187c <_start-0x110e794>
d0026a50:	88a8bbbb 	stmiahi	r8!, {r0, r1, r3, r4, r5, r7, r8, r9, fp, ip, sp, pc}
d0026a54:	aa8a8888 	bge	ce2c8c7c <_start-0x1d57394>
d0026a58:	8aaaaaaa 	bhi	cead1508 <_start-0x154eb08>
d0026a5c:	aaaa8888 	bge	ceac8c84 <_start-0x155738c>
d0026a60:	aaaaaaa8 	bge	cead1508 <_start-0x154eb08>
d0026a64:	aaaaaaaa 	bge	cead1514 <_start-0x154eafc>
d0026a68:	aaaaaaaa 	bge	cead1518 <_start-0x154eaf8>
d0026a6c:	bbbbbbbb 	bllt	cef15960 <_start-0x110a6b0>
d0026a70:	bbbbbbbb 	bllt	cef15964 <_start-0x110a6ac>
d0026a74:	bbbbbbbb 	bllt	cef15968 <_start-0x110a6a8>
d0026a78:	aaaabbbb 	bge	cead596c <_start-0x154a6a4>
d0026a7c:	000000a8 	andeq	r0, r0, r8, lsr #1
d0026a80:	00080000 	andeq	r0, r8, r0
d0026a84:	00000000 	andeq	r0, r0, r0
d0026a88:	00000008 	andeq	r0, r0, r8
	...
d0026a94:	1f1ff007 	svcne	0x001ff007
d0026a98:	ffffff1f 	undefined instruction 0xffffff1f
d0026a9c:	0000d0ff 	strdeq	sp, [r0], -pc
d0026aa0:	15010000 	strne	r0, [r1]
d0026aa4:	00907115 	addseq	r7, r0, r5, lsl r1
d0026aa8:	f0551500 	undefined instruction 0xf0551500
d0026aac:	51551511 	cmppl	r5, r1, lsl r5
d0026ab0:	5555f551 	ldrbpl	pc, [r5, #-1361]	; 0x551
d0026ab4:	7f555555 	svcvc	0x00555555
d0026ab8:	ffffffff 	undefined instruction 0xffffffff
d0026abc:	ffffffff 	undefined instruction 0xffffffff
d0026ac0:	ffffffff 	undefined instruction 0xffffffff
d0026ac4:	50fdffff 	ldrshtpl	pc, [sp], #255	; 0xff
	...
d0026adc:	2a000000 	bcs	d0026ae4 <gImage_pic+0x4118>
d0026ae0:	aaaaaaa8 	bge	cead1588 <_start-0x154ea88>
d0026ae4:	eeeeeaae 	vfma.f32	s29, s29, s29
d0026ae8:	202000aa 	eorcs	r0, r0, sl, lsr #1
d0026aec:	aaaa2a22 	bge	ceab137c <_start-0x156ec94>
d0026af0:	22aa8aaa 	adccs	r8, sl, #696320	; 0xaa000
d0026af4:	aaa8aa2a 	bge	cea513a4 <_start-0x15cec6c>
d0026af8:	a8aaaaaa 	stmiage	sl!, {r1, r3, r5, r7, r9, fp, sp, pc}
d0026afc:	aaaaaaaa 	bge	cead15ac <_start-0x154ea64>
d0026b00:	aaaaaaaa 	bge	cead15b0 <_start-0x154ea60>
d0026b04:	aaaaaaaa 	bge	cead15b4 <_start-0x154ea5c>
d0026b08:	aaaaaaea 	bge	cead16b8 <_start-0x154e958>
d0026b0c:	eaeeeeee 	b	cfbe26cc <_start-0x43d944>
d0026b10:	00a0aaea 	adceq	sl, r0, sl, ror #21
	...
d0026b28:	fc010000 	stc2	0, cr0, [r1], {0}
d0026b2c:	df8fc747 	svcle	0x008fc747
d0026b30:	d0ffffff 	ldrshtle	pc, [pc, #255]	; d0026c37 <gImage_pic+0x426b>
d0026b34:	00000000 	andeq	r0, r0, r0
d0026b38:	d8550400 	ldmdale	r5, {sl}^
d0026b3c:	000000c0 	andeq	r0, r0, r0, asr #1
d0026b40:	0400f055 	streq	pc, [r0], #-85	; 0x55
d0026b44:	dd504454 	cfldrdle	mvd4, [r0, #-336]	; 0xfffffeb0
d0026b48:	ddddddd4 	ldclle	13, cr13, [sp, #848]	; 0x350
d0026b4c:	ffffffdd 	undefined instruction 0xffffffdd
d0026b50:	ffffffff 	undefined instruction 0xffffffff
d0026b54:	ffffffff 	undefined instruction 0xffffffff
d0026b58:	ffffffff 	undefined instruction 0xffffffff
d0026b5c:	0000c0dd 	ldrdeq	ip, [r0], -sp
	...
d0026b6c:	00800000 	addeq	r0, r0, r0
d0026b70:	00000080 	andeq	r0, r0, r0, lsl #1
d0026b74:	abaa8a00 	blge	ceac937c <_start-0x1556c94>
d0026b78:	fbababab 	blx	ceb11a2e <_start-0x150e5e2>
d0026b7c:	88a8bbfb 	stmiahi	r8!, {r0, r1, r3, r4, r5, r6, r7, r8, r9, fp, ip, sp, pc}
d0026b80:	8a888a88 	bhi	ce2495a8 <_start-0x1dd6a68>
d0026b84:	8aa8aaaa 	bhi	cea51634 <_start-0x15ce9dc>
d0026b88:	aa8888a8 	bge	ce248e30 <_start-0x1dd71e0>
d0026b8c:	aaaaaaa8 	bge	cead1634 <_start-0x154e9dc>
d0026b90:	aaaaa8aa 	bge	cead0e40 <_start-0x154f1d0>
d0026b94:	aaaaaaaa 	bge	cead1644 <_start-0x154e9cc>
d0026b98:	bbbbabaa 	bllt	cef11a48 <_start-0x110e5c8>
d0026b9c:	bbbbbbab 	bllt	cef15a50 <_start-0x110a5c0>
d0026ba0:	bbbbabab 	bllt	cef11a54 <_start-0x110e5bc>
d0026ba4:	aaaabbbb 	bge	cead5a98 <_start-0x154a578>
d0026ba8:	008000a0 	addeq	r0, r0, r0, lsr #1
d0026bac:	80880000 	addhi	r0, r8, r0
d0026bb0:	00808080 	addeq	r8, r0, r0, lsl #1
d0026bb4:	00000080 	andeq	r0, r0, r0, lsl #1
	...
d0026bc0:	f111fe01 	undefined instruction 0xf111fe01
d0026bc4:	ffffffc3 	undefined instruction 0xffffffc3
d0026bc8:	0000f0ff 	strdeq	pc, [r0], -pc
d0026bcc:	45000001 	strmi	r0, [r0, #-1]
d0026bd0:	00405c55 	subeq	r5, r0, r5, asr ip
d0026bd4:	78150000 	ldmdavc	r5, {}
d0026bd8:	51551501 	cmppl	r5, r1, lsl #10
d0026bdc:	f75f5754 	undefined instruction 0xf75f5754
d0026be0:	ffffffff 	undefined instruction 0xffffffff
d0026be4:	ffffffff 	undefined instruction 0xffffffff
d0026be8:	ffffffff 	undefined instruction 0xffffffff
d0026bec:	ffffffff 	undefined instruction 0xffffffff
d0026bf0:	40f7ffff 	ldrshtmi	pc, [r7], #255	; 0xff
	...
d0026c08:	02000000 	andeq	r0, r0, #0
d0026c0c:	aaaa2aae 	bge	ceab16cc <_start-0x156e944>
d0026c10:	eeaeeeae 	cdp	14, 10, cr14, cr14, cr14, {5}
d0026c14:	2202a0ea 	andcs	sl, r2, #234	; 0xea
d0026c18:	aaa22a82 	bge	ce8b1628 <_start-0x176e9e8>
d0026c1c:	aaaaaaaa 	bge	cead16cc <_start-0x154e944>
d0026c20:	2aaaa2aa 	bcs	ceacf6d0 <_start-0x1550940>
d0026c24:	aaaaaaaa 	bge	cead16d4 <_start-0x154e93c>
d0026c28:	aaaaaaea 	bge	cead17d8 <_start-0x154e838>
d0026c2c:	aaaaaaaa 	bge	cead16dc <_start-0x154e934>
d0026c30:	aeaaaeae 	cdpge	14, 10, cr10, cr10, cr14, {5}
d0026c34:	aeaaaaae 	vfmage.f32	s20, s21, s29
d0026c38:	aeeeeeae 	cdpge	14, 14, cr14, cr14, cr14, {5}
d0026c3c:	00a0aaaa 	adceq	sl, r0, sl, lsr #21
	...
d0026c54:	7f000000 	svcvc	0x00000000
d0026c58:	ff71f404 	undefined instruction 0xff71f404
d0026c5c:	fcffffff 	ldc2l	15, cr15, [pc], #1020	; 0x3fc
d0026c60:	00000000 	andeq	r0, r0, r0
d0026c64:	5c450000 	marpl	acc0, r0, r5
d0026c68:	00000060 	andeq	r0, r0, r0, rrx
d0026c6c:	45000400 	strmi	r0, [r0, #-1024]	; 0x400
d0026c70:	7d445d5d 	stclvc	13, cr5, [r4, #-372]	; 0xfffffe8c
d0026c74:	ffffffdf 	undefined instruction 0xffffffdf
d0026c78:	ffffdfff 	undefined instruction 0xffffdfff
d0026c7c:	ffffffff 	undefined instruction 0xffffffff
d0026c80:	ffffffff 	undefined instruction 0xffffffff
d0026c84:	ddffffff 	ldclle	15, cr15, [pc, #1020]!	; 0x3fc
d0026c88:	0000c0dd 	ldrdeq	ip, [r0], -sp
	...
d0026ca0:	8aab0200 	bhi	ceae74a8 <_start-0x1538b68>
d0026ca4:	bbbbbaaa 	bllt	cef15754 <_start-0x110a8bc>
d0026ca8:	88babfbb 	ldmhi	sl!, {r0, r1, r3, r4, r5, r7, r8, r9, sl, fp, ip, sp, pc}
d0026cac:	8a888888 	bhi	ce248ed4 <_start-0x1dd713c>
d0026cb0:	aaaaaaa8 	bge	cead1758 <_start-0x154e8b8>
d0026cb4:	88888888 	stmhi	r8, {r3, r7, fp, pc}
d0026cb8:	aaaaaa8a 	bge	cead16e8 <_start-0x154e928>
d0026cbc:	abaaaaaa 	blge	cead176c <_start-0x154e8a4>
d0026cc0:	bababbbb 	blt	ceed5bb4 <_start-0x114a45c>
d0026cc4:	babbaaaa 	blt	cef11774 <_start-0x110e89c>
d0026cc8:	bbbbbbbb 	bllt	cef15bbc <_start-0x110a454>
d0026ccc:	bbbbbbba 	bllt	cef15bbc <_start-0x110a454>
d0026cd0:	aaaabbbb 	bge	cead5bc4 <_start-0x154a44c>
d0026cd4:	000000a0 	andeq	r0, r0, r0, lsr #1
d0026cd8:	88080000 	stmdahi	r8, {}
	...
d0026cec:	7dc41f00 	stclvc	15, cr1, [r4]
d0026cf0:	ffffff1d 	undefined instruction 0xffffff1d
d0026cf4:	0000ffff 	strdeq	pc, [r0], -pc
d0026cf8:	00000000 	andeq	r0, r0, r0
d0026cfc:	00305715 	eorseq	r5, r0, r5, lsl r7
d0026d00:	00000000 	andeq	r0, r0, r0
d0026d04:	55751551 	ldrbpl	r1, [r5, #-1361]!	; 0x551
d0026d08:	ffff3f54 	undefined instruction 0xffff3f54
d0026d0c:	ffffffff 	undefined instruction 0xffffffff
d0026d10:	ffffffff 	undefined instruction 0xffffffff
d0026d14:	ffffffff 	undefined instruction 0xffffffff
d0026d18:	ffffffff 	undefined instruction 0xffffffff
d0026d1c:	40f5ffff 	ldrshtmi	pc, [r5], #255	; 0xff
	...
d0026d38:	aaaaa2aa 	bge	ceacf7e8 <_start-0x1550828>
d0026d3c:	eeeeeeaa 	cdp	14, 14, cr14, cr14, cr10, {5}
d0026d40:	0200a0ee 	andeq	sl, r0, #238	; 0xee
d0026d44:	aaaa02a0 	bge	ceaa77cc <_start-0x1578844>
d0026d48:	2aa02aaa 	bcs	ce8317f8 <_start-0x17ee818>
d0026d4c:	aaa82220 	bge	cea2f5d4 <_start-0x15f0a3c>
d0026d50:	aaaaaaaa 	bge	cead1800 <_start-0x154e810>
d0026d54:	eeeeee2a 	cdp	14, 14, cr14, cr14, cr10, {1}
d0026d58:	aaaaaaea 	bge	cead1908 <_start-0x154e708>
d0026d5c:	aaaaaaaa 	bge	cead180c <_start-0x154e804>
d0026d60:	aaaaaaea 	bge	cead1910 <_start-0x154e700>
d0026d64:	aaeaeaaa 	bge	cfae1814 <_start-0x53e7fc>
d0026d68:	00a0aaaa 	adceq	sl, r0, sl, lsr #21
	...
d0026d80:	05000000 	streq	r0, [r0]
d0026d84:	7f0c1cf0 	svcvc	0x000c1cf0
d0026d88:	ffffffff 	undefined instruction 0xffffffff
d0026d8c:	000000c0 	andeq	r0, r0, r0, asr #1
d0026d90:	55040000 	strpl	r0, [r4]
d0026d94:	00000018 	andeq	r0, r0, r8, lsl r0
d0026d98:	44400000 	strbmi	r0, [r0]
d0026d9c:	3fdcdd5d 	svccc	0x00dcdd5d
d0026da0:	ffffffff 	undefined instruction 0xffffffff
d0026da4:	ffffffff 	undefined instruction 0xffffffff
d0026da8:	ffffffff 	undefined instruction 0xffffffff
d0026dac:	fffffdff 	undefined instruction 0xfffffdff
d0026db0:	fdffffff 	ldc2l	15, cr15, [pc, #1020]!	; 0x3fc
d0026db4:	0000c0dd 	ldrdeq	ip, [r0], -sp
	...
d0026dc4:	80000000 	andhi	r0, r0, r0
d0026dc8:	00000000 	andeq	r0, r0, r0
d0026dcc:	a88a8000 	stmge	sl, {pc}
d0026dd0:	fbbbaaba 	blx	cef118c2 <_start-0x110e74e>
d0026dd4:	a8fbfbfb 	ldmge	fp!, {r0, r1, r3, r4, r5, r6, r7, r8, r9, fp, ip, sp, lr, pc}^
d0026dd8:	88808888 	stmhi	r0, {r3, r7, fp, pc}
d0026ddc:	88aa8aa8 	stmiahi	sl!, {r3, r5, r7, r9, fp, pc}
d0026de0:	88888888 	stmhi	r8, {r3, r7, fp, pc}
d0026de4:	aaaaaaaa 	bge	cead1894 <_start-0x154e77c>
d0026de8:	bb3baaaa 	bllt	d0f11898 <bss_end+0xedc2c8>
d0026dec:	bbfbfffb 	bllt	cff26de0 <_start-0xf9230>
d0026df0:	bbbbabab 	bllt	cef11ca4 <_start-0x110e36c>
d0026df4:	bbbbbbbb 	bllt	cef15ce8 <_start-0x110a328>
d0026df8:	bbababaa 	bllt	ceb11ca8 <_start-0x150e368>
d0026dfc:	aaaaaabb 	bge	cead18f0 <_start-0x154e720>
d0026e00:	00000080 	andeq	r0, r0, r0, lsl #1
d0026e04:	80008000 	andhi	r8, r0, r0
d0026e08:	80008080 	andhi	r8, r0, r0, lsl #1
	...
d0026e18:	1ffc0100 	svcne	0x00fc0100
d0026e1c:	ffffff03 	undefined instruction 0xffffff03
d0026e20:	00c0ffff 	strdeq	pc, [r0], #255	; 0xff
d0026e24:	10000000 	andne	r0, r0, r0
d0026e28:	009c1701 	addseq	r1, ip, r1, lsl #14
d0026e2c:	11000000 	tstne	r0, r0
d0026e30:	f7ff5711 	undefined instruction 0xf7ff5711
d0026e34:	ffff3f77 	undefined instruction 0xffff3f77
d0026e38:	ffffffff 	undefined instruction 0xffffffff
d0026e3c:	ffffffff 	undefined instruction 0xffffffff
d0026e40:	ffffffff 	undefined instruction 0xffffffff
d0026e44:	ffffffff 	undefined instruction 0xffffffff
d0026e48:	40d7ffff 	ldrshmi	pc, [r7], #255	; 0xff
	...
d0026e64:	a2aeaa02 	adcge	sl, lr, #8192	; 0x2000
d0026e68:	eeeaaeae 	cdp	14, 14, cr10, cr10, cr14, {5}
d0026e6c:	0202eaee 	andeq	lr, r2, #974848	; 0xee000
d0026e70:	aaaa2202 	bge	ceaaf680 <_start-0x1570990>
d0026e74:	02a28eaa 	adceq	r8, r2, #2720	; 0xaa0
d0026e78:	aaaaaa22 	bge	cead1708 <_start-0x154e908>
d0026e7c:	aaaaaaaa 	bge	cead192c <_start-0x154e6e4>
d0026e80:	eeeeee2e 	cdp	14, 14, cr14, cr14, cr14, {1}
d0026e84:	aaaaaaee 	bge	cead1a44 <_start-0x154e5cc>
d0026e88:	eeeeaeee 	cdp	14, 14, cr10, cr14, cr14, {7}
d0026e8c:	aaaaaaae 	bge	cead194c <_start-0x154e6c4>
d0026e90:	aaaaeeae 	bge	ceae2950 <_start-0x153d6c0>
d0026e94:	0080aaaa 	addeq	sl, r0, sl, lsr #21
	...
d0026eb0:	dfc1077f 	svcle	0x00c1077f
d0026eb4:	ffffffff 	undefined instruction 0xffffffff
d0026eb8:	000000f0 	strdeq	r0, [r0], r0
d0026ebc:	05000400 	streq	r0, [r0, #-1024]	; 0x400
d0026ec0:	000000c6 	andeq	r0, r0, r6, asr #1
d0026ec4:	5d000400 	cfstrspl	mvf0, [r0]
d0026ec8:	3fd4ddd7 	svccc	0x00d4ddd7
d0026ecc:	ffffffff 	undefined instruction 0xffffffff
d0026ed0:	ffffffff 	undefined instruction 0xffffffff
d0026ed4:	ffffffff 	undefined instruction 0xffffffff
d0026ed8:	ffffffff 	undefined instruction 0xffffffff
d0026edc:	dddfffff 	ldclle	15, cr15, [pc, #1020]	; 0x3fc
d0026ee0:	000080dd 	ldrdeq	r8, [r0], -sp
	...
d0026ef8:	ab000000 	blge	d0026f00 <gImage_pic+0x4534>
d0026efc:	bbbba8aa 	bllt	cef111ac <_start-0x110ee64>
d0026f00:	fabfbbbb 	blx	cf015df4 <_start-0x100a21c>
d0026f04:	88888888 	stmhi	r8, {r3, r7, fp, pc}
d0026f08:	aaaaaa8a 	bge	cead1938 <_start-0x154e6d8>
d0026f0c:	8a888808 	bhi	ce248f34 <_start-0x1dd70dc>
d0026f10:	aa8aaaaa 	bge	ce2d19c0 <_start-0x1d4e650>
d0026f14:	bbbbaaaa 	bllt	cef119c4 <_start-0x110e64c>
d0026f18:	bbfbffbf 	bllt	cff26e1c <_start-0xf91f4>
d0026f1c:	bbbbbbbb 	bllt	cef15e10 <_start-0x110a200>
d0026f20:	babbbbbb 	blt	cef15e14 <_start-0x110a1fc>
d0026f24:	bbbbaaaa 	bllt	cef119d4 <_start-0x110e63c>
d0026f28:	aaaaaabb 	bge	cead1a1c <_start-0x154e5f4>
d0026f2c:	00000080 	andeq	r0, r0, r0, lsl #1
d0026f30:	88080000 	stmdahi	r8, {}
d0026f34:	00080808 	andeq	r0, r8, r8, lsl #16
d0026f38:	00080000 	andeq	r0, r8, r0
	...
d0026f44:	f11f0000 	undefined instruction 0xf11f0000
d0026f48:	ffff1f50 	undefined instruction 0xffff1f50
d0026f4c:	00fcffff 	ldrshteq	pc, [ip], #255	; 0xff
d0026f50:	01000000 	tsteq	r0, r0
d0026f54:	00631555 	rsbeq	r1, r3, r5, asr r5
d0026f58:	01000000 	tsteq	r0, r0
d0026f5c:	f7fd1510 	undefined instruction 0xf7fd1510
d0026f60:	ffff7fdc 	undefined instruction 0xffff7fdc
d0026f64:	ffffffff 	undefined instruction 0xffffffff
d0026f68:	ffffffff 	undefined instruction 0xffffffff
d0026f6c:	ffffffff 	undefined instruction 0xffffffff
d0026f70:	ffffffff 	undefined instruction 0xffffffff
d0026f74:	0055f7ff 	ldrsheq	pc, [r5], #-127	; 0xffffff81
	...
d0026f90:	aaaa2a00 	bge	ceab1798 <_start-0x156e878>
d0026f94:	eeeeaa2a 	vfma.f32	s21, s28, s21
d0026f98:	00a0eeee 	adceq	lr, r0, lr, ror #29
d0026f9c:	aa82022a 	bge	ce0a784c <_start-0x1f787c4>
d0026fa0:	a8a2a2aa 	stmiage	r2!, {r1, r3, r5, r7, r9, sp, pc}
d0026fa4:	aaaa2220 	bge	ceaaf82c <_start-0x15707e4>
d0026fa8:	aaaaaaaa 	bge	cead1a58 <_start-0x154e5b8>
d0026fac:	eeeeeeee 	cdp	14, 14, cr14, cr14, cr14, {7}
d0026fb0:	aaaaeaee 	bge	ceae1b70 <_start-0x153e4a0>
d0026fb4:	eeeaeaee 	vfms.f32	s29, s21, s29
d0026fb8:	aaaaeaee 	bge	ceae1b78 <_start-0x153e498>
d0026fbc:	aaaaeaee 	bge	ceae1b7c <_start-0x153e494>
d0026fc0:	0080aaaa 	addeq	sl, r0, sl, lsr #21
	...
d0026fdc:	0fc4fd05 	svceq	0x00c4fd05
d0026fe0:	ffffffff 	undefined instruction 0xffffffff
d0026fe4:	000000ff 	strdeq	r0, [r0], -pc
d0026fe8:	00000000 	andeq	r0, r0, r0
d0026fec:	00008051 	andeq	r8, r0, r1, asr r0
d0026ff0:	45000000 	strmi	r0, [r0]
d0026ff4:	ff7cdfdd 	undefined instruction 0xff7cdfdd
d0026ff8:	ffffffff 	undefined instruction 0xffffffff
d0026ffc:	ffffffff 	undefined instruction 0xffffffff
d0027000:	ffffffff 	undefined instruction 0xffffffff
d0027004:	fffffdff 	undefined instruction 0xfffffdff
d0027008:	ddfdffff 	ldclle	15, cr15, [sp, #1020]!	; 0x3fc
d002700c:	000000d5 	ldrdeq	r0, [r0], -r5
	...
d0027020:	00000080 	andeq	r0, r0, r0, lsl #1
d0027024:	8a000000 	bhi	d002702c <gImage_pic+0x4660>
d0027028:	bb8baaab 	bllt	ce311adc <_start-0x1d0e534>
d002702c:	fbfbfbbb 	blx	cff25f22 <_start-0xfa0ee>
d0027030:	80808888 	addhi	r8, r0, r8, lsl #17
d0027034:	a8aaa888 	stmiage	sl!, {r3, r7, fp, sp, pc}
d0027038:	88a88888 	stmiahi	r8!, {r3, r7, fp, pc}
d002703c:	aaaaaa8a 	bge	cead1a6c <_start-0x154e5a4>
d0027040:	fbbbabaa 	blx	cef11ef2 <_start-0x110e11e>
d0027044:	bbffbbfb 	bllt	d0016038 <_start-0x9fd8>
d0027048:	bbbbbbbb 	bllt	cef15f3c <_start-0x110a0d4>
d002704c:	abbbbbbf 	blge	cef15f50 <_start-0x110a0c0>
d0027050:	bbbbabaa 	bllt	cef11f00 <_start-0x110e110>
d0027054:	aaaaaaab 	bge	cead1b08 <_start-0x154e508>
d0027058:	00800080 	addeq	r0, r0, r0, lsl #1
d002705c:	80000000 	andhi	r0, r0, r0
d0027060:	80808080 	addhi	r8, r0, r0, lsl #1
d0027064:	00880080 	addeq	r0, r8, r0, lsl #1
	...
d0027070:	7f010000 	svcvc	0x00010000
d0027074:	ffffc7f1 	undefined instruction 0xffffc7f1
d0027078:	c0ffffff 	ldrshtgt	pc, [pc, #255]	; d002717f <gImage_pic+0x47b3>
d002707c:	00000000 	andeq	r0, r0, r0
d0027080:	c05c0101 	subsgt	r0, ip, r1, lsl #2
d0027084:	00000100 	andeq	r0, r0, r0, lsl #2
d0027088:	fd431011 	stc2l	0, cr1, [r3, #-68]	; 0xffffffbc
d002708c:	fffffff3 	undefined instruction 0xfffffff3
d0027090:	ffffffff 	undefined instruction 0xffffffff
d0027094:	ffffffff 	undefined instruction 0xffffffff
d0027098:	ffffffff 	undefined instruction 0xffffffff
d002709c:	ffffffff 	undefined instruction 0xffffffff
d00270a0:	0075f5ff 	ldrshteq	pc, [r5], #-95	; 0xffffffa1
	...
d00270bc:	aaaa0200 	bge	ceaa78c4 <_start-0x157874c>
d00270c0:	eeeeeeaa 	cdp	14, 14, cr14, cr14, cr10, {5}
d00270c4:	02aaeeee 	adceq	lr, sl, #3808	; 0xee0
d00270c8:	2a020000 	bcs	d00a70d0 <bss_end+0x71b00>
d00270cc:	a2e2aaaa 	rscge	sl, r2, #696320	; 0xaa000
d00270d0:	a222a2a2 	eorge	sl, r2, #536870922	; 0x2000000a
d00270d4:	aaaaaaaa 	bge	cead1b84 <_start-0x154e48c>
d00270d8:	eeeeeeee 	cdp	14, 14, cr14, cr14, cr14, {7}
d00270dc:	aeeeaeee 	cdpge	14, 14, cr10, cr14, cr14, {7}
d00270e0:	eebfaeee 	cdp	14, 11, cr10, cr15, cr14, {7}
d00270e4:	aaaaaaee 	bge	cead1ca4 <_start-0x154e36c>
d00270e8:	aaaaeaee 	bge	ceae1ca8 <_start-0x153e368>
d00270ec:	0000aaaa 	andeq	sl, r0, sl, lsr #21
	...
d00270fc:	00000002 	andeq	r0, r0, r2
	...
d0027108:	54dc1d00 	ldrbpl	r1, [ip], #3328	; 0xd00
d002710c:	ffffff7f 	undefined instruction 0xffffff7f
d0027110:	0000c0ff 	strdeq	ip, [r0], -pc
d0027114:	00000000 	andeq	r0, r0, r0
d0027118:	00007044 	andeq	r7, r0, r4, asr #32
d002711c:	00000000 	andeq	r0, r0, r0
d0027120:	ffcfc50d 	undefined instruction 0xffcfc50d
d0027124:	ffffffff 	undefined instruction 0xffffffff
d0027128:	ffffffff 	undefined instruction 0xffffffff
d002712c:	ffffffff 	undefined instruction 0xffffffff
d0027130:	ffffffff 	undefined instruction 0xffffffff
d0027134:	ddffffff 	ldclle	15, cr15, [pc, #1020]!	; 0x3fc
d0027138:	000000dc 	ldrdeq	r0, [r0], -ip
	...
d0027154:	bbaaaa2a 	bllt	cead1a04 <_start-0x154e60c>
d0027158:	bfbfbbab 	svclt	0x00bfbbab
d002715c:	888888e8 	stmhi	r8, {r3, r5, r6, r7, fp, pc}
d0027160:	aaaa8888 	bge	ceac9388 <_start-0x1556c88>
d0027164:	888888b8 	stmhi	r8, {r3, r4, r5, r7, fp, pc}
d0027168:	aaaa0a88 	bge	ceaa9b90 <_start-0x1576480>
d002716c:	bbbbabaa 	bllt	cef1201c <_start-0x110dff4>
d0027170:	babfbbbb 	blt	cf016064 <_start-0x1009fac>
d0027174:	bbbbbbfb 	bllt	cef16168 <_start-0x1109ea8>
d0027178:	aabaffff 	bge	ceee717c <_start-0x1138e94>
d002717c:	bbbbbbaa 	bllt	cef1602c <_start-0x1109fe4>
d0027180:	aaaaaaaa 	bge	cead1c30 <_start-0x154e3e0>
d0027184:	00000000 	andeq	r0, r0, r0
d0027188:	08000000 	stmdaeq	r0, {}
d002718c:	08000888 	stmdaeq	r0, {r3, r7, fp}
d0027190:	00880800 	addeq	r0, r8, r0, lsl #16
	...
d002719c:	07000000 	streq	r0, [r0, -r0]
d00271a0:	f77fd77f 	undefined instruction 0xf77fd77f
d00271a4:	f8ffffff 	undefined instruction 0xf8ffffff
d00271a8:	00000000 	andeq	r0, r0, r0
d00271ac:	1c151100 	ldfnes	f1, [r5], {0}
d00271b0:	00000000 	andeq	r0, r0, r0
d00271b4:	15150000 	ldrne	r0, [r5]
d00271b8:	ffffff7f 	undefined instruction 0xffffff7f
d00271bc:	ffffffff 	undefined instruction 0xffffffff
d00271c0:	ffffffff 	undefined instruction 0xffffffff
d00271c4:	ffffffff 	undefined instruction 0xffffffff
d00271c8:	ffffffff 	undefined instruction 0xffffffff
d00271cc:	007455ff 	ldrshteq	r5, [r4], #-95	; 0xffffffa1
	...
d00271e8:	aa020000 	bge	d00a71f0 <bss_end+0x71c20>
d00271ec:	eeaaaaaa 	vfma.f32	s20, s21, s21
d00271f0:	20eaeeea 	rsccs	lr, sl, sl, ror #29
d00271f4:	22202800 	eorcs	r2, r0, #0
d00271f8:	208eaa2a 	addcs	sl, lr, sl, lsr #20
d00271fc:	28222a2a 	stmdacs	r2!, {r1, r3, r5, r9, fp, sp}
d0027200:	aaaa2a02 	bge	ceab1a10 <_start-0x156e600>
d0027204:	eaeaaaee 	b	cfad1dc4 <_start-0x54e24c>
d0027208:	aaaaeaae 	bge	ceae1cc8 <_start-0x153e348>
d002720c:	eefeeaea 	vcvt.s32.f32	s29, s29, #11
d0027210:	aeaaaaea 	vfmsge.f32	s20, s21, s21
d0027214:	aaaaaaea 	bge	cead1dc4 <_start-0x154e24c>
d0027218:	0000aaaa 	andeq	sl, r0, sl, lsr #21
	...
d0027228:	00000022 	andeq	r0, r0, r2, lsr #32
	...
d0027234:	fddd0000 	ldc2l	0, cr0, [sp]
d0027238:	ffff5fdf 	undefined instruction 0xffff5fdf
d002723c:	0000fcff 	strdeq	pc, [r0], -pc
d0027240:	00000000 	andeq	r0, r0, r0
d0027244:	0000c645 	andeq	ip, r0, r5, asr #12
d0027248:	00000000 	andeq	r0, r0, r0
d002724c:	ffff5540 	undefined instruction 0xffff5540
d0027250:	ffffffff 	undefined instruction 0xffffffff
d0027254:	ffffdfff 	undefined instruction 0xffffdfff
d0027258:	ffffffff 	undefined instruction 0xffffffff
d002725c:	fffffdfd 	undefined instruction 0xfffffdfd
d0027260:	ddfdfdff 	ldclle	13, cr15, [sp, #1020]!	; 0x3fc
d0027264:	000000dc 	ldrdeq	r0, [r0], -ip
	...
d0027274:	80008000 	andhi	r8, r0, r0
d0027278:	00008000 	andeq	r8, r0, r0
d002727c:	00008000 	andeq	r8, r0, r0
d0027280:	abaaaa00 	blge	cead1a88 <_start-0x154e588>
d0027284:	fbfbfb8b 	blx	cff260ba <_start-0xf9f56>
d0027288:	888888ff 	stmhi	r8, {r0, r1, r2, r3, r4, r5, r6, r7, fp, pc}
d002728c:	aa8a8888 	bge	ce2c94b4 <_start-0x1d56b5c>
d0027290:	888888a3 	stmhi	r8, {r0, r1, r5, r7, fp, pc}
d0027294:	8aaa8888 	bhi	ceac94bc <_start-0x1556b54>
d0027298:	abbbbbab 	blge	cef1614c <_start-0x1109ec4>
d002729c:	bbbbbbbb 	bllt	cef16190 <_start-0x1109e80>
d00272a0:	bbbbbbab 	bllt	cef16154 <_start-0x1109ebc>
d00272a4:	aafbffff 	bge	cff272a8 <_start-0xf8d68>
d00272a8:	abbbbbaa 	blge	cef16158 <_start-0x1109eb8>
d00272ac:	a8aaaaab 	stmiage	sl!, {r0, r1, r3, r5, r7, r9, fp, sp, pc}
d00272b0:	80000000 	andhi	r0, r0, r0
d00272b4:	80000000 	andhi	r0, r0, r0
d00272b8:	80808080 	addhi	r8, r0, r0, lsl #1
d00272bc:	008a8800 	addeq	r8, sl, r0, lsl #16
	...
d00272cc:	c7fff517 	undefined instruction 0xc7fff517
d00272d0:	ffffffff 	undefined instruction 0xffffffff
d00272d4:	000000c0 	andeq	r0, r0, r0, asr #1
d00272d8:	51550000 	cmppl	r5, r0
d00272dc:	000000c0 	andeq	r0, r0, r0, asr #1
d00272e0:	57575005 	ldrbpl	r5, [r7, -r5]
d00272e4:	ffffffff 	undefined instruction 0xffffffff
d00272e8:	ffffffff 	undefined instruction 0xffffffff
d00272ec:	ffffffff 	undefined instruction 0xffffffff
d00272f0:	ffffffff 	undefined instruction 0xffffffff
d00272f4:	ffffffff 	undefined instruction 0xffffffff
d00272f8:	00f077f7 	ldrshteq	r7, [r0], #119	; 0x77
	...
d0027308:	00000100 	andeq	r0, r0, r0, lsl #2
	...
d0027314:	0a000000 	beq	d002731c <gImage_pic+0x4950>
d0027318:	eeaaaaaa 	vfma.f32	s20, s21, s21
d002731c:	a2eeeeee 	rscge	lr, lr, #3808	; 0xee0
d0027320:	02020000 	andeq	r0, r2, #0
d0027324:	e2a8aaaa 	adc	sl, r8, #696320	; 0xaa000
d0027328:	aa2aa2a2 	bge	d0acfdb8 <bss_end+0xa9a7e8>
d002732c:	aeaaaaa2 	vfmage.f32	s20, s21, s5
d0027330:	aaaeaaee 	bge	cebd1ef0 <_start-0x144e120>
d0027334:	aeaeeaae 	vfmage.f32	s28, s29, s29
d0027338:	eeeeafae 	cdp	15, 14, cr10, cr14, cr14, {5}
d002733c:	aeaaaaea 	vfmsge.f32	s20, s21, s21
d0027340:	aaaaaeae 	bge	cead2e00 <_start-0x154d210>
d0027344:	0000a8aa 	andeq	sl, r0, sl, lsr #17
	...
d0027350:	02000000 	andeq	r0, r0, #0
d0027354:	0000002a 	andeq	r0, r0, sl, lsr #32
	...
d0027360:	dd000000 	stcle	0, cr0, [r0]
d0027364:	ffffff5f 	undefined instruction 0xffffff5f
d0027368:	00f0ffff 	ldrshteq	pc, [r0], #255	; 0xff
d002736c:	00000000 	andeq	r0, r0, r0
d0027370:	00704c04 	rsbseq	r4, r0, r4, lsl #24
d0027374:	05000400 	streq	r0, [r0, #-1024]	; 0x400
d0027378:	ffff7f5c 	undefined instruction 0xffff7f5c
d002737c:	ffffffdf 	undefined instruction 0xffffffdf
d0027380:	ffffffff 	undefined instruction 0xffffffff
d0027384:	ffffffff 	undefined instruction 0xffffffff
d0027388:	ffffdfdd 	undefined instruction 0xffffdfdd
d002738c:	ddddffff 	ldclle	15, cr15, [sp, #1020]	; 0x3fc
d0027390:	000000d0 	ldrdeq	r0, [r0], r0
	...
d002739c:	05000000 	streq	r0, [r0]
	...
d00273ac:	aaaa0800 	bge	ceaa93b4 <_start-0x1576c5c>
d00273b0:	bbbfbbbb 	bllt	cf0162a4 <_start-0x1009d6c>
d00273b4:	8888babf 	stmhi	r8, {r0, r1, r2, r3, r4, r5, r7, r9, fp, ip, sp, pc}
d00273b8:	aa8a8888 	bge	ce2c95e0 <_start-0x1d56a30>
d00273bc:	a88a38aa 	stmge	sl, {r1, r3, r5, r7, fp, ip, sp}
d00273c0:	aaaa888a 	bge	ceac95f0 <_start-0x1556a20>
d00273c4:	abbabbaa 	blge	ceed6274 <_start-0x1149d9c>
d00273c8:	babfbabb 	blt	cf015ebc <_start-0x100a154>
d00273cc:	bbbbabab 	bllt	cef12280 <_start-0x110dd90>
d00273d0:	aabaffff 	bge	ceee73d4 <_start-0x1138c3c>
d00273d4:	baaabaaa 	blt	cead5e84 <_start-0x154a18c>
d00273d8:	a8aaaaaa 	stmiage	sl!, {r1, r3, r5, r7, r9, fp, sp, pc}
	...
d00273e4:	00088008 	andeq	r8, r8, r8
d00273e8:	00aa8808 	adceq	r8, sl, r8, lsl #16
	...
d00273f8:	ffff1700 	undefined instruction 0xffff1700
d00273fc:	ffffffff 	undefined instruction 0xffffffff
d0027400:	000000ff 	strdeq	r0, [r0], -pc
d0027404:	55110000 	ldrpl	r0, [r1]
d0027408:	0000001f 	andeq	r0, r0, pc, lsl r0
d002740c:	ff575511 	undefined instruction 0xff575511
d0027410:	ff5fffff 	undefined instruction 0xff5fffff
d0027414:	ffffffff 	undefined instruction 0xffffffff
d0027418:	ffffffff 	undefined instruction 0xffffffff
d002741c:	ffffffff 	undefined instruction 0xffffffff
d0027420:	ffffffff 	undefined instruction 0xffffffff
d0027424:	00707ff7 	ldrshteq	r7, [r0], #-247	; 0xffffff09
	...
d0027434:	00001700 	andeq	r1, r0, r0, lsl #14
	...
d0027444:	aaaaaa2a 	bge	cead1cf4 <_start-0x154e31c>
d0027448:	eeeeeeee 	cdp	14, 14, cr14, cr14, cr14, {7}
d002744c:	20000080 	andcs	r0, r0, r0, lsl #1
d0027450:	aaaaaa22 	bge	cead1ce0 <_start-0x154e330>
d0027454:	aaaa2aa0 	bge	ceab1edc <_start-0x156e134>
d0027458:	aaaaaaaa 	bge	cead1f08 <_start-0x154e108>
d002745c:	aaaaaaea 	bge	cead200c <_start-0x154e004>
d0027460:	aaaaeaae 	bge	ceae1f20 <_start-0x153e0f0>
d0027464:	eeeeaeea 	cdp	14, 14, cr10, cr14, cr10, {7}
d0027468:	aaaaaaea 	bge	cead2018 <_start-0x154dff8>
d002746c:	aaaaaaaa 	bge	cead1f1c <_start-0x154e0f4>
d0027470:	0000a0aa 	andeq	sl, r0, sl, lsr #1
	...
d002747c:	02000000 	andeq	r0, r0, #0
d0027480:	000000aa 	andeq	r0, r0, sl, lsr #1
	...
d002748c:	01000000 	tsteq	r0, r0
d0027490:	ffffffdd 	undefined instruction 0xffffffdd
d0027494:	c0ffffff 	ldrshtgt	pc, [pc, #255]	; d002759b <gImage_pic+0x4bcf>
d0027498:	00000000 	andeq	r0, r0, r0
d002749c:	fc414400 	mcrr2	4, 0, r4, r1, cr0
d00274a0:	c01d0404 	andsgt	r0, sp, r4, lsl #8
d00274a4:	ffffdd5d 	undefined instruction 0xffffdd5d
d00274a8:	ffd7ffdd 	undefined instruction 0xffd7ffdd
d00274ac:	fffffdff 	undefined instruction 0xfffffdff
d00274b0:	ffffffff 	undefined instruction 0xffffffff
d00274b4:	ffffffdd 	undefined instruction 0xffffffdd
d00274b8:	ddddddfd 	ldclle	13, cr13, [sp, #1012]	; 0x3f4
d00274bc:	000000c0 	andeq	r0, r0, r0, asr #1
	...
d00274c8:	dd000000 	stcle	0, cr0, [r0]
d00274cc:	00800080 	addeq	r0, r0, r0, lsl #1
d00274d0:	00000080 	andeq	r0, r0, r0, lsl #1
d00274d4:	00800000 	addeq	r0, r0, r0
d00274d8:	ab880000 	blge	ce2274e0 <_start-0x1df8b30>
d00274dc:	fbbbfbbb 	blx	cef263d2 <_start-0x10f9c3e>
d00274e0:	88e8bbbb 	stmiahi	r8!, {r0, r1, r3, r4, r5, r7, r8, r9, fp, ip, sp, pc}^
d00274e4:	aaa88880 	bge	cea496ec <_start-0x15d6924>
d00274e8:	aabba8aa 	bge	cef11798 <_start-0x110e878>
d00274ec:	aaa8aaaa 	bge	cea51f9c <_start-0x15ce074>
d00274f0:	abbabbab 	blge	ceed63a4 <_start-0x1149c6c>
d00274f4:	fbababba 	blx	ceb123e6 <_start-0x150dc2a>
d00274f8:	bbbbabab 	bllt	cef123ac <_start-0x110dc64>
d00274fc:	aafafbfb 	bge	cfee64f0 <_start-0x139b20>
d0027500:	aabaabab 	bge	ceed23b4 <_start-0x114dc5c>
d0027504:	80aaaaaa 	adchi	sl, sl, sl, lsr #21
d0027508:	00000080 	andeq	r0, r0, r0, lsl #1
d002750c:	00800080 	addeq	r0, r0, r0, lsl #1
d0027510:	80808080 	addhi	r8, r0, r0, lsl #1
d0027514:	00aa8a80 	adceq	r8, sl, r0, lsl #21
	...
d0027524:	ff770100 	undefined instruction 0xff770100
d0027528:	fdffffff 	ldc2l	15, cr15, [pc, #1020]!	; 0x3fc
d002752c:	0000fcff 	strdeq	pc, [r0], -pc
d0027530:	01010000 	tsteq	r1, r0
d0027534:	55f51711 	ldrbpl	r1, [r5, #1809]!	; 0x711
d0027538:	ff170011 	undefined instruction 0xff170011
d002753c:	ff57ffff 	undefined instruction 0xff57ffff
d0027540:	ffffffdf 	undefined instruction 0xffffffdf
d0027544:	ffffffff 	undefined instruction 0xffffffff
d0027548:	ffffffff 	undefined instruction 0xffffffff
d002754c:	77f7ffff 	undefined instruction 0x77f7ffff
d0027550:	000077f7 	strdeq	r7, [r0], -r7
	...
d0027560:	0000f701 	andeq	pc, r0, r1, lsl #14
	...
d0027570:	aaaaaa2a 	bge	cead1e20 <_start-0x154e1f0>
d0027574:	eeeaaeae 	cdp	14, 14, cr10, cr10, cr14, {5}
d0027578:	0222a2ee 	eoreq	sl, r2, #-536870898	; 0xe000000e
d002757c:	aaaaaa22 	bge	cead1e0c <_start-0x154e204>
d0027580:	aaaaaaaa 	bge	cead2030 <_start-0x154dfe0>
d0027584:	aeaaaaa2 	vfmage.f32	s20, s21, s5
d0027588:	afaaaaee 	svcge	0x00aaaaee
d002758c:	aaaaeaea 	bge	ceae213c <_start-0x153ded4>
d0027590:	eeeeafae 	cdp	15, 14, cr10, cr14, cr14, {5}
d0027594:	aaaaaaea 	bge	cead2144 <_start-0x154decc>
d0027598:	aaaaaaaa 	bge	cead2048 <_start-0x154dfc8>
d002759c:	000000aa 	andeq	r0, r0, sl, lsr #1
	...
d00275a8:	2a020000 	bcs	d00a75b0 <bss_end+0x71fe0>
d00275ac:	000000aa 	andeq	r0, r0, sl, lsr #1
	...
d00275b8:	05000000 	streq	r0, [r0]
d00275bc:	ffff7f5d 	undefined instruction 0xffff7f5d
d00275c0:	fffffdff 	undefined instruction 0xfffffdff
d00275c4:	000000c0 	andeq	r0, r0, r0, asr #1
d00275c8:	54450400 	strbpl	r0, [r5], #-1024	; 0x400
d00275cc:	c0dd551c 	sbcsgt	r5, sp, ip, lsl r5
d00275d0:	ffffdf01 	undefined instruction 0xffffdf01
d00275d4:	ff7ffddd 	undefined instruction 0xff7ffddd
d00275d8:	ffdffdff 	undefined instruction 0xffdffdff
d00275dc:	fdffffff 	ldc2l	15, cr15, [pc, #1020]!	; 0x3fc
d00275e0:	dfdfdddf 	svcle	0x00dfdddf
d00275e4:	dcdddddd 	ldclle	13, cr13, [sp], {221}	; 0xdd
	...
d00275f4:	dd0d0000 	stcle	0, cr0, [sp]
	...
d0027604:	aaaa0800 	bge	ceaa960c <_start-0x1576a04>
d0027608:	bbbbabaa 	bllt	cef124b8 <_start-0x110db58>
d002760c:	eabbabbf 	b	cef12510 <_start-0x110db00>
d0027610:	8a888888 	bhi	ce249838 <_start-0x1dd67d8>
d0027614:	baaaaaaa 	blt	cead20c4 <_start-0x154df4c>
d0027618:	8aa8aaaa 	bhi	cea520c8 <_start-0x15cdf48>
d002761c:	aabbbbaa 	bge	cef164cc <_start-0x1109b44>
d0027620:	bafbbfaa 	blt	cff174d0 <_start-0x108b40>
d0027624:	bfbbaaaa 	svclt	0x00bbaaaa
d0027628:	aababfff 	bge	ceed762c <_start-0x11489e4>
d002762c:	aaaaaaaa 	bge	cead20dc <_start-0x154df34>
d0027630:	00a8aaaa 	adceq	sl, r8, sl, lsr #21
	...
d002763c:	00000800 	andeq	r0, r0, r0, lsl #16
d0027640:	00aaaa88 	adceq	sl, sl, r8, lsl #21
	...
d0027650:	ffff1500 	undefined instruction 0xffff1500
d0027654:	fffff717 	undefined instruction 0xfffff717
d0027658:	00fffff7 	ldrshteq	pc, [pc, #247]	; d0027757 <gImage_pic+0x4d8b>
d002765c:	11000000 	tstne	r0, r0
d0027660:	553d5515 	ldrpl	r5, [sp, #-1301]!	; 0x515
d0027664:	5f015057 	svcpl	0x00015057
d0027668:	fdd7ffff 	ldc2l	15, cr15, [r7, #1020]	; 0x3fc
d002766c:	fdffff7f 	ldc2l	15, cr15, [pc, #508]!	; 0x1fc
d0027670:	ffffff7f 	undefined instruction 0xffffff7f
d0027674:	ff7fffff 	undefined instruction 0xff7fffff
d0027678:	fdffff7f 	ldc2l	15, cr15, [pc, #508]!	; 0x1fc
d002767c:	00005055 	andeq	r5, r0, r5, asr r0
	...
d002768c:	0000f55f 	andeq	pc, r0, pc, asr r5
	...
d0027698:	02000000 	andeq	r0, r0, #0
d002769c:	aaeaaeaa 	bge	cfad314c <_start-0x54cec4>
d00276a0:	eaeeaaaa 	b	cfbd2150 <_start-0x44dec0>
d00276a4:	00a0eeae 	adceq	lr, r0, lr, lsr #29
d00276a8:	aaaa2a22 	bge	ceab1f38 <_start-0x156e0d8>
d00276ac:	aaaaaaaa 	bge	cead215c <_start-0x154deb4>
d00276b0:	aaaaa2aa 	bge	cead0160 <_start-0x154feb0>
d00276b4:	eeaaaaee 	vfms.f32	s20, s21, s29
d00276b8:	aaaaeaee 	bge	ceae2278 <_start-0x153dd98>
d00276bc:	eeeeaeaa 	cdp	14, 14, cr10, cr14, cr10, {5}
d00276c0:	aaaaaaea 	bge	cead2270 <_start-0x154dda0>
d00276c4:	aaaaaaaa 	bge	cead2174 <_start-0x154de9c>
d00276c8:	000000a0 	andeq	r0, r0, r0, lsr #1
	...
d00276d4:	aa020000 	bge	d00a76dc <bss_end+0x7210c>
d00276d8:	000000aa 	andeq	r0, r0, sl, lsr #1
	...
d00276e4:	4f000000 	svcmi	0x00000000
d00276e8:	d8c0ffff 	stmiale	r0, {r0, r1, r2, r3, r4, r5, r6, r7, r8, r9, sl, fp, ip, sp, lr, pc}^
d00276ec:	ffffff5f 	undefined instruction 0xffffff5f
d00276f0:	0000f0ff 	strdeq	pc, [r0], -pc
d00276f4:	d4550400 	ldrble	r0, [r5], #-1024	; 0x400
d00276f8:	40dddd44 	sbcsmi	sp, sp, r4, asr #26
d00276fc:	ffff4500 	undefined instruction 0xffff4500
d0027700:	ffffdddd 	undefined instruction 0xffffdddd
d0027704:	ffdffdff 	undefined instruction 0xffdffdff
d0027708:	fdffffff 	ldc2l	15, cr15, [pc, #1020]!	; 0x3fc
d002770c:	dddddddd 	ldclle	13, cr13, [sp, #884]	; 0x374
d0027710:	00d4d5dd 	ldrsbeq	sp, [r4], #93	; 0x5d
	...
d0027720:	dddd0000 	ldclle	0, cr0, [sp]
d0027724:	00008000 	andeq	r8, r0, r0
d0027728:	00008000 	andeq	r8, r0, r0
d002772c:	00008000 	andeq	r8, r0, r0
d0027730:	ffab8a88 	undefined instruction 0xffab8a88
d0027734:	aaaaa8fb 	bge	cead1b28 <_start-0x154e4e8>
d0027738:	fbfbffbb 	blx	cff2762e <_start-0xf89e2>
d002773c:	88a888fa 	stmiahi	r8!, {r1, r3, r4, r5, r6, r7, fp, pc}
d0027740:	aaaaaaaa 	bge	cead21f0 <_start-0x154de20>
d0027744:	a8aaaaaa 	stmiage	sl!, {r1, r3, r5, r7, r9, fp, sp, pc}
d0027748:	aabbabaa 	bge	cef125f8 <_start-0x110da18>
d002774c:	fbfbffaa 	blx	cff275fe <_start-0xf8a12>
d0027750:	bfbbabab 	svclt	0x00bbabab
d0027754:	aababbbb 	bge	ceed6648 <_start-0x11499c8>
d0027758:	aaaaaaaa 	bge	cead2208 <_start-0x154de08>
d002775c:	0000a8aa 	andeq	sl, r0, sl, lsr #17
d0027760:	00008000 	andeq	r8, r0, r0
d0027764:	80008000 	andhi	r8, r0, r0
d0027768:	80008000 	andhi	r8, r0, r0
d002776c:	00aaaa8a 	adceq	sl, sl, sl, lsl #21
	...
d002777c:	ffff7f01 	undefined instruction 0xffff7f01
d0027780:	7f5715f0 	svcvc	0x005715f0
d0027784:	ffffffff 	undefined instruction 0xffffffff
d0027788:	11010000 	tstne	r1, r0
d002778c:	57475555 	smlsldpl	r5, r7, r5, r5
d0027790:	1500fc7d 	strne	pc, [r0, #-3197]	; 0xc7d
d0027794:	f5ffff7f 	undefined instruction 0xf5ffff7f
d0027798:	ffffffff 	undefined instruction 0xffffffff
d002779c:	fffffff7 	undefined instruction 0xfffffff7
d00277a0:	ffffffff 	undefined instruction 0xffffffff
d00277a4:	51f5f7df 	ldrsbpl	pc, [r5, #127]!	; 0x7f
d00277a8:	00000040 	andeq	r0, r0, r0, asr #32
	...
d00277b4:	07000000 	streq	r0, [r0, -r0]
d00277b8:	000077f7 	strdeq	r7, [r0], -r7
	...
d00277c4:	aa020000 	bge	d00a77cc <bss_end+0x721fc>
d00277c8:	aaeeefae 	bge	cfbe3688 <_start-0x43c988>
d00277cc:	aeaeaa2a 	vfmage.f32	s20, s28, s21
d00277d0:	a0eeeeee 	rscge	lr, lr, lr, ror #29
d00277d4:	aaaaaa02 	bge	cead1fe4 <_start-0x154e02c>
d00277d8:	aaaaa2aa 	bge	cead0288 <_start-0x154fd88>
d00277dc:	aa2aaaae 	bge	d0ad229c <bss_end+0xa9cccc>
d00277e0:	eeaaaaee 	vfms.f32	s20, s21, s29
d00277e4:	aaaaeaee 	bge	ceae23a4 <_start-0x153dc6c>
d00277e8:	aeaeaeaa 	cdpge	14, 10, cr10, cr14, cr10, {5}
d00277ec:	aaaaaaaa 	bge	cead229c <_start-0x154dd74>
d00277f0:	80aaaaaa 	adchi	sl, sl, sl, lsr #21
	...
d0027800:	aa2a0200 	bge	d0aa8008 <bss_end+0xa72a38>
d0027804:	000000aa 	andeq	r0, r0, sl, lsr #1
	...
d0027810:	ff050000 	undefined instruction 0xff050000
d0027814:	01ffffff 	ldrsheq	pc, [pc, #255]	; d002791b <gImage_pic+0x4f4f>
d0027818:	ffffc7f5 	undefined instruction 0xffffc7f5
d002781c:	00f0ffff 	ldrshteq	pc, [r0], #255	; 0xff
d0027820:	dddd0500 	cfldr64le	mvdx0, [sp]
d0027824:	ffd75d47 	undefined instruction 0xffd75d47
d0027828:	ff5f001c 	undefined instruction 0xff5f001c
d002782c:	ffffddff 	undefined instruction 0xffffddff
d0027830:	ffdfdfff 	undefined instruction 0xffdfdfff
d0027834:	fddfcdff 	ldc2l	13, cr12, [pc, #1020]	; 0x3fc
d0027838:	ddd5dddf 	ldclle	13, cr13, [r5, #892]	; 0x37c
d002783c:	00000044 	andeq	r0, r0, r4, asr #32
	...
d002784c:	dddd1d00 	ldclle	13, cr1, [sp]
	...
d002785c:	ffbbab8a 	undefined instruction 0xffbbab8a
d0027860:	baa8faff 	blt	cea66464 <_start-0x15b9bac>
d0027864:	bfbbbbaa 	svclt	0x00bbbbaa
d0027868:	8a88f8bf 	bhi	ce265b6c <_start-0x1dba4a4>
d002786c:	abaaaaaa 	blge	cead231c <_start-0x154dcf4>
d0027870:	8afbafaa 	bhi	cff13720 <_start-0x10c8f0>
d0027874:	bbbbab8a 	bllt	cef126a4 <_start-0x110d96c>
d0027878:	aabaffaa 	bge	ceee7728 <_start-0x11388e8>
d002787c:	bfbaaaba 	svclt	0x00baaaba
d0027880:	aaaaaaaa 	bge	cead2330 <_start-0x154dce0>
d0027884:	a8aaaaaa 	stmiage	sl!, {r1, r3, r5, r7, r9, fp, sp, pc}
	...
d0027894:	88080000 	stmdahi	r8, {}
d0027898:	00aaaaaa 	adceq	sl, sl, sl, lsr #21
	...
d00278a4:	01000000 	tsteq	r0, r0
d00278a8:	ffffff5f 	undefined instruction 0xffffff5f
d00278ac:	5d1ff0fd 	ldcpl	0, cr15, [pc, #-1012]	; 0xfffffc0c
d00278b0:	ffffff7f 	undefined instruction 0xffffff7f
d00278b4:	150100ff 	strne	r0, [r1, #-255]	; 0xff
d00278b8:	d7515557 	undefined instruction 0xd7515557
d00278bc:	01d7ffff 	ldrsheq	pc, [r7, #255]	; 0xff
d00278c0:	fdffff5f 	ldc2l	15, cr15, [pc, #380]!	; 0x17c
d00278c4:	ff57ffff 	undefined instruction 0xff57ffff
d00278c8:	d77fffff 	undefined instruction 0xd77fffff
d00278cc:	ffffffff 	undefined instruction 0xffffffff
d00278d0:	00005075 	andeq	r5, r0, r5, ror r0
	...
d00278e0:	7f000000 	svcvc	0x00000000
d00278e4:	000075ff 	strdeq	r7, [r0], -pc
	...
d00278f0:	aa2a0000 	bge	d0aa78f8 <bss_end+0xa72328>
d00278f4:	eefeeeee 	cdp	14, 15, cr14, cr14, cr14, {7}
d00278f8:	aaaaaaaa 	bge	cead23a8 <_start-0x154dc68>
d00278fc:	eeeeeeaa 	cdp	14, 14, cr14, cr14, cr10, {5}
d0027900:	aaaa2aa2 	bge	ceab2390 <_start-0x156dc80>
d0027904:	aaaaaaaa 	bge	cead23b4 <_start-0x154dc5c>
d0027908:	aaa0eaae 	bge	ce8623c8 <_start-0x17bdc48>
d002790c:	eeaaeaaa 	vfma.f32	s28, s21, s21
d0027910:	aaaaaaaa 	bge	cead23c0 <_start-0x154dc50>
d0027914:	aaaaaeaa 	bge	cead33c4 <_start-0x154cc4c>
d0027918:	aaaaaaaa 	bge	cead23c8 <_start-0x154dc48>
d002791c:	000000a0 	andeq	r0, r0, r0, lsr #1
	...
d002792c:	aaaa0200 	bge	ceaa8134 <_start-0x1577edc>
d0027930:	000000aa 	andeq	r0, r0, sl, lsr #1
	...
d002793c:	ffff0500 	undefined instruction 0xffff0500
d0027940:	ffffffff 	undefined instruction 0xffffffff
d0027944:	ffcdf5c1 	undefined instruction 0xffcdf5c1
d0027948:	c0ffffff 	ldrshtgt	pc, [pc, #255]	; d0027a4f <gImage_pic+0x5083>
d002794c:	d5dd0400 	ldrble	r0, [sp, #1024]	; 0x400
d0027950:	0f40fd58 	svceq	0x0040fd58
d0027954:	ff1d40e0 	undefined instruction 0xff1d40e0
d0027958:	fcfffdff 	ldc2l	13, cr15, [pc], #1020	; 0x3fc
d002795c:	ffdd1f00 	undefined instruction 0xffdd1f00
d0027960:	fdfdfddf 	ldc2l	13, cr15, [sp, #892]!	; 0x37c
d0027964:	00d4fdfd 	ldrsheq	pc, [r4], #221	; 0xdd
	...
d0027978:	dcdddd01 	ldclle	13, cr13, [sp], {1}
d002797c:	00000000 	andeq	r0, r0, r0
d0027980:	00000080 	andeq	r0, r0, r0, lsl #1
d0027984:	88800000 	stmhi	r0, {}
d0027988:	ffbbbbaa 	undefined instruction 0xffbbbbaa
d002798c:	aafaffff 	bge	cfee7990 <_start-0x138680>
d0027990:	bbabaaba 	bllt	ceb12480 <_start-0x150db90>
d0027994:	88e8bbfb 	stmiahi	r8!, {r0, r1, r3, r4, r5, r6, r7, r8, r9, fp, ip, sp, pc}^
d0027998:	a8aaaaaa 	stmiage	sl!, {r1, r3, r5, r7, r9, fp, sp, pc}
d002799c:	aaffabaa 	bge	d001284c <_start-0xd7c4>
d00279a0:	bbbbaba8 	bllt	cef12848 <_start-0x110d7c8>
d00279a4:	88aabaaa 	stmiahi	sl!, {r1, r3, r5, r7, r9, fp, ip, sp, pc}
d00279a8:	bbabaaab 	bllt	ceb1245c <_start-0x150dbb4>
d00279ac:	aaaaaaaa 	bge	cead245c <_start-0x154dbb4>
d00279b0:	0080aaaa 	addeq	sl, r0, sl, lsr #21
d00279b4:	00000080 	andeq	r0, r0, r0, lsl #1
d00279b8:	00000000 	andeq	r0, r0, r0
d00279bc:	00000080 	andeq	r0, r0, r0, lsl #1
d00279c0:	8a880000 	bhi	ce2279c8 <_start-0x1df8648>
d00279c4:	00aaaaaa 	adceq	sl, sl, sl, lsr #21
	...
d00279d0:	15000000 	strne	r0, [r0]
d00279d4:	ffffffff 	undefined instruction 0xffffffff
d00279d8:	5f57ffff 	svcpl	0x0057ffff
d00279dc:	ffffffd7 	undefined instruction 0xffffffd7
d00279e0:	1500fcff 	strne	pc, [r0, #-3327]	; 0xcff
d00279e4:	77547557 	undefined instruction 0x77547557
d00279e8:	fcffffff 	ldc2l	15, cr15, [pc], #1020	; 0x3fc
d00279ec:	ffffff07 	undefined instruction 0xffffff07
d00279f0:	0500d1ff 	streq	sp, [r0, #-511]	; 0x1ff
d00279f4:	e17fffff 	ldrsh	pc, [pc, #-255]	; d00278fd <gImage_pic+0x4f31>
d00279f8:	f7ffff7f 	undefined instruction 0xf7ffff7f
d00279fc:	00000050 	andeq	r0, r0, r0, asr r0
	...
d0027a0c:	ff070000 	undefined instruction 0xff070000
d0027a10:	000055f7 	strdeq	r5, [r0], -r7
	...
d0027a1c:	aeaa2200 	cdpge	2, 10, cr2, cr10, cr0, {0}
d0027a20:	ffefefef 	undefined instruction 0xffefefef
d0027a24:	aaaaaaee 	bge	cead25e4 <_start-0x154da2c>
d0027a28:	aeeeeeee 	cdpge	14, 14, cr14, cr14, cr14, {7}
d0027a2c:	aaaaa2ee 	bge	cead05ec <_start-0x154fa24>
d0027a30:	aaaeaaaa 	bge	cebd24e0 <_start-0x144db30>
d0027a34:	2aeeaaaa 	bcs	cfbd24e4 <_start-0x44db2c>
d0027a38:	aaaaaeaa 	bge	cead34e8 <_start-0x154cb28>
d0027a3c:	aaa2aaaa 	bge	ce8d24ec <_start-0x174db24>
d0027a40:	aaaaefaa 	bge	ceae38f0 <_start-0x153c720>
d0027a44:	a8aaaaaa 	stmiage	sl!, {r1, r3, r5, r7, r9, fp, sp, pc}
	...
d0027a58:	aaaa2a02 	bge	ceab2268 <_start-0x156dda8>
d0027a5c:	000000aa 	andeq	r0, r0, sl, lsr #1
	...
d0027a68:	ffff0500 	undefined instruction 0xffff0500
d0027a6c:	ffffffff 	undefined instruction 0xffffffff
d0027a70:	ffff5dfc 	undefined instruction 0xffff5dfc
d0027a74:	ffffffdf 	undefined instruction 0xffffffdf
d0027a78:	d45d05c0 	ldrble	r0, [sp], #-1472	; 0x5c0
d0027a7c:	0000fc45 	andeq	pc, r0, r5, asr #24
d0027a80:	df055f00 	svcle	0x00055f00
d0027a84:	fcdfffff 	ldc2l	15, cr15, [pc], {255}	; 0xff
d0027a88:	ffff0004 	undefined instruction 0xffff0004
d0027a8c:	df5cc0df 	svcle	0x005cc0df
d0027a90:	0040ddfd 	strdeq	sp, [r0], #-221	; 0xffffff23
	...
d0027aa4:	d5dddd1d 	ldrble	sp, [sp, #3357]	; 0xd1d
	...
d0027ab0:	8a080000 	bhi	d0227ab8 <bss_end+0x1f24e8>
d0027ab4:	ffffbbaa 	undefined instruction 0xffffbbaa
d0027ab8:	faffffff 	blx	d0027abc <gImage_pic+0x50f0>
d0027abc:	abbbabaa 	blge	cef1296c <_start-0x110d6a4>
d0027ac0:	aabbbbbb 	bge	cef169b4 <_start-0x110965c>
d0027ac4:	abaaaa8a 	blge	cead24f4 <_start-0x154db1c>
d0027ac8:	aaaa8af8 	bge	ceaca6b0 <_start-0x1555960>
d0027acc:	bbaa8a8a 	bllt	ceaca4fc <_start-0x1555b14>
d0027ad0:	8abeaaaa 	bhi	cefd2580 <_start-0x104da90>
d0027ad4:	abbbbaa8 	blge	cef1657c <_start-0x1109a94>
d0027ad8:	aaaaaaaa 	bge	cead2588 <_start-0x154da88>
d0027adc:	000080aa 	andeq	r8, r0, sl, lsr #1
	...
d0027aec:	aa880800 	bge	ce229af4 <_start-0x1df651c>
d0027af0:	00aaaaaa 	adceq	sl, sl, sl, lsr #21
	...
d0027afc:	11010000 	tstne	r1, r0
d0027b00:	ffffff7f 	undefined instruction 0xffffff7f
d0027b04:	f5ffffff 	undefined instruction 0xf5ffffff
d0027b08:	ffff7f5d 	undefined instruction 0xffff7f5d
d0027b0c:	51fdffff 	ldrshpl	pc, [sp, #255]!	; 0xff
d0027b10:	f0075575 	undefined instruction 0xf0075575
d0027b14:	10151515 	andsne	r1, r5, r5, lsl r5
d0027b18:	ffff5f01 	undefined instruction 0xffff5f01
d0027b1c:	50017fff 	strdpl	r7, [r1], -pc
d0027b20:	f5ffff7f 	undefined instruction 0xf5ffff7f
d0027b24:	507f7f7f 	rsbspl	r7, pc, pc, ror pc
	...
d0027b38:	ff7f0100 	undefined instruction 0xff7f0100
d0027b3c:	000055f5 	strdeq	r5, [r0], -r5
	...
d0027b48:	aaaaaa02 	bge	cead2358 <_start-0x154dcb8>
d0027b4c:	fffefeee 	undefined instruction 0xfffefeee
d0027b50:	aaeafefe 	bge	cfae7750 <_start-0x5388c0>
d0027b54:	aaaaaaaa 	bge	cead2604 <_start-0x154da0c>
d0027b58:	aaaaeaaa 	bge	ceae2608 <_start-0x153da08>
d0027b5c:	aaaaaeaa 	bge	cead360c <_start-0x154ca04>
d0027b60:	a2aaaaaa 	adcge	sl, sl, #696320	; 0xaa000
d0027b64:	aaaaaaaa 	bge	cead2614 <_start-0x154d9fc>
d0027b68:	2aaaaaea 	bcs	cead2718 <_start-0x154d8f8>
d0027b6c:	aae2aaaa 	bge	cf8d261c <_start-0x74d9f4>
d0027b70:	00a0aaaa 	adceq	sl, r0, sl, lsr #21
	...
d0027b84:	aaaaaa2a 	bge	cead2434 <_start-0x154dbdc>
d0027b88:	000000aa 	andeq	r0, r0, sl, lsr #1
	...
d0027b94:	ffff4500 	undefined instruction 0xffff4500
d0027b98:	ffffffff 	undefined instruction 0xffffffff
d0027b9c:	dcffffff 	ldclle	15, cr15, [pc], #1020	; 0x3fc
d0027ba0:	ffffff5d 	undefined instruction 0xffffff5d
d0027ba4:	dc55fcff 	mrrcle	12, 15, pc, r5, cr15
d0027ba8:	d404007c 	strle	r0, [r4], #-124	; 0x7c
d0027bac:	0f404440 	svceq	0x00404440
d0027bb0:	ffddfdff 	undefined instruction 0xffddfdff
d0027bb4:	ff1f1cd0 	undefined instruction 0xff1f1cd0
d0027bb8:	dd5de0df 	ldclle	0, cr14, [sp, #-892]	; 0xfffffc84
d0027bbc:	000000dd 	ldrdeq	r0, [r0], -sp
	...
d0027bcc:	05000000 	streq	r0, [r0]
d0027bd0:	d4dddddd 	ldrble	sp, [sp], #3549	; 0xddd
d0027bd4:	80008000 	andhi	r8, r0, r0
d0027bd8:	00008000 	andeq	r8, r0, r0
d0027bdc:	aa888000 	bge	ce247be4 <_start-0x1dd842c>
d0027be0:	fffbbbaa 	undefined instruction 0xfffbbbaa
d0027be4:	ffffffff 	undefined instruction 0xffffffff
d0027be8:	bbfbffff 	bllt	cff27bec <_start-0xf8424>
d0027bec:	ffffffff 	undefined instruction 0xffffffff
d0027bf0:	a8aaaafa 	stmiage	sl!, {r1, r3, r4, r5, r6, r7, r9, fp, sp, pc}
d0027bf4:	aaaaaaaa 	bge	cead26a4 <_start-0x154d96c>
d0027bf8:	abaaa8aa 	blge	cead1ea8 <_start-0x154e168>
d0027bfc:	aaeaaaaa 	bge	cfad26ac <_start-0x54d964>
d0027c00:	abbbabaa 	blge	cef12ab0 <_start-0x110d560>
d0027c04:	aaaaaae8 	bge	cead27ac <_start-0x154d864>
d0027c08:	00000080 	andeq	r0, r0, r0, lsl #1
d0027c0c:	80000000 	andhi	r0, r0, r0
d0027c10:	80000000 	andhi	r0, r0, r0
d0027c14:	00008000 	andeq	r8, r0, r0
d0027c18:	aa8a8800 	bge	ce2c9c20 <_start-0x1d563f0>
d0027c1c:	00aaaaaa 	adceq	sl, sl, sl, lsr #21
	...
d0027c28:	57110100 	ldrpl	r0, [r1, -r0, lsl #2]
d0027c2c:	ffffffff 	undefined instruction 0xffffffff
d0027c30:	ffffffff 	undefined instruction 0xffffffff
d0027c34:	ffffffff 	undefined instruction 0xffffffff
d0027c38:	ffffffff 	undefined instruction 0xffffffff
d0027c3c:	001055d7 	ldrsbeq	r5, [r0], -r7
d0027c40:	11415515 	cmpne	r1, r5, lsl r5
d0027c44:	ffff0710 	undefined instruction 0xffff0710
d0027c48:	0741ffd5 	undefined instruction 0x0741ffd5
d0027c4c:	f1f7ff1f 	undefined instruction 0xf1f7ff1f
d0027c50:	00705755 	rsbseq	r5, r0, r5, asr r7
	...
d0027c64:	ffff1700 	undefined instruction 0xffff1700
d0027c68:	000055f5 	strdeq	r5, [r0], -r5
	...
d0027c74:	eeaaaa2a 	vfma.f32	s20, s20, s21
d0027c78:	ffffffef 	undefined instruction 0xffffffef
d0027c7c:	ffffffff 	undefined instruction 0xffffffff
d0027c80:	ffffffff 	undefined instruction 0xffffffff
d0027c84:	eaffffff 	b	d0027c88 <gImage_pic+0x52bc>
d0027c88:	aaaaaaaa 	bge	cead2738 <_start-0x154d8d8>
d0027c8c:	a8aaaaaa 	stmiage	sl!, {r1, r3, r5, r7, r9, fp, sp, pc}
d0027c90:	aaaaaa2a 	bge	cead2540 <_start-0x154dad0>
d0027c94:	aaaaaaaa 	bge	cead2744 <_start-0x154d8cc>
d0027c98:	aaaaaaaa 	bge	cead2748 <_start-0x154d8c8>
d0027c9c:	0000a0aa 	andeq	sl, r0, sl, lsr #1
	...
d0027cac:	02000000 	andeq	r0, r0, #0
d0027cb0:	aaaaaaaa 	bge	cead2760 <_start-0x154d8b0>
d0027cb4:	000000aa 	andeq	r0, r0, sl, lsr #1
	...
d0027cc0:	ffffdf05 	undefined instruction 0xffffdf05
d0027cc4:	ffffffff 	undefined instruction 0xffffffff
d0027cc8:	ffffffff 	undefined instruction 0xffffffff
d0027ccc:	ffffffff 	undefined instruction 0xffffffff
d0027cd0:	dcfdffff 	ldclle	15, cr15, [sp], #1020	; 0x3fc
d0027cd4:	04040000 	streq	r0, [r4]
d0027cd8:	05040400 	streq	r0, [r4, #-1024]	; 0x400
d0027cdc:	dddddddf 	ldclle	13, cr13, [sp, #892]	; 0x37c
d0027ce0:	df0f0044 	svcle	0x000f0044
d0027ce4:	451dd0dd 	ldrmi	sp, [sp, #-221]	; 0xdd
d0027ce8:	000000c0 	andeq	r0, r0, r0, asr #1
	...
d0027cf8:	5f000000 	svcpl	0x00000000
d0027cfc:	54ddddff 	ldrbpl	sp, [sp], #3583	; 0xdff
	...
d0027d08:	aa8a0800 	bge	ce2a9d10 <_start-0x1d76300>
d0027d0c:	ffffffab 	undefined instruction 0xffffffab
d0027d10:	ffffffff 	undefined instruction 0xffffffff
d0027d14:	ffffffff 	undefined instruction 0xffffffff
d0027d18:	ffffffff 	undefined instruction 0xffffffff
d0027d1c:	a8baffff 	ldmge	sl!, {r0, r1, r2, r3, r4, r5, r6, r7, r8, r9, sl, fp, ip, sp, lr, pc}
d0027d20:	a8aaaa8a 	stmiage	sl!, {r1, r3, r7, r9, fp, sp, pc}
d0027d24:	aa8aaaaa 	bge	ce2d27d4 <_start-0x1d4d83c>
d0027d28:	aaaaaaaa 	bge	cead27d8 <_start-0x154d838>
d0027d2c:	aaaaaaaa 	bge	cead27dc <_start-0x154d834>
d0027d30:	80aaaaa8 	adchi	sl, sl, r8, lsr #21
	...
d0027d44:	aaaa8a08 	bge	ceaca56c <_start-0x1555aa4>
d0027d48:	00aaaaaa 	adceq	sl, sl, sl, lsr #21
	...
d0027d54:	7f150000 	svcvc	0x00150000
d0027d58:	ffffffff 	undefined instruction 0xffffffff
d0027d5c:	ffffffff 	undefined instruction 0xffffffff
d0027d60:	ffffffff 	undefined instruction 0xffffffff
d0027d64:	ffffffff 	undefined instruction 0xffffffff
d0027d68:	0010ffff 	ldrsheq	pc, [r0], -pc
d0027d6c:	00001515 	andeq	r1, r0, r5, lsl r5
d0027d70:	f7770111 	undefined instruction 0xf7770111
d0027d74:	107d5555 	rsbsne	r5, sp, r5, asr r5
d0027d78:	f47f5515 	undefined instruction 0xf47f5515
d0027d7c:	00000010 	andeq	r0, r0, r0, lsl r0
	...
d0027d90:	ffffff01 	undefined instruction 0xffffff01
d0027d94:	00005575 	andeq	r5, r0, r5, ror r5
	...
d0027da0:	eeaaaa2a 	vfma.f32	s20, s20, s21
d0027da4:	fefffeee 	cdp2	14, 15, cr15, cr15, cr14, {7}
d0027da8:	fefffeff 	mrc2	14, 7, pc, cr15, cr15, {7}
d0027dac:	fefffeff 	mrc2	14, 7, pc, cr15, cr15, {7}
d0027db0:	fefefefe 	mrc2	14, 7, pc, cr14, cr14, {7}
d0027db4:	2a20a8fe 	bcs	d08521b4 <bss_end+0x81cbe4>
d0027db8:	aa2a80aa 	bge	d0ac8068 <bss_end+0xa92a98>
d0027dbc:	aaaaaaa2 	bge	cead284c <_start-0x154d7c4>
d0027dc0:	aaaaaaaa 	bge	cead2870 <_start-0x154d7a0>
d0027dc4:	a8aaaaaa 	stmiage	sl!, {r1, r3, r5, r7, r9, fp, sp, pc}
	...
d0027dd8:	2a000000 	bcs	d0027de0 <gImage_pic+0x5414>
d0027ddc:	aaaaaaaa 	bge	cead288c <_start-0x154d784>
d0027de0:	000000aa 	andeq	r0, r0, sl, lsr #1
	...
d0027dec:	ffffdd05 	undefined instruction 0xffffdd05
d0027df0:	ffffffff 	undefined instruction 0xffffffff
d0027df4:	ffffffff 	undefined instruction 0xffffffff
d0027df8:	ffffffff 	undefined instruction 0xffffffff
d0027dfc:	ffffffff 	undefined instruction 0xffffffff
d0027e00:	400400c0 	andmi	r0, r4, r0, asr #1
d0027e04:	00000000 	andeq	r0, r0, r0
d0027e08:	45c4dd15 	strbmi	sp, [r4, #3349]	; 0xd15
d0027e0c:	dd05c0dd 	stcle	0, cr12, [r5, #-884]	; 0xfffffc8c
d0027e10:	0000dcff 	strdeq	sp, [r0], -pc
	...
d0027e24:	fd0d0000 	stc2	0, cr0, [sp]
d0027e28:	54ddddfd 	ldrbpl	sp, [sp], #3581	; 0xdfd
d0027e2c:	00800000 	addeq	r0, r0, r0
d0027e30:	00000000 	andeq	r0, r0, r0
d0027e34:	aaaa8800 	bge	ceac9e3c <_start-0x15561d4>
d0027e38:	ffffbbaa 	undefined instruction 0xffffbbaa
d0027e3c:	ffffffff 	undefined instruction 0xffffffff
d0027e40:	ffffffff 	undefined instruction 0xffffffff
d0027e44:	ffffffff 	undefined instruction 0xffffffff
d0027e48:	a8ffffff 	ldmge	pc!, {r0, r1, r2, r3, r4, r5, r6, r7, r8, r9, sl, fp, ip, sp, lr, pc}^
d0027e4c:	80a88a80 	adchi	r8, r8, r0, lsl #21
d0027e50:	8a808088 	bhi	ce048078 <_start-0x1fd7f98>
d0027e54:	aaaa88aa 	bge	ceaca104 <_start-0x1555f0c>
d0027e58:	abaaaaaa 	blge	cead2908 <_start-0x154d708>
d0027e5c:	8080a8aa 	addhi	sl, r0, sl, lsr #17
d0027e60:	00000080 	andeq	r0, r0, r0, lsl #1
	...
d0027e6c:	80800000 	addhi	r0, r0, r0
d0027e70:	aaaaaa88 	bge	cead2898 <_start-0x154d778>
d0027e74:	00aaaaaa 	adceq	sl, sl, sl, lsr #21
	...
d0027e80:	f7170100 	undefined instruction 0xf7170100
d0027e84:	ffffffff 	undefined instruction 0xffffffff
d0027e88:	ffffffff 	undefined instruction 0xffffffff
d0027e8c:	ffffffff 	undefined instruction 0xffffffff
d0027e90:	ffffffff 	undefined instruction 0xffffffff
d0027e94:	00d0ffff 	ldrsheq	pc, [r0], #255	; 0xff
d0027e98:	00000000 	andeq	r0, r0, r0
d0027e9c:	55010000 	strpl	r0, [r1]
d0027ea0:	51551100 	cmppl	r5, r0, lsl #2
d0027ea4:	ffff5711 	undefined instruction 0xffff5711
d0027ea8:	000000d0 	ldrdeq	r0, [r0], r0
	...
d0027eb8:	01000000 	tsteq	r0, r0
d0027ebc:	f7ffff7f 	undefined instruction 0xf7ffff7f
d0027ec0:	00005155 	andeq	r5, r0, r5, asr r1
d0027ec4:	00000000 	andeq	r0, r0, r0
d0027ec8:	22000000 	andcs	r0, r0, #0
d0027ecc:	afaaaaaa 	svcge	0x00aaaaaa
d0027ed0:	ffffffff 	undefined instruction 0xffffffff
d0027ed4:	ffffffff 	undefined instruction 0xffffffff
d0027ed8:	ffffffff 	undefined instruction 0xffffffff
d0027edc:	efffffff 	svc	0x00ffffff
d0027ee0:	0000a0ef 	andeq	sl, r0, pc, ror #1
d0027ee4:	00000000 	andeq	r0, r0, r0
d0027ee8:	22aa0200 	adccs	r0, sl, #0
d0027eec:	aaaaaaaa 	bge	cead299c <_start-0x154d674>
d0027ef0:	aaaaaeaa 	bge	cead39a0 <_start-0x154c670>
d0027ef4:	000000a0 	andeq	r0, r0, r0, lsr #1
	...
d0027f04:	aa220200 	bge	d08a870c <bss_end+0x87313c>
d0027f08:	aaaaaaaa 	bge	cead29b8 <_start-0x154d658>
d0027f0c:	000000aa 	andeq	r0, r0, sl, lsr #1
d0027f10:	00000000 	andeq	r0, r0, r0
d0027f14:	05000000 	streq	r0, [r0]
d0027f18:	ffffdf5f 	undefined instruction 0xffffdf5f
d0027f1c:	ffffffff 	undefined instruction 0xffffffff
d0027f20:	ffffffff 	undefined instruction 0xffffffff
d0027f24:	ffffffff 	undefined instruction 0xffffffff
d0027f28:	ffffffff 	undefined instruction 0xffffffff
d0027f2c:	000000c0 	andeq	r0, r0, r0, asr #1
	...
d0027f38:	5f055404 	svcpl	0x00055404
d0027f3c:	00fcffff 	ldrshteq	pc, [ip], #255	; 0xff
	...
d0027f50:	ffdf0500 	undefined instruction 0xffdf0500
d0027f54:	44dddddf 	ldrbmi	sp, [sp], #3551	; 0xddf
	...
d0027f60:	aaaa8a00 	bge	ceaca768 <_start-0x15558a8>
d0027f64:	ffffffab 	undefined instruction 0xffffffab
d0027f68:	ffffffff 	undefined instruction 0xffffffff
d0027f6c:	ffffffff 	undefined instruction 0xffffffff
d0027f70:	ffffffff 	undefined instruction 0xffffffff
d0027f74:	a8ffffff 	ldmge	pc!, {r0, r1, r2, r3, r4, r5, r6, r7, r8, r9, sl, fp, ip, sp, lr, pc}^
d0027f78:	08080888 	stmdaeq	r8, {r3, r7, fp}
d0027f7c:	88880888 	stmhi	r8, {r3, r7, fp}
d0027f80:	8a888888 	bhi	ce24a1a8 <_start-0x1dd5e68>
d0027f84:	bbabaaaa 	bllt	ceb12a34 <_start-0x150d5dc>
d0027f88:	88a8aabb 	stmiahi	r8!, {r0, r1, r3, r4, r5, r7, r9, fp, sp, pc}
	...
d0027f98:	88080000 	stmdahi	r8, {}
d0027f9c:	aaaaaaaa 	bge	cead2a4c <_start-0x154d5c4>
d0027fa0:	00aaaaaa 	adceq	sl, sl, sl, lsr #21
	...
d0027fac:	ffff5701 	undefined instruction 0xffff5701
d0027fb0:	ffffffff 	undefined instruction 0xffffffff
d0027fb4:	ffffffff 	undefined instruction 0xffffffff
d0027fb8:	ffffffff 	undefined instruction 0xffffffff
d0027fbc:	ffffffff 	undefined instruction 0xffffffff
d0027fc0:	00d0ffff 	ldrsheq	pc, [r0], #255	; 0xff
	...
d0027fcc:	15000000 	strne	r0, [r0]
d0027fd0:	ffff7f11 	undefined instruction 0xffff7f11
d0027fd4:	000050ff 	strdeq	r5, [r0], -pc
	...
d0027fe4:	17000000 	strne	r0, [r0, -r0]
d0027fe8:	f5ffffff 	undefined instruction 0xf5ffffff
d0027fec:	00005155 	andeq	r5, r0, r5, asr r1
d0027ff0:	00000000 	andeq	r0, r0, r0
d0027ff4:	2a000000 	bcs	d0027ffc <gImage_pic+0x5630>
d0027ff8:	eeeeaaaa 	vfma.f32	s21, s29, s21
d0027ffc:	fffffffe 	undefined instruction 0xfffffffe
d0028000:	fefeffff 	mrc2	15, 7, pc, cr14, cr15, {7}
d0028004:	fefefefe 	mrc2	14, 7, pc, cr14, cr14, {7}
d0028008:	fefefefe 	mrc2	14, 7, pc, cr14, cr14, {7}
d002800c:	0000a8ee 	andeq	sl, r0, lr, ror #17
d0028010:	00000000 	andeq	r0, r0, r0
d0028014:	2a220000 	bcs	d08a801c <bss_end+0x872a4c>
d0028018:	aaaa2aaa 	bge	ceab2ac8 <_start-0x156d548>
d002801c:	eaeeeeaa 	b	cfbe3acc <_start-0x43c544>
d0028020:	000020aa 	andeq	r2, r0, sl, lsr #1
	...
d0028030:	aaaa2200 	bge	ceab0838 <_start-0x156f7d8>
d0028034:	aaaaaaaa 	bge	cead2ae4 <_start-0x154d52c>
d0028038:	000000aa 	andeq	r0, r0, sl, lsr #1
d002803c:	00000000 	andeq	r0, r0, r0
d0028040:	df000000 	svcle	0x00000000
d0028044:	ffffffff 	undefined instruction 0xffffffff
d0028048:	ffffffff 	undefined instruction 0xffffffff
d002804c:	ffffffff 	undefined instruction 0xffffffff
d0028050:	ffffffff 	undefined instruction 0xffffffff
d0028054:	ffffffff 	undefined instruction 0xffffffff
d0028058:	000000c0 	andeq	r0, r0, r0, asr #1
	...
d0028064:	5d400000 	stclpl	0, cr0, [r0]
d0028068:	d4ffffff 	ldrbtle	pc, [pc], #4095	; d0028070 <gImage_pic+0x56a4>
	...
d002807c:	fdffdf00 	ldc2l	15, cr13, [pc]
d0028080:	40d4dddd 	ldrsbmi	sp, [r4], #221	; 0xdd
	...
d002808c:	bbabaa00 	bllt	ceb12894 <_start-0x150d77c>
d0028090:	ffffffff 	undefined instruction 0xffffffff
d0028094:	ffffffff 	undefined instruction 0xffffffff
d0028098:	ffffffff 	undefined instruction 0xffffffff
d002809c:	ffffffff 	undefined instruction 0xffffffff
d00280a0:	a8ffffff 	ldmge	pc!, {r0, r1, r2, r3, r4, r5, r6, r7, r8, r9, sl, fp, ip, sp, lr, pc}^
d00280a4:	80808080 	addhi	r8, r0, r0, lsl #1
d00280a8:	88808080 	stmhi	r0, {r7, pc}
d00280ac:	88888888 	stmhi	r8, {r3, r7, fp, pc}
d00280b0:	bbaaaa8a 	bllt	cead2ae0 <_start-0x154d530>
d00280b4:	a8aabbfb 	stmiage	sl!, {r0, r1, r3, r4, r5, r6, r7, r8, r9, fp, ip, sp, pc}
d00280b8:	80008080 	andhi	r8, r0, r0, lsl #1
d00280bc:	00008000 	andeq	r8, r0, r0
d00280c0:	80000000 	andhi	r0, r0, r0
d00280c4:	8a888000 	bhi	ce2480cc <_start-0x1dd7f44>
d00280c8:	aaaaabab 	bge	cead2f7c <_start-0x154d094>
d00280cc:	00aaaaaa 	adceq	sl, sl, sl, lsr #21
	...
d00280d8:	ffff7f15 	undefined instruction 0xffff7f15
d00280dc:	ffffffff 	undefined instruction 0xffffffff
d00280e0:	ffffffff 	undefined instruction 0xffffffff
d00280e4:	ffffffff 	undefined instruction 0xffffffff
d00280e8:	ffffffff 	undefined instruction 0xffffffff
d00280ec:	00f0ffff 	ldrshteq	pc, [r0], #255	; 0xff
	...
d00280f8:	01000000 	tsteq	r0, r0
d00280fc:	ffff1710 	undefined instruction 0xffff1710
d0028100:	0000f5ff 	strdeq	pc, [r0], -pc
	...
d0028110:	ff170000 	undefined instruction 0xff170000
d0028114:	f5f7ffff 	undefined instruction 0xf5f7ffff
d0028118:	00001155 	andeq	r1, r0, r5, asr r1
d002811c:	00000000 	andeq	r0, r0, r0
d0028120:	aa020000 	bge	d00a8128 <bss_end+0x72b58>
d0028124:	efefaeaa 	svc	0x00efaeaa
d0028128:	ffffffff 	undefined instruction 0xffffffff
d002812c:	ffffffff 	undefined instruction 0xffffffff
d0028130:	ffefffff 	undefined instruction 0xffefffff
d0028134:	efefffef 	svc	0x00efffef
d0028138:	0000eaef 	andeq	lr, r0, pc, ror #21
d002813c:	00000000 	andeq	r0, r0, r0
d0028140:	aa220200 	bge	d08a8948 <bss_end+0x873378>
d0028144:	aaa2aaaa 	bge	ce8d2bf4 <_start-0x174d41c>
d0028148:	eeeeaeaa 	cdp	14, 14, cr10, cr14, cr10, {5}
d002814c:	0080aaaa 	addeq	sl, r0, sl, lsr #21
	...
d002815c:	aaaaaa02 	bge	cead296c <_start-0x154d6a4>
d0028160:	aaaaaaaa 	bge	cead2c10 <_start-0x154d400>
d0028164:	000000aa 	andeq	r0, r0, sl, lsr #1
d0028168:	00000000 	andeq	r0, r0, r0
d002816c:	ff050000 	undefined instruction 0xff050000
d0028170:	ffffffff 	undefined instruction 0xffffffff
d0028174:	ffffffff 	undefined instruction 0xffffffff
d0028178:	ffffffff 	undefined instruction 0xffffffff
d002817c:	ffffffff 	undefined instruction 0xffffffff
d0028180:	ffffffff 	undefined instruction 0xffffffff
d0028184:	000000fc 	strdeq	r0, [r0], -ip
	...
d0028190:	05000000 	streq	r0, [r0]
d0028194:	fdffffff 	ldc2l	15, cr15, [pc, #1020]!	; 0x3fc
d0028198:	000000d4 	ldrdeq	r0, [r0], -r4
	...
d00281a8:	ffffff5f 	undefined instruction 0xffffff5f
d00281ac:	4054dddd 	ldrsbmi	sp, [r4], #-221	; 0xffffff23
	...
d00281b8:	bfabaa0a 	svclt	0x00abaa0a
d00281bc:	ffffffff 	undefined instruction 0xffffffff
d00281c0:	ffffffff 	undefined instruction 0xffffffff
d00281c4:	ffffffff 	undefined instruction 0xffffffff
d00281c8:	ffffffff 	undefined instruction 0xffffffff
d00281cc:	faffffff 	blx	d00281d0 <gImage_pic+0x5804>
d00281d0:	88888888 	stmhi	r8, {r3, r7, fp, pc}
d00281d4:	88888888 	stmhi	r8, {r3, r7, fp, pc}
d00281d8:	8aaaaa8a 	bhi	cead2c08 <_start-0x154d408>
d00281dc:	abaaaa88 	blge	cead2c04 <_start-0x154d40c>
d00281e0:	aaaabbbb 	bge	cead70d4 <_start-0x1548f3c>
d00281e4:	000888a8 	andeq	r8, r8, r8, lsr #17
d00281e8:	00000000 	andeq	r0, r0, r0
d00281ec:	00080000 	andeq	r0, r8, r0
d00281f0:	aa8a8808 	bge	ce2ca218 <_start-0x1d55df8>
d00281f4:	aaaababb 	bge	cead6ce8 <_start-0x1549328>
d00281f8:	00aaaaaa 	adceq	sl, sl, sl, lsr #21
d00281fc:	00000000 	andeq	r0, r0, r0
d0028200:	01000000 	tsteq	r0, r0
d0028204:	ffffff57 	undefined instruction 0xffffff57
d0028208:	ffffffff 	undefined instruction 0xffffffff
d002820c:	ffffffff 	undefined instruction 0xffffffff
d0028210:	ffffffff 	undefined instruction 0xffffffff
d0028214:	ffffffff 	undefined instruction 0xffffffff
d0028218:	00fdffff 	ldrshteq	pc, [sp], #255	; 0xff
d002821c:	00000000 	andeq	r0, r0, r0
d0028220:	01000000 	tsteq	r0, r0
d0028224:	00001011 	andeq	r1, r0, r1, lsl r0
d0028228:	ff7f1110 	undefined instruction 0xff7f1110
d002822c:	50f5ffff 	ldrshtpl	pc, [r5], #255	; 0xff
	...
d002823c:	ffff0100 	undefined instruction 0xffff0100
d0028240:	55ffffff 	ldrbpl	pc, [pc, #4095]!	; d0029247 <gImage_pic+0x687b>
d0028244:	00001055 	andeq	r1, r0, r5, asr r0
d0028248:	00000000 	andeq	r0, r0, r0
d002824c:	aa020000 	bge	d00a8254 <bss_end+0x72c84>
d0028250:	fefeeeaa 	cdp2	14, 15, cr14, cr14, cr10, {5}
d0028254:	fffffeff 	undefined instruction 0xfffffeff
d0028258:	fefefeff 	mrc2	14, 7, pc, cr14, cr15, {7}
d002825c:	fefefeff 	mrc2	14, 7, pc, cr14, cr15, {7}
d0028260:	eefefefe 	mrc	14, 7, pc, cr14, cr14, {7}
d0028264:	00a0eaee 	adceq	lr, r0, lr, ror #21
d0028268:	00000000 	andeq	r0, r0, r0
d002826c:	aaaa0000 	bge	ceaa8274 <_start-0x1577d9c>
d0028270:	aaaaaaaa 	bge	cead2d20 <_start-0x154d2f0>
d0028274:	eaaaaaaa 	b	cead2d24 <_start-0x154d2ec>
d0028278:	20aaaaea 	adccs	sl, sl, sl, ror #21
	...
d0028284:	22000000 	andcs	r0, r0, #0
d0028288:	aaaaaaaa 	bge	cead2d38 <_start-0x154d2d8>
d002828c:	aaaaaaaa 	bge	cead2d3c <_start-0x154d2d4>
d0028290:	000000aa 	andeq	r0, r0, sl, lsr #1
d0028294:	00000000 	andeq	r0, r0, r0
d0028298:	ff5f0000 	undefined instruction 0xff5f0000
d002829c:	ffffffff 	undefined instruction 0xffffffff
d00282a0:	ffffffff 	undefined instruction 0xffffffff
d00282a4:	ffffffff 	undefined instruction 0xffffffff
d00282a8:	ffffffff 	undefined instruction 0xffffffff
d00282ac:	ffffffff 	undefined instruction 0xffffffff
d00282b0:	000000ff 	strdeq	r0, [r0], -pc
d00282b4:	00000000 	andeq	r0, r0, r0
d00282b8:	40540400 	subsmi	r0, r4, r0, lsl #8
d00282bc:	00000000 	andeq	r0, r0, r0
d00282c0:	ffffff5f 	undefined instruction 0xffffff5f
d00282c4:	0000d4fd 	strdeq	sp, [r0], -sp
	...
d00282d0:	5d000000 	stcpl	0, cr0, [r0]
d00282d4:	fdffffff 	ldc2l	15, cr15, [pc, #1020]!	; 0x3fc
d00282d8:	0044d4dd 	ldrdeq	sp, [r4], #-77	; 0xffffffb3
d00282dc:	00800080 	addeq	r0, r0, r0, lsl #1
d00282e0:	00000080 	andeq	r0, r0, r0, lsl #1
d00282e4:	ffbbab8a 	undefined instruction 0xffbbab8a
d00282e8:	ffffffff 	undefined instruction 0xffffffff
d00282ec:	ffffffff 	undefined instruction 0xffffffff
d00282f0:	ffffffff 	undefined instruction 0xffffffff
d00282f4:	ffffffff 	undefined instruction 0xffffffff
d00282f8:	ffffffff 	undefined instruction 0xffffffff
d00282fc:	888888a8 	stmhi	r8, {r3, r5, r7, fp, pc}
d0028300:	88888888 	stmhi	r8, {r3, r7, fp, pc}
d0028304:	a8aaaaaa 	stmiage	sl!, {r1, r3, r5, r7, r9, fp, sp, pc}
d0028308:	abaaaaa8 	blge	cead2db0 <_start-0x154d260>
d002830c:	abbbbbbb 	blge	cef17200 <_start-0x1108e10>
d0028310:	888888aa 	stmhi	r8, {r1, r3, r5, r7, fp, pc}
d0028314:	80808080 	addhi	r8, r0, r0, lsl #1
d0028318:	88808080 	stmhi	r0, {r7, pc}
d002831c:	abab8a88 	blge	ceb0ad44 <_start-0x15152cc>
d0028320:	aaaaaaab 	bge	cead2dd4 <_start-0x154d23c>
d0028324:	00aaaaaa 	adceq	sl, sl, sl, lsr #21
d0028328:	00000000 	andeq	r0, r0, r0
d002832c:	01000000 	tsteq	r0, r0
d0028330:	ffffff7f 	undefined instruction 0xffffff7f
d0028334:	ffffffff 	undefined instruction 0xffffffff
d0028338:	ffffffff 	undefined instruction 0xffffffff
d002833c:	ffffffff 	undefined instruction 0xffffffff
d0028340:	ffffffff 	undefined instruction 0xffffffff
d0028344:	c0ffffff 	ldrshtgt	pc, [pc, #255]	; d002844b <gImage_pic+0x5a7f>
d0028348:	00000000 	andeq	r0, r0, r0
d002834c:	57010000 	strpl	r0, [r1, -r0]
d0028350:	00005155 	andeq	r5, r0, r5, asr r1
d0028354:	ff570111 	undefined instruction 0xff570111
d0028358:	ffffffff 	undefined instruction 0xffffffff
	...
d0028368:	ffffff15 	undefined instruction 0xffffff15
d002836c:	55f7ffff 	ldrbpl	pc, [r7, #4095]!	; 0xfff
d0028370:	00000051 	andeq	r0, r0, r1, asr r0
d0028374:	00000000 	andeq	r0, r0, r0
d0028378:	ae020000 	cdpge	0, 0, cr0, cr2, cr0, {0}
d002837c:	efefefef 	svc	0x00efefef
d0028380:	ffffffff 	undefined instruction 0xffffffff
d0028384:	ffffffff 	undefined instruction 0xffffffff
d0028388:	ffffffff 	undefined instruction 0xffffffff
d002838c:	efefefff 	svc	0x00efefff
d0028390:	a2aaeeee 	adcge	lr, sl, #3808	; 0xee0
d0028394:	22a2aaaa 	adccs	sl, r2, #696320	; 0xaa000
d0028398:	aaaa22a2 	bge	ceab0e28 <_start-0x156f1e8>
d002839c:	aaaaaaaa 	bge	cead2e4c <_start-0x154d1c4>
d00283a0:	aaaaaaaa 	bge	cead2e50 <_start-0x154d1c0>
d00283a4:	aaaaaeae 	bge	cead3e64 <_start-0x154c1ac>
d00283a8:	000002a2 	andeq	r0, r0, r2, lsr #5
d00283ac:	02000000 	andeq	r0, r0, #0
d00283b0:	aa220202 	bge	d08a8bc0 <bss_end+0x8735f0>
d00283b4:	aaaaaaaa 	bge	cead2e64 <_start-0x154d1ac>
d00283b8:	aaaaaaaa 	bge	cead2e68 <_start-0x154d1a8>
d00283bc:	000000aa 	andeq	r0, r0, sl, lsr #1
d00283c0:	00000000 	andeq	r0, r0, r0
d00283c4:	ff7f0000 	undefined instruction 0xff7f0000
d00283c8:	ffffffff 	undefined instruction 0xffffffff
d00283cc:	ffffffff 	undefined instruction 0xffffffff
d00283d0:	ffffffff 	undefined instruction 0xffffffff
d00283d4:	ffffffff 	undefined instruction 0xffffffff
d00283d8:	ffffffff 	undefined instruction 0xffffffff
d00283dc:	0000d0ff 	strdeq	sp, [r0], -pc
d00283e0:	00000004 	andeq	r0, r0, r4
d00283e4:	44dd5d01 	ldrbmi	r5, [sp], #3329	; 0xd01
d00283e8:	40050000 	andmi	r0, r5, r0
d00283ec:	ffffff5d 	undefined instruction 0xffffff5d
d00283f0:	00c0ffff 	strdeq	pc, [r0], #255	; 0xff
	...
d00283fc:	ff5f0400 	undefined instruction 0xff5f0400
d0028400:	fdffffff 	ldc2l	15, cr15, [pc, #1020]!	; 0x3fc
d0028404:	0044d4dd 	ldrdeq	sp, [r4], #-77	; 0xffffffb3
	...
d0028410:	ffffbb0a 	undefined instruction 0xffffbb0a
d0028414:	ffffffff 	undefined instruction 0xffffffff
d0028418:	ffffffff 	undefined instruction 0xffffffff
d002841c:	ffffffff 	undefined instruction 0xffffffff
d0028420:	ffffffff 	undefined instruction 0xffffffff
d0028424:	ffffffff 	undefined instruction 0xffffffff
d0028428:	aa88aaea 	bge	ce252fd8 <_start-0x1dcd038>
d002842c:	8a8a8888 	bhi	ce2ca654 <_start-0x1d559bc>
d0028430:	aaaaaaaa 	bge	cead2ee0 <_start-0x154d130>
d0028434:	aaaaaaaa 	bge	cead2ee4 <_start-0x154d12c>
d0028438:	bbbbbbaa 	bllt	cef172e8 <_start-0x1108d28>
d002843c:	88a8aaba 	stmiahi	r8!, {r1, r3, r4, r5, r7, r9, fp, sp, pc}
d0028440:	88888888 	stmhi	r8, {r3, r7, fp, pc}
d0028444:	8a888888 	bhi	ce24a66c <_start-0x1dd59a4>
d0028448:	bbbbaaaa 	bllt	cef12ef8 <_start-0x110d118>
d002844c:	aaaaaaba 	bge	cead2f3c <_start-0x154d0d4>
d0028450:	00aaaaaa 	adceq	sl, sl, sl, lsr #21
d0028454:	00000000 	andeq	r0, r0, r0
d0028458:	01000000 	tsteq	r0, r0
d002845c:	ffffff7f 	undefined instruction 0xffffff7f
d0028460:	ffffffff 	undefined instruction 0xffffffff
d0028464:	ffffffff 	undefined instruction 0xffffffff
d0028468:	ffffffff 	undefined instruction 0xffffffff
d002846c:	ffffffff 	undefined instruction 0xffffffff
d0028470:	fcffffff 	ldc2l	15, cr15, [pc], #1020	; 0x3fc
d0028474:	00010010 	andeq	r0, r1, r0, lsl r0
d0028478:	ff150000 	undefined instruction 0xff150000
d002847c:	111151f5 	ldrshne	r5, [r1, -r5]
d0028480:	ff575115 	undefined instruction 0xff575115
d0028484:	ffffffff 	undefined instruction 0xffffffff
d0028488:	000050f5 	strdeq	r5, [r0], -r5
d002848c:	00000000 	andeq	r0, r0, r0
d0028490:	57110000 	ldrpl	r0, [r1, -r0]
d0028494:	ffffffff 	undefined instruction 0xffffffff
d0028498:	5575ffff 	ldrbpl	pc, [r5, #-4095]!	; 0xfff
d002849c:	00000011 	andeq	r0, r0, r1, lsl r0
d00284a0:	00000000 	andeq	r0, r0, r0
d00284a4:	ae0a0000 	cdpge	0, 0, cr0, cr10, cr0, {0}
d00284a8:	fefeeeee 	cdp2	14, 15, cr14, cr14, cr14, {7}
d00284ac:	fffffffe 	undefined instruction 0xfffffffe
d00284b0:	fefeffff 	mrc2	15, 7, pc, cr14, cr15, {7}
d00284b4:	fefefefe 	mrc2	14, 7, pc, cr14, cr14, {7}
d00284b8:	eeeefefe 	mcr	14, 7, pc, cr14, cr14, {7}
d00284bc:	aaeaeeee 	bge	cfae407c <_start-0x53bf94>
d00284c0:	aaaaaaaa 	bge	cead2f70 <_start-0x154d0a0>
d00284c4:	aaaaaaaa 	bge	cead2f74 <_start-0x154d09c>
d00284c8:	aaaaaaaa 	bge	cead2f78 <_start-0x154d098>
d00284cc:	aaaaaaaa 	bge	cead2f7c <_start-0x154d094>
d00284d0:	aaaaaaaa 	bge	cead2f80 <_start-0x154d090>
d00284d4:	aaaaaaaa 	bge	cead2f84 <_start-0x154d08c>
d00284d8:	22222222 	eorcs	r2, r2, #536870914	; 0x20000002
d00284dc:	aaaaaaaa 	bge	cead2f8c <_start-0x154d084>
d00284e0:	aaaaaaaa 	bge	cead2f90 <_start-0x154d080>
d00284e4:	aaaaaaaa 	bge	cead2f94 <_start-0x154d07c>
d00284e8:	000000aa 	andeq	r0, r0, sl, lsr #1
d00284ec:	00000000 	andeq	r0, r0, r0
d00284f0:	ffff0100 	undefined instruction 0xffff0100
d00284f4:	ffffffff 	undefined instruction 0xffffffff
d00284f8:	ffffffff 	undefined instruction 0xffffffff
d00284fc:	ffffffff 	undefined instruction 0xffffffff
d0028500:	ffffffff 	undefined instruction 0xffffffff
d0028504:	ffffffff 	undefined instruction 0xffffffff
d0028508:	04c0fdff 	strbeq	pc, [r0], #3583	; 0xdff
d002850c:	54040044 	strpl	r0, [r4], #-68	; 0x44
d0028510:	44ddfd05 	ldrbmi	pc, [sp], #3333	; 0xd05
d0028514:	c05d5454 	subsgt	r5, sp, r4, asr r4
d0028518:	fffffd55 	undefined instruction 0xfffffd55
d002851c:	fdffffff 	ldc2l	15, cr15, [pc, #1020]!	; 0x3fc
d0028520:	000040d4 	ldrdeq	r4, [r0], -r4
d0028524:	45000000 	strmi	r0, [r0]
d0028528:	ffffffdf 	undefined instruction 0xffffffdf
d002852c:	ddfdffff 	ldclle	15, cr15, [sp, #1020]!	; 0x3fc
d0028530:	0040c4dd 	ldrdeq	ip, [r0], #-77	; 0xffffffb3
d0028534:	00008000 	andeq	r8, r0, r0
d0028538:	00008000 	andeq	r8, r0, r0
d002853c:	ffffbb8a 	undefined instruction 0xffffbb8a
d0028540:	ffffffff 	undefined instruction 0xffffffff
d0028544:	ffffffff 	undefined instruction 0xffffffff
d0028548:	ffffffff 	undefined instruction 0xffffffff
d002854c:	ffffffff 	undefined instruction 0xffffffff
d0028550:	fbffffff 	blx	d0028556 <gImage_pic+0x5b8a>
d0028554:	aa8aa8fb 	bge	ce2d2948 <_start-0x1d4d6c8>
d0028558:	abaaaaaa 	blge	cead3008 <_start-0x154d008>
d002855c:	aaaaaaaa 	bge	cead300c <_start-0x154d004>
d0028560:	aaaaaaaa 	bge	cead3010 <_start-0x154d000>
d0028564:	ababaaaa 	blge	ceb13014 <_start-0x150cffc>
d0028568:	aaaaabab 	bge	cead341c <_start-0x154cbf4>
d002856c:	aaaaaaaa 	bge	cead301c <_start-0x154cff4>
d0028570:	abaaaaaa 	blge	cead3020 <_start-0x154cff0>
d0028574:	bbbbbbab 	bllt	cef17428 <_start-0x1108be8>
d0028578:	aaaaaaab 	bge	cead302c <_start-0x154cfe4>
d002857c:	00a8aaaa 	adceq	sl, r8, sl, lsr #21
d0028580:	00000000 	andeq	r0, r0, r0
d0028584:	01000000 	tsteq	r0, r0
d0028588:	ffffffff 	undefined instruction 0xffffffff
d002858c:	ffffffff 	undefined instruction 0xffffffff
d0028590:	ffffffff 	undefined instruction 0xffffffff
d0028594:	ffffffff 	undefined instruction 0xffffffff
d0028598:	ffffffff 	undefined instruction 0xffffffff
d002859c:	ffffffff 	undefined instruction 0xffffffff
d00285a0:	010100d5 	ldrdeq	r0, [r1, -r5]
d00285a4:	ff57f557 	undefined instruction 0xff57f557
d00285a8:	757755f5 	ldrbvc	r5, [r7, #-1525]!	; 0x5f5
d00285ac:	ff575157 	undefined instruction 0xff575157
d00285b0:	ffffffff 	undefined instruction 0xffffffff
d00285b4:	ffffffff 	undefined instruction 0xffffffff
d00285b8:	555555f7 	ldrbpl	r5, [r5, #-1527]	; 0x5f7
d00285bc:	ffffff57 	undefined instruction 0xffffff57
d00285c0:	ffffffff 	undefined instruction 0xffffffff
d00285c4:	5555f7ff 	ldrbpl	pc, [r5, #-2047]	; 0x7ff
d00285c8:	00000011 	andeq	r0, r0, r1, lsl r0
d00285cc:	00000000 	andeq	r0, r0, r0
d00285d0:	ee0a0000 	cdp	0, 0, cr0, cr10, cr0, {0}
d00285d4:	ffefefee 	undefined instruction 0xffefefee
d00285d8:	ffffffff 	undefined instruction 0xffffffff
d00285dc:	ffffffff 	undefined instruction 0xffffffff
d00285e0:	ffefffff 	undefined instruction 0xffefffff
d00285e4:	eeefefef 	cdp	15, 14, cr14, cr15, cr15, {7}
d00285e8:	aaeeeeee 	bge	cfbe41a8 <_start-0x43be68>
d00285ec:	aaaaaaaa 	bge	cead309c <_start-0x154cf74>
d00285f0:	aaaaaaaa 	bge	cead30a0 <_start-0x154cf70>
d00285f4:	aaaaaaaa 	bge	cead30a4 <_start-0x154cf6c>
d00285f8:	aaaaaaaa 	bge	cead30a8 <_start-0x154cf68>
d00285fc:	aaaaaaaa 	bge	cead30ac <_start-0x154cf64>
d0028600:	aaaaaaaa 	bge	cead30b0 <_start-0x154cf60>
d0028604:	aaaaaaaa 	bge	cead30b4 <_start-0x154cf5c>
d0028608:	aaaaaaaa 	bge	cead30b8 <_start-0x154cf58>
d002860c:	aaaaaaae 	bge	cead30cc <_start-0x154cf44>
d0028610:	aaaaaaaa 	bge	cead30c0 <_start-0x154cf50>
d0028614:	000000aa 	andeq	r0, r0, sl, lsr #1
d0028618:	00000000 	andeq	r0, r0, r0
d002861c:	ffff0500 	undefined instruction 0xffff0500
d0028620:	ffffffff 	undefined instruction 0xffffffff
d0028624:	ffffffff 	undefined instruction 0xffffffff
d0028628:	ffffffff 	undefined instruction 0xffffffff
d002862c:	ffffffff 	undefined instruction 0xffffffff
d0028630:	ffffffff 	undefined instruction 0xffffffff
d0028634:	55fdffff 	ldrbpl	pc, [sp, #4095]!	; 0xfff
d0028638:	ddff0554 	cfldr64le	mvdx0, [pc, #336]!	; 0x150
d002863c:	dfddffdf 	svcle	0x00ddffdf
d0028640:	c45dddff 	ldrbgt	sp, [sp], #-3583	; 0xdff
d0028644:	ffffdf45 	undefined instruction 0xffffdf45
d0028648:	ffffffff 	undefined instruction 0xffffffff
d002864c:	ffffffff 	undefined instruction 0xffffffff
d0028650:	ffffffff 	undefined instruction 0xffffffff
d0028654:	ffffffff 	undefined instruction 0xffffffff
d0028658:	ddffffff 	ldclle	15, cr15, [pc, #1020]!	; 0x3fc
d002865c:	000044dd 	ldrdeq	r4, [r0], -sp
	...
d0028668:	ffbfbb0a 	undefined instruction 0xffbfbb0a
d002866c:	ffffffff 	undefined instruction 0xffffffff
d0028670:	ffffffff 	undefined instruction 0xffffffff
d0028674:	ffffffff 	undefined instruction 0xffffffff
d0028678:	ffffffff 	undefined instruction 0xffffffff
d002867c:	ffffffff 	undefined instruction 0xffffffff
d0028680:	aaaabaff 	bge	cead7284 <_start-0x1548d8c>
d0028684:	bbaaba8a 	bllt	cead70b4 <_start-0x1548f5c>
d0028688:	aaaaaaaa 	bge	cead3138 <_start-0x154ced8>
d002868c:	aaaaaaaa 	bge	cead313c <_start-0x154ced4>
d0028690:	aaaaaaaa 	bge	cead3140 <_start-0x154ced0>
d0028694:	bbbbabaa 	bllt	cef13544 <_start-0x110cacc>
d0028698:	bbbbbbbb 	bllt	cef1758c <_start-0x1108a84>
d002869c:	bbbbbbbb 	bllt	cef17590 <_start-0x1108a80>
d00286a0:	bbbbbbbb 	bllt	cef17594 <_start-0x1108a7c>
d00286a4:	aaaaaaba 	bge	cead3194 <_start-0x154ce7c>
d00286a8:	00a8aaaa 	adceq	sl, r8, sl, lsr #21
d00286ac:	00000000 	andeq	r0, r0, r0
d00286b0:	05000000 	streq	r0, [r0]
d00286b4:	ffffffff 	undefined instruction 0xffffffff
d00286b8:	ffffffff 	undefined instruction 0xffffffff
d00286bc:	ffffffff 	undefined instruction 0xffffffff
d00286c0:	ffffffff 	undefined instruction 0xffffffff
d00286c4:	ffffffff 	undefined instruction 0xffffffff
d00286c8:	ffffffff 	undefined instruction 0xffffffff
d00286cc:	0550ffff 	ldrbeq	pc, [r0, #-4095]	; 0xfff
d00286d0:	ffffff7f 	undefined instruction 0xffffff7f
d00286d4:	f5ffffff 	undefined instruction 0xf5ffffff
d00286d8:	7f155555 	svcvc	0x00155555
d00286dc:	ffffffff 	undefined instruction 0xffffffff
d00286e0:	ffffffff 	undefined instruction 0xffffffff
d00286e4:	ffffffff 	undefined instruction 0xffffffff
d00286e8:	ffffffff 	undefined instruction 0xffffffff
d00286ec:	ffffffff 	undefined instruction 0xffffffff
d00286f0:	5155ffff 	ldrshpl	pc, [r5, #-255]	; 0xffffff01
d00286f4:	00000010 	andeq	r0, r0, r0, lsl r0
d00286f8:	00000000 	andeq	r0, r0, r0
d00286fc:	aa2a0000 	bge	d0aa8704 <bss_end+0xa73134>
d0028700:	fefefeee 	cdp2	14, 15, cr15, cr14, cr14, {7}
d0028704:	fffffeff 	undefined instruction 0xfffffeff
d0028708:	fefeffff 	mrc2	15, 7, pc, cr14, cr15, {7}
d002870c:	fefefeff 	mrc2	14, 7, pc, cr14, cr15, {7}
d0028710:	eeeefefe 	mcr	14, 7, pc, cr14, cr14, {7}
d0028714:	eeeeeeee 	cdp	14, 14, cr14, cr14, cr14, {7}
d0028718:	aa2aaafe 	bge	d0ad3318 <bss_end+0xa9dd48>
d002871c:	aaaaeaaa 	bge	ceae31cc <_start-0x153ce44>
d0028720:	aaaaaaaa 	bge	cead31d0 <_start-0x154ce40>
d0028724:	aaaaaaaa 	bge	cead31d4 <_start-0x154ce3c>
d0028728:	aaaaaaaa 	bge	cead31d8 <_start-0x154ce38>
d002872c:	aaaaaaaa 	bge	cead31dc <_start-0x154ce34>
d0028730:	aaaaaaaa 	bge	cead31e0 <_start-0x154ce30>
d0028734:	aaaaaaaa 	bge	cead31e4 <_start-0x154ce2c>
d0028738:	aaaaaaea 	bge	cead32e8 <_start-0x154cd28>
d002873c:	aaaaaaaa 	bge	cead31ec <_start-0x154ce24>
d0028740:	000000aa 	andeq	r0, r0, sl, lsr #1
d0028744:	00000000 	andeq	r0, r0, r0
d0028748:	ffff0500 	undefined instruction 0xffff0500
d002874c:	ffffffff 	undefined instruction 0xffffffff
d0028750:	ffffffff 	undefined instruction 0xffffffff
d0028754:	ffffffff 	undefined instruction 0xffffffff
d0028758:	ffffffff 	undefined instruction 0xffffffff
d002875c:	ffffffff 	undefined instruction 0xffffffff
d0028760:	ffffffff 	undefined instruction 0xffffffff
d0028764:	ff5f00c0 	undefined instruction 0xff5f00c0
d0028768:	fffffdff 	undefined instruction 0xfffffdff
d002876c:	d455fcff 	ldrble	pc, [r5], #-3327	; 0xcff
d0028770:	fffddf45 	undefined instruction 0xfffddf45
d0028774:	ffffffff 	undefined instruction 0xffffffff
d0028778:	ffffffff 	undefined instruction 0xffffffff
d002877c:	ffffffff 	undefined instruction 0xffffffff
d0028780:	ffffffff 	undefined instruction 0xffffffff
d0028784:	ddfdffff 	ldclle	15, cr15, [sp, #1020]!	; 0x3fc
d0028788:	000040d4 	ldrdeq	r4, [r0], -r4
d002878c:	00800000 	addeq	r0, r0, r0
d0028790:	00000080 	andeq	r0, r0, r0, lsl #1
d0028794:	ffbfbb8a 	undefined instruction 0xffbfbb8a
d0028798:	ffffffff 	undefined instruction 0xffffffff
d002879c:	ffffffff 	undefined instruction 0xffffffff
d00287a0:	ffffffff 	undefined instruction 0xffffffff
d00287a4:	ffffffff 	undefined instruction 0xffffffff
d00287a8:	fbffffff 	blx	d00287ae <gImage_pic+0x5de2>
d00287ac:	a8fffffb 	ldmge	pc!, {r0, r1, r3, r4, r5, r6, r7, r8, r9, sl, fp, ip, sp, lr, pc}^
d00287b0:	aaabaa8a 	bge	ceb131e0 <_start-0x150ce30>
d00287b4:	abbbabaa 	blge	cef13664 <_start-0x110c9ac>
d00287b8:	aaaaaaaa 	bge	cead3268 <_start-0x154cda8>
d00287bc:	abaaaaaa 	blge	cead326c <_start-0x154cda4>
d00287c0:	abababaa 	blge	ceb13670 <_start-0x150c9a0>
d00287c4:	abababab 	blge	ceb13678 <_start-0x150c998>
d00287c8:	bbbbbbab 	bllt	cef1767c <_start-0x1108994>
d00287cc:	bbbbbbbb 	bllt	cef176c0 <_start-0x1108950>
d00287d0:	aaaaaaab 	bge	cead3284 <_start-0x154cd8c>
d00287d4:	00a8aaaa 	adceq	sl, r8, sl, lsr #21
d00287d8:	00000000 	andeq	r0, r0, r0
d00287dc:	01000000 	tsteq	r0, r0
d00287e0:	ffffff7f 	undefined instruction 0xffffff7f
d00287e4:	ffffffff 	undefined instruction 0xffffffff
d00287e8:	ffffffff 	undefined instruction 0xffffffff
d00287ec:	ffffffff 	undefined instruction 0xffffffff
d00287f0:	ffffffff 	undefined instruction 0xffffffff
d00287f4:	ffffffff 	undefined instruction 0xffffffff
d00287f8:	01d0ffff 	ldrsheq	pc, [r0, #255]	; 0xff
d00287fc:	f7ffff17 	undefined instruction 0xf7ffff17
d0028800:	f5ffffff 	undefined instruction 0xf5ffffff
d0028804:	7f115555 	svcvc	0x00115555
d0028808:	ffffffff 	undefined instruction 0xffffffff
d002880c:	ffffffff 	undefined instruction 0xffffffff
d0028810:	ffffffff 	undefined instruction 0xffffffff
d0028814:	ffffffff 	undefined instruction 0xffffffff
d0028818:	ffffffff 	undefined instruction 0xffffffff
d002881c:	5155f7ff 	ldrshpl	pc, [r5, #-127]	; 0xffffff81
	...
d0028828:	aa2a0000 	bge	d0aa8830 <bss_end+0xa73260>
d002882c:	efefefef 	svc	0x00efefef
d0028830:	ffffffff 	undefined instruction 0xffffffff
d0028834:	ffffffff 	undefined instruction 0xffffffff
d0028838:	efffffff 	svc	0x00ffffff
d002883c:	eeefefef 	cdp	15, 14, cr14, cr15, cr15, {7}
d0028840:	efeeeeee 	svc	0x00eeeeee
d0028844:	aaa2aaee 	bge	ce8d3404 <_start-0x174cc0c>
d0028848:	aeaaaaaa 	vfmage.f32	s20, s21, s21
d002884c:	aaaaaaaa 	bge	cead32fc <_start-0x154cd14>
d0028850:	aaaaaaaa 	bge	cead3300 <_start-0x154cd10>
d0028854:	aaaaaaaa 	bge	cead3304 <_start-0x154cd0c>
d0028858:	aaaaaaaa 	bge	cead3308 <_start-0x154cd08>
d002885c:	aaaaaaaa 	bge	cead330c <_start-0x154cd04>
d0028860:	aeaeaeaa 	cdpge	14, 10, cr10, cr14, cr10, {5}
d0028864:	aaaaaaae 	bge	cead3324 <_start-0x154ccec>
d0028868:	aaaaaaaa 	bge	cead3318 <_start-0x154ccf8>
d002886c:	000000aa 	andeq	r0, r0, sl, lsr #1
d0028870:	00000000 	andeq	r0, r0, r0
d0028874:	ff5f0100 	undefined instruction 0xff5f0100
d0028878:	ffffffff 	undefined instruction 0xffffffff
d002887c:	ffffffff 	undefined instruction 0xffffffff
d0028880:	ffffffff 	undefined instruction 0xffffffff
d0028884:	ffffffff 	undefined instruction 0xffffffff
d0028888:	ffffffff 	undefined instruction 0xffffffff
d002888c:	ffffffff 	undefined instruction 0xffffffff
d0028890:	550400d4 	strpl	r0, [r4, #-212]	; 0xd4
d0028894:	ffffdfdd 	undefined instruction 0xffffdfdd
d0028898:	dc45dcff 	mcrrle	12, 15, sp, r5, cr15
d002889c:	ffff5f05 	undefined instruction 0xffff5f05
d00288a0:	ffffffff 	undefined instruction 0xffffffff
d00288a4:	ffffffff 	undefined instruction 0xffffffff
d00288a8:	ffffffff 	undefined instruction 0xffffffff
d00288ac:	ffffffff 	undefined instruction 0xffffffff
d00288b0:	ddffffff 	ldclle	15, cr15, [pc, #1020]!	; 0x3fc
d00288b4:	00004454 	andeq	r4, r0, r4, asr r4
	...
d00288c0:	ffbfaa8a 	undefined instruction 0xffbfaa8a
d00288c4:	ffffffff 	undefined instruction 0xffffffff
d00288c8:	ffffffff 	undefined instruction 0xffffffff
d00288cc:	ffffffff 	undefined instruction 0xffffffff
d00288d0:	ffffffff 	undefined instruction 0xffffffff
d00288d4:	bfffffff 	svclt	0x00ffffff
d00288d8:	aafbbfbb 	bge	cff187cc <_start-0x107844>
d00288dc:	aaaa8a88 	bge	ceacb304 <_start-0x1554d0c>
d00288e0:	bbbbbbaa 	bllt	cef17790 <_start-0x1108880>
d00288e4:	aaaaaaaa 	bge	cead3394 <_start-0x154cc7c>
d00288e8:	aaaaaaaa 	bge	cead3398 <_start-0x154cc78>
d00288ec:	aaaaaaaa 	bge	cead339c <_start-0x154cc74>
d00288f0:	bbbabbaa 	bllt	ceed77a0 <_start-0x1148870>
d00288f4:	bbbbbbbb 	bllt	cef177e8 <_start-0x1108828>
d00288f8:	bbbbbbbb 	bllt	cef177ec <_start-0x1108824>
d00288fc:	aaaaaaaa 	bge	cead33ac <_start-0x154cc64>
d0028900:	0088aaaa 	addeq	sl, r8, sl, lsr #21
d0028904:	00000000 	andeq	r0, r0, r0
d0028908:	01000000 	tsteq	r0, r0
d002890c:	ffffff5f 	undefined instruction 0xffffff5f
d0028910:	ffffffff 	undefined instruction 0xffffffff
d0028914:	ffffffff 	undefined instruction 0xffffffff
d0028918:	ffffffff 	undefined instruction 0xffffffff
d002891c:	ffffffff 	undefined instruction 0xffffffff
d0028920:	ffffffff 	undefined instruction 0xffffffff
d0028924:	00f0ffff 	ldrshteq	pc, [r0], #255	; 0xff
d0028928:	7f551100 	svcvc	0x00551100
d002892c:	f5ffffff 	undefined instruction 0xf5ffffff
d0028930:	7f115511 	svcvc	0x00115511
d0028934:	ffffffff 	undefined instruction 0xffffffff
d0028938:	ffffffff 	undefined instruction 0xffffffff
d002893c:	ffffffff 	undefined instruction 0xffffffff
d0028940:	ffffffff 	undefined instruction 0xffffffff
d0028944:	ffffffff 	undefined instruction 0xffffffff
d0028948:	1155f5ff 	ldrshne	pc, [r5, #-95]	; 0xffffffa1
	...
d0028954:	aa220000 	bge	d08a895c <bss_end+0x87338c>
d0028958:	fefeeeee 	cdp2	14, 15, cr14, cr14, cr14, {7}
d002895c:	fffffffe 	undefined instruction 0xfffffffe
d0028960:	fefefeff 	mrc2	14, 7, pc, cr14, cr15, {7}
d0028964:	eeeefefe 	mcr	14, 7, pc, cr14, cr14, {7}
d0028968:	eeeefeee 	cdp	14, 14, cr15, cr14, cr14, {7}
d002896c:	eeeeeeee 	cdp	14, 14, cr14, cr14, cr14, {7}
d0028970:	2aa2aaea 	bcs	ce8d3520 <_start-0x174caf0>
d0028974:	eaaaaaaa 	b	cead3424 <_start-0x154cbec>
d0028978:	aaaaaaaa 	bge	cead3428 <_start-0x154cbe8>
d002897c:	aaaaaaaa 	bge	cead342c <_start-0x154cbe4>
d0028980:	aaaaaaaa 	bge	cead3430 <_start-0x154cbe0>
d0028984:	aaaaaaaa 	bge	cead3434 <_start-0x154cbdc>
d0028988:	aaaaaaaa 	bge	cead3438 <_start-0x154cbd8>
d002898c:	eaaaaaaa 	b	cead343c <_start-0x154cbd4>
d0028990:	aaaaaaaa 	bge	cead3440 <_start-0x154cbd0>
d0028994:	aaaaaaaa 	bge	cead3444 <_start-0x154cbcc>
d0028998:	000000aa 	andeq	r0, r0, sl, lsr #1
d002899c:	00000000 	andeq	r0, r0, r0
d00289a0:	ff5d0000 	undefined instruction 0xff5d0000
d00289a4:	ffffffff 	undefined instruction 0xffffffff
d00289a8:	ffffffff 	undefined instruction 0xffffffff
d00289ac:	ffffffff 	undefined instruction 0xffffffff
d00289b0:	ffffffff 	undefined instruction 0xffffffff
d00289b4:	ffffffff 	undefined instruction 0xffffffff
d00289b8:	ffffffff 	undefined instruction 0xffffffff
d00289bc:	000000d4 	ldrdeq	r0, [r0], -r4
d00289c0:	ffffff55 	undefined instruction 0xffffff55
d00289c4:	5400d4ff 	strpl	sp, [r0], #-1279	; 0x4ff
d00289c8:	ffff5f44 	undefined instruction 0xffff5f44
d00289cc:	ffffffff 	undefined instruction 0xffffffff
d00289d0:	ffffffff 	undefined instruction 0xffffffff
d00289d4:	ffffffff 	undefined instruction 0xffffffff
d00289d8:	ffffffff 	undefined instruction 0xffffffff
d00289dc:	ddfdfdff 	ldclle	13, cr15, [sp, #1020]!	; 0x3fc
d00289e0:	000040d4 	ldrdeq	r4, [r0], -r4
d00289e4:	00008000 	andeq	r8, r0, r0
d00289e8:	00000000 	andeq	r0, r0, r0
d00289ec:	ffbfab88 	undefined instruction 0xffbfab88
d00289f0:	ffffffff 	undefined instruction 0xffffffff
d00289f4:	ffffffff 	undefined instruction 0xffffffff
d00289f8:	ffffffff 	undefined instruction 0xffffffff
d00289fc:	ffffffff 	undefined instruction 0xffffffff
d0028a00:	bbfbfbfb 	bllt	cff279f4 <_start-0xf861c>
d0028a04:	aafbffbb 	bge	cff288f8 <_start-0xf7718>
d0028a08:	aa8a88a8 	bge	ce2cacb0 <_start-0x1d55360>
d0028a0c:	bbabbbab 	bllt	ceb178c0 <_start-0x1508750>
d0028a10:	aaaaaaaa 	bge	cead34c0 <_start-0x154cb50>
d0028a14:	aaabaaaa 	bge	ceb134c4 <_start-0x150cb4c>
d0028a18:	abababab 	blge	ceb138cc <_start-0x150c744>
d0028a1c:	abababab 	blge	ceb138d0 <_start-0x150c740>
d0028a20:	bbbbbbab 	bllt	cef178d4 <_start-0x110873c>
d0028a24:	bbbbbbbb 	bllt	cef17918 <_start-0x11086f8>
d0028a28:	aaaaaaaa 	bge	cead34d8 <_start-0x154cb38>
d0028a2c:	0088a8aa 	addeq	sl, r8, sl, lsr #17
	...
d0028a38:	ffffff57 	undefined instruction 0xffffff57
d0028a3c:	ffffffff 	undefined instruction 0xffffffff
d0028a40:	ffffffff 	undefined instruction 0xffffffff
d0028a44:	ffffffff 	undefined instruction 0xffffffff
d0028a48:	ffffffff 	undefined instruction 0xffffffff
d0028a4c:	ffffffff 	undefined instruction 0xffffffff
d0028a50:	00f5ffff 	ldrshteq	pc, [r5], #255	; 0xff
d0028a54:	ff570100 	undefined instruction 0xff570100
d0028a58:	f1ffffff 	undefined instruction 0xf1ffffff
d0028a5c:	5f515501 	svcpl	0x00515501
d0028a60:	ffffffff 	undefined instruction 0xffffffff
d0028a64:	ffffffff 	undefined instruction 0xffffffff
d0028a68:	ffffffff 	undefined instruction 0xffffffff
d0028a6c:	ffffffff 	undefined instruction 0xffffffff
d0028a70:	ffffffff 	undefined instruction 0xffffffff
d0028a74:	5155f7ff 	ldrshpl	pc, [r5, #-127]	; 0xffffff81
	...
d0028a80:	aa020000 	bge	d00a8a88 <bss_end+0x734b8>
d0028a84:	ffefefef 	undefined instruction 0xffefefef
d0028a88:	ffffffff 	undefined instruction 0xffffffff
d0028a8c:	ffffffff 	undefined instruction 0xffffffff
d0028a90:	efefefff 	svc	0x00efefff
d0028a94:	eeeeeeef 	cdp	14, 14, cr14, cr14, cr15, {7}
d0028a98:	efaeeeee 	svc	0x00aeeeee
d0028a9c:	aaaaaaea 	bge	cead364c <_start-0x154c9c4>
d0028aa0:	aaaaaaaa 	bge	cead3550 <_start-0x154cac0>
d0028aa4:	aaaaaeaa 	bge	cead4554 <_start-0x154babc>
d0028aa8:	aaaaaaaa 	bge	cead3558 <_start-0x154cab8>
d0028aac:	aaaaaaaa 	bge	cead355c <_start-0x154cab4>
d0028ab0:	aaaaaaaa 	bge	cead3560 <_start-0x154cab0>
d0028ab4:	aaaaaaaa 	bge	cead3564 <_start-0x154caac>
d0028ab8:	aeaeaeae 	cdpge	14, 10, cr10, cr14, cr14, {5}
d0028abc:	aaaaaaae 	bge	cead357c <_start-0x154ca94>
d0028ac0:	aaaaaaaa 	bge	cead3570 <_start-0x154caa0>
d0028ac4:	000000aa 	andeq	r0, r0, sl, lsr #1
d0028ac8:	00000000 	andeq	r0, r0, r0
d0028acc:	ff5f0000 	undefined instruction 0xff5f0000
d0028ad0:	ffffffff 	undefined instruction 0xffffffff
d0028ad4:	ffffffff 	undefined instruction 0xffffffff
d0028ad8:	ffffffff 	undefined instruction 0xffffffff
d0028adc:	ffffffff 	undefined instruction 0xffffffff
d0028ae0:	ffffffff 	undefined instruction 0xffffffff
d0028ae4:	ffffffff 	undefined instruction 0xffffffff
d0028ae8:	050040dd 	streq	r4, [r0, #-221]	; 0xdd
d0028aec:	ffdfdf5d 	undefined instruction 0xffdfdf5d
d0028af0:	5400d4ff 	strpl	sp, [r0], #-1279	; 0x4ff
d0028af4:	ffff5f44 	undefined instruction 0xffff5f44
d0028af8:	ffffffff 	undefined instruction 0xffffffff
d0028afc:	ffffffff 	undefined instruction 0xffffffff
d0028b00:	ffffffff 	undefined instruction 0xffffffff
d0028b04:	ffffffff 	undefined instruction 0xffffffff
d0028b08:	ddddffff 	ldclle	15, cr15, [sp, #1020]	; 0x3fc
d0028b0c:	000044c4 	andeq	r4, r0, r4, asr #9
	...
d0028b18:	ffffab08 	undefined instruction 0xffffab08
d0028b1c:	ffffffff 	undefined instruction 0xffffffff
d0028b20:	ffffffff 	undefined instruction 0xffffffff
d0028b24:	ffffffff 	undefined instruction 0xffffffff
d0028b28:	ffffffff 	undefined instruction 0xffffffff
d0028b2c:	bbbbbbff 	bllt	cef17b30 <_start-0x11084e0>
d0028b30:	aabaffbb 	bge	ceee8a24 <_start-0x11375ec>
d0028b34:	aaaaaaaa 	bge	cead35e4 <_start-0x154ca2c>
d0028b38:	babbaaaa 	blt	cef135e8 <_start-0x110ca28>
d0028b3c:	aaaa8aaa 	bge	ceacb5ec <_start-0x1554a24>
d0028b40:	aaaaaaaa 	bge	cead35f0 <_start-0x154ca20>
d0028b44:	bababaaa 	blt	ceed75f4 <_start-0x1148a1c>
d0028b48:	bbbbaaba 	bllt	cef13638 <_start-0x110c9d8>
d0028b4c:	bbbbbbbb 	bllt	cef17a40 <_start-0x11085d0>
d0028b50:	babbbbbb 	blt	cef17a44 <_start-0x11085cc>
d0028b54:	aaaaaaaa 	bge	cead3604 <_start-0x154ca0c>
d0028b58:	0088aaaa 	addeq	sl, r8, sl, lsr #21
	...
d0028b64:	ffffff5f 	undefined instruction 0xffffff5f
d0028b68:	ffffffff 	undefined instruction 0xffffffff
d0028b6c:	ffffffff 	undefined instruction 0xffffffff
d0028b70:	ffffffff 	undefined instruction 0xffffffff
d0028b74:	ffffffff 	undefined instruction 0xffffffff
d0028b78:	ffffffff 	undefined instruction 0xffffffff
d0028b7c:	51f5ffff 	ldrshpl	pc, [r5, #255]!	; 0xff
d0028b80:	557f1501 	ldrbpl	r1, [pc, #-1281]!	; d0028687 <gImage_pic+0x5cbb>
d0028b84:	d0ffff55 	rscsle	pc, pc, r5, asr pc
d0028b88:	5f155501 	svcpl	0x00155501
d0028b8c:	ffffffff 	undefined instruction 0xffffffff
d0028b90:	ffffffff 	undefined instruction 0xffffffff
d0028b94:	ffffffff 	undefined instruction 0xffffffff
d0028b98:	ffffffff 	undefined instruction 0xffffffff
d0028b9c:	ffffffff 	undefined instruction 0xffffffff
d0028ba0:	115575f7 	ldrshne	r7, [r5, #-87]	; 0xffffffa9
d0028ba4:	00000010 	andeq	r0, r0, r0, lsl r0
d0028ba8:	00000000 	andeq	r0, r0, r0
d0028bac:	aa020000 	bge	d00a8bb4 <bss_end+0x735e4>
d0028bb0:	fefefeee 	cdp2	14, 15, cr15, cr14, cr14, {7}
d0028bb4:	fefffefe 	mrc2	14, 7, pc, cr15, cr14, {7}
d0028bb8:	feffffff 	mrc2	15, 7, pc, cr15, cr15, {7}
d0028bbc:	eefefefe 	mrc	14, 7, pc, cr14, cr14, {7}
d0028bc0:	eeeeeeee 	cdp	14, 14, cr14, cr14, cr14, {7}
d0028bc4:	feeeeaee 	cdp2	10, 14, cr14, cr14, cr14, {7}
d0028bc8:	aaaaaaea 	bge	cead3778 <_start-0x154c898>
d0028bcc:	aaaaaaaa 	bge	cead367c <_start-0x154c994>
d0028bd0:	aaaaaaaa 	bge	cead3680 <_start-0x154c990>
d0028bd4:	aaaaaaaa 	bge	cead3684 <_start-0x154c98c>
d0028bd8:	aaaaaaaa 	bge	cead3688 <_start-0x154c988>
d0028bdc:	aaaaaaaa 	bge	cead368c <_start-0x154c984>
d0028be0:	aaaaaaaa 	bge	cead3690 <_start-0x154c980>
d0028be4:	eaeaaaea 	b	cfad3794 <_start-0x54c87c>
d0028be8:	aaaaaaaa 	bge	cead3698 <_start-0x154c978>
d0028bec:	aaaaaaaa 	bge	cead369c <_start-0x154c974>
d0028bf0:	000000aa 	andeq	r0, r0, sl, lsr #1
d0028bf4:	00000000 	andeq	r0, r0, r0
d0028bf8:	ff5f0000 	undefined instruction 0xff5f0000
d0028bfc:	ffffffff 	undefined instruction 0xffffffff
d0028c00:	ffffffff 	undefined instruction 0xffffffff
d0028c04:	ffffffff 	undefined instruction 0xffffffff
d0028c08:	ffffffff 	undefined instruction 0xffffffff
d0028c0c:	ffffffff 	undefined instruction 0xffffffff
d0028c10:	ffffffff 	undefined instruction 0xffffffff
d0028c14:	5544c4dd 	strbpl	ip, [r4, #-1245]	; 0x4dd
d0028c18:	df4444dd 	svcle	0x004444dd
d0028c1c:	5400d0ff 	strpl	sp, [r0], #-255	; 0xff
d0028c20:	ffff5d44 	undefined instruction 0xffff5d44
d0028c24:	ffffffff 	undefined instruction 0xffffffff
d0028c28:	ffffffff 	undefined instruction 0xffffffff
d0028c2c:	ffffffff 	undefined instruction 0xffffffff
d0028c30:	ffffffff 	undefined instruction 0xffffffff
d0028c34:	ddddfdff 	ldclle	13, cr15, [sp, #1020]	; 0x3fc
d0028c38:	000040d4 	ldrdeq	r4, [r0], -r4
d0028c3c:	00000080 	andeq	r0, r0, r0, lsl #1
d0028c40:	00000000 	andeq	r0, r0, r0
d0028c44:	ffffab08 	undefined instruction 0xffffab08
d0028c48:	ffffffff 	undefined instruction 0xffffffff
d0028c4c:	ffffffff 	undefined instruction 0xffffffff
d0028c50:	ffffffff 	undefined instruction 0xffffffff
d0028c54:	ffffffff 	undefined instruction 0xffffffff
d0028c58:	bbfbfbfb 	bllt	cff27c4c <_start-0xf83c4>
d0028c5c:	aafbffbb 	bge	cff28b50 <_start-0xf74c0>
d0028c60:	aaaaaaaa 	bge	cead3710 <_start-0x154c900>
d0028c64:	bbabaaaa 	bllt	ceb13714 <_start-0x150c8fc>
d0028c68:	aaaaaaaa 	bge	cead3718 <_start-0x154c8f8>
d0028c6c:	abaaaaaa 	blge	cead371c <_start-0x154c8f4>
d0028c70:	abababab 	blge	ceb13b24 <_start-0x150c4ec>
d0028c74:	abababab 	blge	ceb13b28 <_start-0x150c4e8>
d0028c78:	bbbbbbbb 	bllt	cef17b6c <_start-0x11084a4>
d0028c7c:	abbbbbbb 	blge	cef17b70 <_start-0x11084a0>
d0028c80:	aaaaaaaa 	bge	cead3730 <_start-0x154c8e0>
d0028c84:	00a8a8aa 	adceq	sl, r8, sl, lsr #17
d0028c88:	00000000 	andeq	r0, r0, r0
d0028c8c:	01000000 	tsteq	r0, r0
d0028c90:	ffffff7f 	undefined instruction 0xffffff7f
d0028c94:	ffffffff 	undefined instruction 0xffffffff
d0028c98:	ffffffff 	undefined instruction 0xffffffff
d0028c9c:	ffffffff 	undefined instruction 0xffffffff
d0028ca0:	ffffffff 	undefined instruction 0xffffffff
d0028ca4:	ffffffff 	undefined instruction 0xffffffff
d0028ca8:	55f7ffff 	ldrbpl	pc, [r7, #4095]!	; 0xfff
d0028cac:	51755755 	cmnpl	r5, r5, asr r7
d0028cb0:	d0ff5f01 	rscsle	r5, pc, r1, lsl #30
d0028cb4:	57115101 	ldrpl	r5, [r1, -r1, lsl #2]
d0028cb8:	ffffffff 	undefined instruction 0xffffffff
d0028cbc:	ffffffff 	undefined instruction 0xffffffff
d0028cc0:	ffffffff 	undefined instruction 0xffffffff
d0028cc4:	ffffffff 	undefined instruction 0xffffffff
d0028cc8:	ffffffff 	undefined instruction 0xffffffff
d0028ccc:	115555f7 	ldrshne	r5, [r5, #-87]	; 0xffffffa9
	...
d0028cd8:	ae020000 	cdpge	0, 0, cr0, cr2, cr0, {0}
d0028cdc:	ffefefef 	undefined instruction 0xffefefef
d0028ce0:	ffffffff 	undefined instruction 0xffffffff
d0028ce4:	ffffffff 	undefined instruction 0xffffffff
d0028ce8:	efefefff 	svc	0x00efefff
d0028cec:	eeeeeeef 	cdp	14, 14, cr14, cr14, cr15, {7}
d0028cf0:	eeefeeee 	cdp	14, 14, cr14, cr15, cr14, {7}
d0028cf4:	aaaaaaee 	bge	cead38b4 <_start-0x154c75c>
d0028cf8:	aaaaaaaa 	bge	cead37a8 <_start-0x154c868>
d0028cfc:	aaaaaeaa 	bge	cead47ac <_start-0x154b864>
d0028d00:	aaaaaaaa 	bge	cead37b0 <_start-0x154c860>
d0028d04:	aaaaaaaa 	bge	cead37b4 <_start-0x154c85c>
d0028d08:	aaaaaaaa 	bge	cead37b8 <_start-0x154c858>
d0028d0c:	aeaaaaaa 	vfmage.f32	s20, s21, s21
d0028d10:	aeaeaeae 	cdpge	14, 10, cr10, cr14, cr14, {5}
d0028d14:	aaaaaaaa 	bge	cead37c4 <_start-0x154c84c>
d0028d18:	aaaaaaaa 	bge	cead37c8 <_start-0x154c848>
d0028d1c:	000000aa 	andeq	r0, r0, sl, lsr #1
d0028d20:	00000000 	andeq	r0, r0, r0
d0028d24:	ff5f0000 	undefined instruction 0xff5f0000
d0028d28:	ffffffff 	undefined instruction 0xffffffff
d0028d2c:	ffffffff 	undefined instruction 0xffffffff
d0028d30:	ffffffff 	undefined instruction 0xffffffff
d0028d34:	ffffffff 	undefined instruction 0xffffffff
d0028d38:	ffffffff 	undefined instruction 0xffffffff
d0028d3c:	ffffffff 	undefined instruction 0xffffffff
d0028d40:	ddddddfd 	ldclle	13, cr13, [sp, #1012]	; 0x3f4
d0028d44:	5f0040dd 	svcpl	0x000040dd
d0028d48:	4405d4ff 	strmi	sp, [r5], #-1279	; 0x4ff
d0028d4c:	ffff5f00 	undefined instruction 0xffff5f00
d0028d50:	ffffffff 	undefined instruction 0xffffffff
d0028d54:	ffffffff 	undefined instruction 0xffffffff
d0028d58:	ffffffff 	undefined instruction 0xffffffff
d0028d5c:	ffffffff 	undefined instruction 0xffffffff
d0028d60:	ddddddff 	ldclle	13, cr13, [sp, #1020]	; 0x3fc
d0028d64:	00004054 	andeq	r4, r0, r4, asr r0
	...
d0028d70:	ffffbf08 	undefined instruction 0xffffbf08
d0028d74:	ffffffff 	undefined instruction 0xffffffff
d0028d78:	ffffffff 	undefined instruction 0xffffffff
d0028d7c:	ffffffff 	undefined instruction 0xffffffff
d0028d80:	ffffffff 	undefined instruction 0xffffffff
d0028d84:	bbbbbfff 	bllt	cef18d88 <_start-0x1107288>
d0028d88:	aabbffbf 	bge	cef28c8c <_start-0x10f7384>
d0028d8c:	aaaaaaaa 	bge	cead383c <_start-0x154c7d4>
d0028d90:	baaa8aaa 	blt	ceacb840 <_start-0x15547d0>
d0028d94:	aaaaaaaa 	bge	cead3844 <_start-0x154c7cc>
d0028d98:	aaaaaaaa 	bge	cead3848 <_start-0x154c7c8>
d0028d9c:	bbbabaaa 	bllt	ceed784c <_start-0x11487c4>
d0028da0:	bbbbbbba 	bllt	cef17c90 <_start-0x1108380>
d0028da4:	bbbbbbbb 	bllt	cef17c98 <_start-0x1108378>
d0028da8:	aababbbb 	bge	ceed7c9c <_start-0x1148374>
d0028dac:	aaaaaaaa 	bge	cead385c <_start-0x154c7b4>
d0028db0:	008aaaaa 	addeq	sl, sl, sl, lsr #21
	...
d0028dbc:	ffffff7f 	undefined instruction 0xffffff7f
d0028dc0:	ffffffff 	undefined instruction 0xffffffff
d0028dc4:	ffffffff 	undefined instruction 0xffffffff
d0028dc8:	ffffffff 	undefined instruction 0xffffffff
d0028dcc:	ffffffff 	undefined instruction 0xffffffff
d0028dd0:	ffffffff 	undefined instruction 0xffffffff
d0028dd4:	f7ffffff 	undefined instruction 0xf7ffffff
d0028dd8:	50f5ff7f 	rscspl	pc, r5, pc, ror pc
d0028ddc:	f5ff1700 	undefined instruction 0xf5ff1700
d0028de0:	17101015 	undefined instruction 0x17101015
d0028de4:	ffffffff 	undefined instruction 0xffffffff
d0028de8:	ffffffff 	undefined instruction 0xffffffff
d0028dec:	ffffffff 	undefined instruction 0xffffffff
d0028df0:	ffffffff 	undefined instruction 0xffffffff
d0028df4:	ffffffff 	undefined instruction 0xffffffff
d0028df8:	11555575 	cmpne	r5, r5, ror r5
	...
d0028e04:	ae020000 	cdpge	0, 0, cr0, cr2, cr0, {0}
d0028e08:	fffefeee 	undefined instruction 0xfffefeee
d0028e0c:	fffefffe 	undefined instruction 0xfffefffe
d0028e10:	fefefffe 	mrc2	15, 7, pc, cr14, cr14, {7}
d0028e14:	eefefefe 	mrc	14, 7, pc, cr14, cr14, {7}
d0028e18:	eeeeeeee 	cdp	14, 14, cr14, cr14, cr14, {7}
d0028e1c:	eeeeeaee 	vfms.f32	s29, s29, s29
d0028e20:	aaaaaaea 	bge	cead39d0 <_start-0x154c640>
d0028e24:	aaaaaaaa 	bge	cead38d4 <_start-0x154c73c>
d0028e28:	aaaaaaaa 	bge	cead38d8 <_start-0x154c738>
d0028e2c:	aaaaaaaa 	bge	cead38dc <_start-0x154c734>
d0028e30:	aaaaaaaa 	bge	cead38e0 <_start-0x154c730>
d0028e34:	aaaaaaaa 	bge	cead38e4 <_start-0x154c72c>
d0028e38:	aaaaaaaa 	bge	cead38e8 <_start-0x154c728>
d0028e3c:	aaaaeaea 	bge	ceae39ec <_start-0x153c624>
d0028e40:	aaaaaaaa 	bge	cead38f0 <_start-0x154c720>
d0028e44:	aaaaaaaa 	bge	cead38f4 <_start-0x154c71c>
d0028e48:	000000aa 	andeq	r0, r0, sl, lsr #1
d0028e4c:	00000000 	andeq	r0, r0, r0
d0028e50:	ff7f0000 	undefined instruction 0xff7f0000
d0028e54:	ffffffff 	undefined instruction 0xffffffff
d0028e58:	ffffffff 	undefined instruction 0xffffffff
d0028e5c:	ffffffff 	undefined instruction 0xffffffff
d0028e60:	ffffffff 	undefined instruction 0xffffffff
d0028e64:	ffffffff 	undefined instruction 0xffffffff
d0028e68:	ffffffff 	undefined instruction 0xffffffff
d0028e6c:	fdddddff 	ldc2l	13, cr13, [sp, #1020]	; 0x3fc
d0028e70:	050044dd 	streq	r4, [r0, #-1245]	; 0x4dd
d0028e74:	4044d4ff 	strdmi	sp, [r4], #-79	; 0xffffffb1
d0028e78:	fdfd5d00 	ldc2l	13, cr5, [sp]
d0028e7c:	fffffffd 	undefined instruction 0xfffffffd
d0028e80:	ffffffff 	undefined instruction 0xffffffff
d0028e84:	ffffffff 	undefined instruction 0xffffffff
d0028e88:	ffffffff 	undefined instruction 0xffffffff
d0028e8c:	d4ddddfd 	ldrble	sp, [sp], #3581	; 0xdfd
d0028e90:	00004044 	andeq	r4, r0, r4, asr #32
d0028e94:	80008000 	andhi	r8, r0, r0
d0028e98:	00000000 	andeq	r0, r0, r0
d0028e9c:	ffffbb08 	undefined instruction 0xffffbb08
d0028ea0:	ffffffff 	undefined instruction 0xffffffff
d0028ea4:	ffffffff 	undefined instruction 0xffffffff
d0028ea8:	ffffffff 	undefined instruction 0xffffffff
d0028eac:	fbffffff 	blx	d0028eb2 <gImage_pic+0x64e6>
d0028eb0:	bbfbfbfb 	bllt	cff27ea4 <_start-0xf816c>
d0028eb4:	aafbffff 	bge	cff28eb8 <_start-0xf7158>
d0028eb8:	aaaaaaaa 	bge	cead3968 <_start-0x154c6a8>
d0028ebc:	aaaaaaaa 	bge	cead396c <_start-0x154c6a4>
d0028ec0:	aaaaaaaa 	bge	cead3970 <_start-0x154c6a0>
d0028ec4:	aaaaaaaa 	bge	cead3974 <_start-0x154c69c>
d0028ec8:	abababaa 	blge	ceb13d78 <_start-0x150c298>
d0028ecc:	bbababab 	bllt	ceb13d80 <_start-0x150c290>
d0028ed0:	bbbbbbbb 	bllt	cef17dc4 <_start-0x110824c>
d0028ed4:	aaaaabbb 	bge	cead3dc8 <_start-0x154c248>
d0028ed8:	aaaaaaaa 	bge	cead3988 <_start-0x154c688>
d0028edc:	0088aaaa 	addeq	sl, r8, sl, lsr #21
d0028ee0:	00000000 	andeq	r0, r0, r0
d0028ee4:	01000000 	tsteq	r0, r0
d0028ee8:	ffffff7f 	undefined instruction 0xffffff7f
d0028eec:	ffffffff 	undefined instruction 0xffffffff
d0028ef0:	ffffffff 	undefined instruction 0xffffffff
d0028ef4:	ffffffff 	undefined instruction 0xffffffff
d0028ef8:	ffffffff 	undefined instruction 0xffffffff
d0028efc:	ffffffff 	undefined instruction 0xffffffff
d0028f00:	ffffffff 	undefined instruction 0xffffffff
d0028f04:	55f7ffff 	ldrbpl	pc, [r7, #4095]!	; 0xfff
d0028f08:	d57f0151 	ldrble	r0, [pc, #-337]!	; d0028dbf <gImage_pic+0x63f3>
d0028f0c:	17115155 	undefined instruction 0x17115155
d0028f10:	ffffffff 	undefined instruction 0xffffffff
d0028f14:	ffffffff 	undefined instruction 0xffffffff
d0028f18:	ffffffff 	undefined instruction 0xffffffff
d0028f1c:	ffffffff 	undefined instruction 0xffffffff
d0028f20:	f7ffffff 	undefined instruction 0xf7ffffff
d0028f24:	115155f7 	ldrshne	r5, [r1, #-87]	; 0xffffffa9
	...
d0028f30:	ae020000 	cdpge	0, 0, cr0, cr2, cr0, {0}
d0028f34:	ffefefef 	undefined instruction 0xffefefef
d0028f38:	ffffffef 	undefined instruction 0xffffffef
d0028f3c:	ffffffef 	undefined instruction 0xffffffef
d0028f40:	eeefefef 	cdp	15, 14, cr14, cr15, cr15, {7}
d0028f44:	eeeeeeee 	cdp	14, 14, cr14, cr14, cr14, {7}
d0028f48:	eeefeeee 	cdp	14, 14, cr14, cr15, cr14, {7}
d0028f4c:	aaaaaaee 	bge	cead3b0c <_start-0x154c504>
d0028f50:	aaaaaaaa 	bge	cead3a00 <_start-0x154c610>
d0028f54:	aaaaaaaa 	bge	cead3a04 <_start-0x154c60c>
d0028f58:	aaaaaaaa 	bge	cead3a08 <_start-0x154c608>
d0028f5c:	aaaaaaaa 	bge	cead3a0c <_start-0x154c604>
d0028f60:	aaaaaaaa 	bge	cead3a10 <_start-0x154c600>
d0028f64:	aeaeaaaa 	vfmage.f32	s20, s29, s21
d0028f68:	aaaaaeae 	bge	cead4a28 <_start-0x154b5e8>
d0028f6c:	aaaaaaaa 	bge	cead3a1c <_start-0x154c5f4>
d0028f70:	aaaaaaaa 	bge	cead3a20 <_start-0x154c5f0>
d0028f74:	000000aa 	andeq	r0, r0, sl, lsr #1
d0028f78:	00000000 	andeq	r0, r0, r0
d0028f7c:	ffff0000 	undefined instruction 0xffff0000
d0028f80:	ffffffff 	undefined instruction 0xffffffff
d0028f84:	ffffffff 	undefined instruction 0xffffffff
d0028f88:	ffffffff 	undefined instruction 0xffffffff
d0028f8c:	ffffffff 	undefined instruction 0xffffffff
d0028f90:	ffffffff 	undefined instruction 0xffffffff
d0028f94:	ffffffff 	undefined instruction 0xffffffff
d0028f98:	ffffffff 	undefined instruction 0xffffffff
d0028f9c:	0044dddd 	ldrdeq	sp, [r4], #-221	; 0xffffff23
d0028fa0:	4444d55d 	strbmi	sp, [r4], #-1373	; 0x55d
d0028fa4:	dfff5f00 	svcle	0x00ff5f00
d0028fa8:	ffffffdf 	undefined instruction 0xffffffdf
d0028fac:	ffffffff 	undefined instruction 0xffffffff
d0028fb0:	ffffffff 	undefined instruction 0xffffffff
d0028fb4:	ffffffff 	undefined instruction 0xffffffff
d0028fb8:	54dddddd 	ldrbpl	sp, [sp], #3549	; 0xddd
d0028fbc:	00004444 	andeq	r4, r0, r4, asr #8
	...
d0028fc8:	ffffbf0a 	undefined instruction 0xffffbf0a
d0028fcc:	ffffffff 	undefined instruction 0xffffffff
d0028fd0:	ffffffff 	undefined instruction 0xffffffff
d0028fd4:	ffffffff 	undefined instruction 0xffffffff
d0028fd8:	ffbfffff 	undefined instruction 0xffbfffff
d0028fdc:	bfbfffbf 	svclt	0x00bfffbf
d0028fe0:	bbbbbfff 	bllt	cef18fe4 <_start-0x110702c>
d0028fe4:	aaaaaaaa 	bge	cead3a94 <_start-0x154c57c>
d0028fe8:	aaaaaaaa 	bge	cead3a98 <_start-0x154c578>
d0028fec:	aaaaaaaa 	bge	cead3a9c <_start-0x154c574>
d0028ff0:	aaaaaaaa 	bge	cead3aa0 <_start-0x154c570>
d0028ff4:	aaaaaaaa 	bge	cead3aa4 <_start-0x154c56c>
d0028ff8:	bbbbbaba 	bllt	cef17ae8 <_start-0x1108528>
d0028ffc:	bbbbbbbb 	bllt	cef17ef0 <_start-0x1108120>
d0029000:	aaaababb 	bge	cead7af4 <_start-0x154851c>
d0029004:	aaaaaaaa 	bge	cead3ab4 <_start-0x154c55c>
d0029008:	0088aaaa 	addeq	sl, r8, sl, lsr #21
d002900c:	00000000 	andeq	r0, r0, r0
d0029010:	01000000 	tsteq	r0, r0
d0029014:	ffffff7f 	undefined instruction 0xffffff7f
d0029018:	ffffffff 	undefined instruction 0xffffffff
d002901c:	ffffffff 	undefined instruction 0xffffffff
d0029020:	ffffffff 	undefined instruction 0xffffffff
d0029024:	ffffffff 	undefined instruction 0xffffffff
d0029028:	ffffffff 	undefined instruction 0xffffffff
d002902c:	ffffffff 	undefined instruction 0xffffffff
d0029030:	75ffffff 	ldrbvc	pc, [pc, #4095]!	; d002a037 <gImage_pic+0x766b>
d0029034:	55151155 	ldrpl	r1, [r5, #-341]	; 0x155
d0029038:	5f115555 	svcpl	0x00115555
d002903c:	ffffffff 	undefined instruction 0xffffffff
d0029040:	ffffffff 	undefined instruction 0xffffffff
d0029044:	ffffffff 	undefined instruction 0xffffffff
d0029048:	ffffffff 	undefined instruction 0xffffffff
d002904c:	77ffffff 	undefined instruction 0x77ffffff
d0029050:	11115555 	tstne	r1, r5, asr r5
	...
d002905c:	ae020000 	cdpge	0, 0, cr0, cr2, cr0, {0}
d0029060:	fefeeeee 	cdp2	14, 15, cr14, cr14, cr14, {7}
d0029064:	fefefefe 	mrc2	14, 7, pc, cr14, cr14, {7}
d0029068:	fefefefe 	mrc2	14, 7, pc, cr14, cr14, {7}
d002906c:	eeeefefe 	mcr	14, 7, pc, cr14, cr14, {7}
d0029070:	eeeeeeee 	cdp	14, 14, cr14, cr14, cr14, {7}
d0029074:	eeeeeeee 	cdp	14, 14, cr14, cr14, cr14, {7}
d0029078:	aaaaeaee 	bge	ceae3c38 <_start-0x153c3d8>
d002907c:	aaaaaaaa 	bge	cead3b2c <_start-0x154c4e4>
d0029080:	aaaaaaaa 	bge	cead3b30 <_start-0x154c4e0>
d0029084:	aaaaaaaa 	bge	cead3b34 <_start-0x154c4dc>
d0029088:	aaaaaaaa 	bge	cead3b38 <_start-0x154c4d8>
d002908c:	aaaaaaaa 	bge	cead3b3c <_start-0x154c4d4>
d0029090:	aaaaaaaa 	bge	cead3b40 <_start-0x154c4d0>
d0029094:	aaaaeaaa 	bge	ceae3b44 <_start-0x153c4cc>
d0029098:	aaaaaaaa 	bge	cead3b48 <_start-0x154c4c8>
d002909c:	aaaaaaaa 	bge	cead3b4c <_start-0x154c4c4>
d00290a0:	000000aa 	andeq	r0, r0, sl, lsr #1
d00290a4:	00000000 	andeq	r0, r0, r0
d00290a8:	ffff0000 	undefined instruction 0xffff0000
d00290ac:	ffffffff 	undefined instruction 0xffffffff
d00290b0:	ffffffff 	undefined instruction 0xffffffff
d00290b4:	ffffffff 	undefined instruction 0xffffffff
d00290b8:	ffffffff 	undefined instruction 0xffffffff
d00290bc:	ffffffff 	undefined instruction 0xffffffff
d00290c0:	ffffffff 	undefined instruction 0xffffffff
d00290c4:	ffffffff 	undefined instruction 0xffffffff
d00290c8:	44ddddfd 	ldrbmi	sp, [sp], #3581	; 0xdfd
d00290cc:	44545544 	ldrbmi	r5, [r4], #-1348	; 0x544
d00290d0:	fdfd5d00 	ldc2l	13, cr5, [sp]
d00290d4:	fdfdfddd 	ldc2l	13, cr15, [sp, #884]!	; 0x374
d00290d8:	fffffffd 	undefined instruction 0xfffffffd
d00290dc:	ffffffff 	undefined instruction 0xffffffff
d00290e0:	fdffffff 	ldc2l	15, cr15, [pc, #1020]!	; 0x3fc
d00290e4:	54d5dddd 	ldrbpl	sp, [r5], #3549	; 0xddd
d00290e8:	00000044 	andeq	r0, r0, r4, asr #32
d00290ec:	00000000 	andeq	r0, r0, r0
d00290f0:	00800000 	addeq	r0, r0, r0
d00290f4:	ffffbb8a 	undefined instruction 0xffffbb8a
d00290f8:	ffffffff 	undefined instruction 0xffffffff
d00290fc:	ffffffff 	undefined instruction 0xffffffff
d0029100:	ffffffff 	undefined instruction 0xffffffff
d0029104:	fbfbfbff 	blx	cff2810a <_start-0xf7f06>
d0029108:	fbfbfbfb 	blx	cff280fe <_start-0xf7f12>
d002910c:	bbfbbbbb 	bllt	cff18000 <_start-0x108010>
d0029110:	aaababbb 	bge	ceb14004 <_start-0x150c00c>
d0029114:	aaaaaaaa 	bge	cead3bc4 <_start-0x154c44c>
d0029118:	aaaaaaaa 	bge	cead3bc8 <_start-0x154c448>
d002911c:	aaaaaaaa 	bge	cead3bcc <_start-0x154c444>
d0029120:	aaaaaaaa 	bge	cead3bd0 <_start-0x154c440>
d0029124:	abababaa 	blge	ceb13fd4 <_start-0x150c03c>
d0029128:	bbbbbbab 	bllt	cef17fdc <_start-0x1108034>
d002912c:	aaaaabbb 	bge	cead4020 <_start-0x154bff0>
d0029130:	aaaaaaaa 	bge	cead3be0 <_start-0x154c430>
d0029134:	0088a8aa 	addeq	sl, r8, sl, lsr #17
d0029138:	00000000 	andeq	r0, r0, r0
d002913c:	01000000 	tsteq	r0, r0
d0029140:	ffffff7f 	undefined instruction 0xffffff7f
d0029144:	ffffffff 	undefined instruction 0xffffffff
d0029148:	ffffffff 	undefined instruction 0xffffffff
d002914c:	ffffffff 	undefined instruction 0xffffffff
d0029150:	ffffffff 	undefined instruction 0xffffffff
d0029154:	ffffffff 	undefined instruction 0xffffffff
d0029158:	ffffffff 	undefined instruction 0xffffffff
d002915c:	f7ffffff 	undefined instruction 0xf7ffffff
d0029160:	55555577 	ldrbpl	r5, [r5, #-1399]	; 0x577
d0029164:	7f015155 	svcvc	0x00015155
d0029168:	ffffffff 	undefined instruction 0xffffffff
d002916c:	ffffffff 	undefined instruction 0xffffffff
d0029170:	ffffffff 	undefined instruction 0xffffffff
d0029174:	ffffffff 	undefined instruction 0xffffffff
d0029178:	77f7ffff 	undefined instruction 0x77f7ffff
d002917c:	11515155 	cmpne	r1, r5, asr r1
	...
d0029188:	ae020000 	cdpge	0, 0, cr0, cr2, cr0, {0}
d002918c:	efefefef 	svc	0x00efefef
d0029190:	ffffffef 	undefined instruction 0xffffffef
d0029194:	efffefff 	svc	0x00ffefff
d0029198:	eeeeefff 	mcr	15, 7, lr, cr14, cr15, {7}
d002919c:	eeeeeeee 	cdp	14, 14, cr14, cr14, cr14, {7}
d00291a0:	aeaaeeee 	cdpge	14, 10, cr14, cr10, cr14, {7}
d00291a4:	aaaaeeee 	bge	ceae4d64 <_start-0x153b2ac>
d00291a8:	aaaaaaaa 	bge	cead3c58 <_start-0x154c3b8>
d00291ac:	aaaaaaaa 	bge	cead3c5c <_start-0x154c3b4>
d00291b0:	aaaaaaaa 	bge	cead3c60 <_start-0x154c3b0>
d00291b4:	aaaaaaaa 	bge	cead3c64 <_start-0x154c3ac>
d00291b8:	aaaaaaaa 	bge	cead3c68 <_start-0x154c3a8>
d00291bc:	aaaaaaaa 	bge	cead3c6c <_start-0x154c3a4>
d00291c0:	aaaaaeae 	bge	cead4c80 <_start-0x154b390>
d00291c4:	aaaaaaaa 	bge	cead3c74 <_start-0x154c39c>
d00291c8:	aaaaaaaa 	bge	cead3c78 <_start-0x154c398>
d00291cc:	000000a2 	andeq	r0, r0, r2, lsr #1
d00291d0:	00000000 	andeq	r0, r0, r0
d00291d4:	ffff0100 	undefined instruction 0xffff0100
d00291d8:	ffffffff 	undefined instruction 0xffffffff
d00291dc:	ffffffff 	undefined instruction 0xffffffff
d00291e0:	ffffffff 	undefined instruction 0xffffffff
d00291e4:	ffffffff 	undefined instruction 0xffffffff
d00291e8:	ffffffff 	undefined instruction 0xffffffff
d00291ec:	ffffffff 	undefined instruction 0xffffffff
d00291f0:	ffffffff 	undefined instruction 0xffffffff
d00291f4:	ddddddff 	ldclle	13, cr13, [sp, #1020]	; 0x3fc
d00291f8:	44dddddd 	ldrbmi	sp, [sp], #3549	; 0xddd
d00291fc:	dddfdf45 	ldclle	15, cr13, [pc, #276]	; 0x114
d0029200:	dfdddfdf 	svcle	0x00dddfdf
d0029204:	ffdfffdf 	undefined instruction 0xffdfffdf
d0029208:	ffffffff 	undefined instruction 0xffffffff
d002920c:	ffffffff 	undefined instruction 0xffffffff
d0029210:	4455dddd 	ldrbmi	sp, [r5], #-3549	; 0xddd
d0029214:	00000044 	andeq	r0, r0, r4, asr #32
	...
d0029220:	ffffbf0a 	undefined instruction 0xffffbf0a
d0029224:	ffffffff 	undefined instruction 0xffffffff
d0029228:	ffffffff 	undefined instruction 0xffffffff
d002922c:	ffffffff 	undefined instruction 0xffffffff
d0029230:	bbbbffff 	bllt	cef29234 <_start-0x10f6ddc>
d0029234:	bfbfbbbb 	svclt	0x00bfbbbb
d0029238:	bbffbbba 	bllt	d0018128 <_start-0x7ee8>
d002923c:	aababbbb 	bge	ceed8130 <_start-0x1147ee0>
d0029240:	aaaaaaaa 	bge	cead3cf0 <_start-0x154c320>
d0029244:	aaaaaaaa 	bge	cead3cf4 <_start-0x154c31c>
d0029248:	aaaaaaaa 	bge	cead3cf8 <_start-0x154c318>
d002924c:	aaaaaaaa 	bge	cead3cfc <_start-0x154c314>
d0029250:	aaaaaaaa 	bge	cead3d00 <_start-0x154c310>
d0029254:	bbbbbbaa 	bllt	cef18104 <_start-0x1107f0c>
d0029258:	aaaababb 	bge	cead7d4c <_start-0x15482c4>
d002925c:	aaaaaaaa 	bge	cead3d0c <_start-0x154c304>
d0029260:	0088aaaa 	addeq	sl, r8, sl, lsr #21
d0029264:	00000000 	andeq	r0, r0, r0
d0029268:	01000000 	tsteq	r0, r0
d002926c:	ffffffff 	undefined instruction 0xffffffff
d0029270:	ffffffff 	undefined instruction 0xffffffff
d0029274:	ffffffff 	undefined instruction 0xffffffff
d0029278:	ffffffff 	undefined instruction 0xffffffff
d002927c:	ffffffff 	undefined instruction 0xffffffff
d0029280:	ffffffff 	undefined instruction 0xffffffff
d0029284:	ffffffff 	undefined instruction 0xffffffff
d0029288:	ffffffff 	undefined instruction 0xffffffff
d002928c:	7777ffff 	undefined instruction 0x7777ffff
d0029290:	ff555575 	undefined instruction 0xff555575
d0029294:	ffffffff 	undefined instruction 0xffffffff
d0029298:	ffffffff 	undefined instruction 0xffffffff
d002929c:	ffffffff 	undefined instruction 0xffffffff
d00292a0:	ffffffff 	undefined instruction 0xffffffff
d00292a4:	55ffffff 	ldrbpl	pc, [pc, #4095]!	; d002a2ab <gImage_pic+0x78df>
d00292a8:	10115155 	andsne	r5, r1, r5, asr r1
	...
d00292b4:	ee0a0000 	cdp	0, 0, cr0, cr10, cr0, {0}
d00292b8:	fefeeeee 	cdp2	14, 15, cr14, cr14, cr14, {7}
d00292bc:	fefefefe 	mrc2	14, 7, pc, cr14, cr14, {7}
d00292c0:	fefefefe 	mrc2	14, 7, pc, cr14, cr14, {7}
d00292c4:	eeeefefe 	mcr	14, 7, pc, cr14, cr14, {7}
d00292c8:	eeeeeeee 	cdp	14, 14, cr14, cr14, cr14, {7}
d00292cc:	aeaaeeee 	cdpge	14, 10, cr14, cr10, cr14, {7}
d00292d0:	aaeaeeee 	bge	cfae4e90 <_start-0x53b180>
d00292d4:	aaaaaaaa 	bge	cead3d84 <_start-0x154c28c>
d00292d8:	aaaaaaaa 	bge	cead3d88 <_start-0x154c288>
d00292dc:	aaaaaaaa 	bge	cead3d8c <_start-0x154c284>
d00292e0:	aaaaaaaa 	bge	cead3d90 <_start-0x154c280>
d00292e4:	aaaaaaaa 	bge	cead3d94 <_start-0x154c27c>
d00292e8:	aaaaaaaa 	bge	cead3d98 <_start-0x154c278>
d00292ec:	aaaaaaaa 	bge	cead3d9c <_start-0x154c274>
d00292f0:	aaaaaaaa 	bge	cead3da0 <_start-0x154c270>
d00292f4:	aaaaaaaa 	bge	cead3da4 <_start-0x154c26c>
d00292f8:	000000aa 	andeq	r0, r0, sl, lsr #1
d00292fc:	00000000 	andeq	r0, r0, r0
d0029300:	ffff0500 	undefined instruction 0xffff0500
d0029304:	ffffffff 	undefined instruction 0xffffffff
d0029308:	ffffffff 	undefined instruction 0xffffffff
d002930c:	ffffffff 	undefined instruction 0xffffffff
d0029310:	ffffffff 	undefined instruction 0xffffffff
d0029314:	ffffffff 	undefined instruction 0xffffffff
d0029318:	fffffdff 	undefined instruction 0xfffffdff
d002931c:	ffffffff 	undefined instruction 0xffffffff
d0029320:	ddddddfd 	ldclle	13, cr13, [sp, #1012]	; 0x3f4
d0029324:	dddddddd 	ldclle	13, cr13, [sp, #884]	; 0x374
d0029328:	fdfdfddd 	ldc2l	13, cr15, [sp, #884]!	; 0x374
d002932c:	dddddddd 	ldclle	13, cr13, [sp, #884]	; 0x374
d0029330:	dddddddd 	ldclle	13, cr13, [sp, #884]	; 0x374
d0029334:	fffffdfd 	undefined instruction 0xfffffdfd
d0029338:	fdffffff 	ldc2l	15, cr15, [pc, #1020]!	; 0x3fc
d002933c:	4444d4dd 	strbmi	sp, [r4], #-1245	; 0x4dd
d0029340:	00000000 	andeq	r0, r0, r0
d0029344:	80008000 	andhi	r8, r0, r0
d0029348:	00000000 	andeq	r0, r0, r0
d002934c:	ffffff8a 	undefined instruction 0xffffff8a
d0029350:	ffffffff 	undefined instruction 0xffffffff
d0029354:	ffffffff 	undefined instruction 0xffffffff
d0029358:	ffffffff 	undefined instruction 0xffffffff
d002935c:	fbfbfbff 	blx	cff28362 <_start-0xf7cae>
d0029360:	fbfbfbfb 	blx	cff28356 <_start-0xf7cba>
d0029364:	fbfbbbaa 	blx	cff18216 <_start-0x107dfa>
d0029368:	aaabbbfb 	bge	ceb1835c <_start-0x1507cb4>
d002936c:	aaaaaaaa 	bge	cead3e1c <_start-0x154c1f4>
d0029370:	aaaaaaaa 	bge	cead3e20 <_start-0x154c1f0>
d0029374:	aaaaaaaa 	bge	cead3e24 <_start-0x154c1ec>
d0029378:	aaaaaaaa 	bge	cead3e28 <_start-0x154c1e8>
d002937c:	aaaaaaaa 	bge	cead3e2c <_start-0x154c1e4>
d0029380:	ababaaaa 	blge	ceb13e30 <_start-0x150c1e0>
d0029384:	aaaabbbb 	bge	cead8278 <_start-0x1547d98>
d0029388:	aaaaaaaa 	bge	cead3e38 <_start-0x154c1d8>
d002938c:	008888a8 	addeq	r8, r8, r8, lsr #17
d0029390:	00000000 	andeq	r0, r0, r0
d0029394:	07000000 	streq	r0, [r0, -r0]
d0029398:	ffffffff 	undefined instruction 0xffffffff
d002939c:	ffffffff 	undefined instruction 0xffffffff
d00293a0:	ffffffff 	undefined instruction 0xffffffff
d00293a4:	ffffffff 	undefined instruction 0xffffffff
d00293a8:	ffffffff 	undefined instruction 0xffffffff
d00293ac:	ffffffff 	undefined instruction 0xffffffff
d00293b0:	ffffffff 	undefined instruction 0xffffffff
d00293b4:	ffffffff 	undefined instruction 0xffffffff
d00293b8:	f7f7ffff 	undefined instruction 0xf7f7ffff
d00293bc:	ff77f7ff 	undefined instruction 0xff77f7ff
d00293c0:	f7ffffff 	undefined instruction 0xf7ffffff
d00293c4:	77f7f7f7 	undefined instruction 0x77f7f7f7
d00293c8:	fffff777 	undefined instruction 0xfffff777
d00293cc:	ffffffff 	undefined instruction 0xffffffff
d00293d0:	55f7ffff 	ldrbpl	pc, [r7, #4095]!	; 0xfff
d00293d4:	00001151 	andeq	r1, r0, r1, asr r1
	...
d00293e0:	ee2a0000 	cdp	0, 2, cr0, cr10, cr0, {0}
d00293e4:	ffefefef 	undefined instruction 0xffefefef
d00293e8:	efefefef 	svc	0x00efefef
d00293ec:	efffffef 	svc	0x00ffffef
d00293f0:	eeeeeeef 	cdp	14, 14, cr14, cr14, cr15, {7}
d00293f4:	eeeeeeee 	cdp	14, 14, cr14, cr14, cr14, {7}
d00293f8:	aeaaeeee 	cdpge	14, 10, cr14, cr10, cr14, {7}
d00293fc:	eeeeeeee 	cdp	14, 14, cr14, cr14, cr14, {7}
d0029400:	aaaaaaaa 	bge	cead3eb0 <_start-0x154c160>
d0029404:	aaaaaaaa 	bge	cead3eb4 <_start-0x154c15c>
d0029408:	aaaaaaaa 	bge	cead3eb8 <_start-0x154c158>
d002940c:	aaaaaaaa 	bge	cead3ebc <_start-0x154c154>
d0029410:	aaaaaaaa 	bge	cead3ec0 <_start-0x154c150>
d0029414:	aaaaaaaa 	bge	cead3ec4 <_start-0x154c14c>
d0029418:	aaaaaaaa 	bge	cead3ec8 <_start-0x154c148>
d002941c:	aaaaaaaa 	bge	cead3ecc <_start-0x154c144>
d0029420:	aaaaaaaa 	bge	cead3ed0 <_start-0x154c140>
d0029424:	000000a2 	andeq	r0, r0, r2, lsr #1
d0029428:	00000000 	andeq	r0, r0, r0
d002942c:	ffff0700 	undefined instruction 0xffff0700
d0029430:	ffffffff 	undefined instruction 0xffffffff
d0029434:	ffffffff 	undefined instruction 0xffffffff
d0029438:	ffffffff 	undefined instruction 0xffffffff
d002943c:	ffffffff 	undefined instruction 0xffffffff
d0029440:	ffffffff 	undefined instruction 0xffffffff
d0029444:	ffffffff 	undefined instruction 0xffffffff
d0029448:	ffffffff 	undefined instruction 0xffffffff
d002944c:	dddfdfff 	ldclle	15, cr13, [pc, #1020]	; 0x3fc
d0029450:	dddddddd 	ldclle	13, cr13, [sp, #884]	; 0x374
d0029454:	dfdfdfdd 	svcle	0x00dfdfdd
d0029458:	dddddddd 	ldclle	13, cr13, [sp, #884]	; 0x374
d002945c:	dddddddd 	ldclle	13, cr13, [sp, #884]	; 0x374
d0029460:	dfdddddd 	svcle	0x00dddddd
d0029464:	ffffffff 	undefined instruction 0xffffffff
d0029468:	0444dddd 	strbeq	sp, [r4], #-3549	; 0xddd
	...
d0029478:	ffffff0b 	undefined instruction 0xffffff0b
d002947c:	ffffffff 	undefined instruction 0xffffffff
d0029480:	ffffffff 	undefined instruction 0xffffffff
d0029484:	ffffffff 	undefined instruction 0xffffffff
d0029488:	bfbfffff 	svclt	0x00bfffff
d002948c:	fabfbbbf 	blx	cf018390 <_start-0x1007c80>
d0029490:	bfbfbfaa 	svclt	0x00bfbfaa
d0029494:	aabbbbbf 	bge	cef18398 <_start-0x1107c78>
d0029498:	aaaaaaaa 	bge	cead3f48 <_start-0x154c0c8>
d002949c:	aaaaaaaa 	bge	cead3f4c <_start-0x154c0c4>
d00294a0:	aaaaaaaa 	bge	cead3f50 <_start-0x154c0c0>
d00294a4:	aaaaaaaa 	bge	cead3f54 <_start-0x154c0bc>
d00294a8:	aaaaaaaa 	bge	cead3f58 <_start-0x154c0b8>
d00294ac:	aaaaaaaa 	bge	cead3f5c <_start-0x154c0b4>
d00294b0:	aaaaaaaa 	bge	cead3f60 <_start-0x154c0b0>
d00294b4:	aaaaaaaa 	bge	cead3f64 <_start-0x154c0ac>
d00294b8:	0088888a 	addeq	r8, r8, sl, lsl #17
d00294bc:	00000000 	andeq	r0, r0, r0
d00294c0:	17000000 	strne	r0, [r0, -r0]
d00294c4:	ffffffff 	undefined instruction 0xffffffff
d00294c8:	ffffffff 	undefined instruction 0xffffffff
d00294cc:	ffffffff 	undefined instruction 0xffffffff
d00294d0:	ffffffff 	undefined instruction 0xffffffff
d00294d4:	ffffffff 	undefined instruction 0xffffffff
d00294d8:	ffffffff 	undefined instruction 0xffffffff
d00294dc:	ffffffff 	undefined instruction 0xffffffff
d00294e0:	ffffffff 	undefined instruction 0xffffffff
d00294e4:	ffffffff 	undefined instruction 0xffffffff
d00294e8:	ffffffff 	undefined instruction 0xffffffff
d00294ec:	ffffffff 	undefined instruction 0xffffffff
d00294f0:	555575f7 	ldrbpl	r7, [r5, #-1527]	; 0x5f7
d00294f4:	77777555 	undefined instruction 0x77777555
d00294f8:	ffff7fff 	undefined instruction 0xffff7fff
d00294fc:	75ffffff 	ldrbvc	pc, [pc, #4095]!	; d002a503 <gImage_pic+0x7b37>
d0029500:	00001051 	andeq	r1, r0, r1, asr r0
	...
d002950c:	ee2a0000 	cdp	0, 2, cr0, cr10, cr0, {0}
d0029510:	fefeeeee 	cdp2	14, 15, cr14, cr14, cr14, {7}
d0029514:	fefefefe 	mrc2	14, 7, pc, cr14, cr14, {7}
d0029518:	eefefefe 	mrc	14, 7, pc, cr14, cr14, {7}
d002951c:	eeeeeeee 	cdp	14, 14, cr14, cr14, cr14, {7}
d0029520:	eeeeeeee 	cdp	14, 14, cr14, cr14, cr14, {7}
d0029524:	aeaaeaee 	vfmsge.f32	s28, s21, s29
d0029528:	eaeeeeee 	b	cfbe50e8 <_start-0x43af28>
d002952c:	aaaaaaea 	bge	cead40dc <_start-0x154bf34>
d0029530:	aaaaaaaa 	bge	cead3fe0 <_start-0x154c030>
d0029534:	aaaaaaaa 	bge	cead3fe4 <_start-0x154c02c>
d0029538:	aaaaaaaa 	bge	cead3fe8 <_start-0x154c028>
d002953c:	aaaaaaaa 	bge	cead3fec <_start-0x154c024>
d0029540:	aaaaaaaa 	bge	cead3ff0 <_start-0x154c020>
d0029544:	aaaaaaaa 	bge	cead3ff4 <_start-0x154c01c>
d0029548:	aaaaaaaa 	bge	cead3ff8 <_start-0x154c018>
d002954c:	aaaaaaaa 	bge	cead3ffc <_start-0x154c014>
d0029550:	00000020 	andeq	r0, r0, r0, lsr #32
d0029554:	00000000 	andeq	r0, r0, r0
d0029558:	ffff0700 	undefined instruction 0xffff0700
d002955c:	ffffffff 	undefined instruction 0xffffffff
d0029560:	ffffffff 	undefined instruction 0xffffffff
d0029564:	ffffffff 	undefined instruction 0xffffffff
d0029568:	ffffffff 	undefined instruction 0xffffffff
d002956c:	ffffffff 	undefined instruction 0xffffffff
d0029570:	fffffdff 	undefined instruction 0xfffffdff
d0029574:	ffffffff 	undefined instruction 0xffffffff
d0029578:	ddfdfdff 	ldclle	13, cr15, [sp, #1020]!	; 0x3fc
d002957c:	ddddddfd 	ldclle	13, cr13, [sp, #1012]	; 0x3f4
d0029580:	fdddfddd 	ldc2l	13, cr15, [sp, #884]	; 0x374
d0029584:	dddddddd 	ldclle	13, cr13, [sp, #884]	; 0x374
d0029588:	ddd5dddd 	ldclle	13, cr13, [r5, #884]	; 0x374
d002958c:	dddddddd 	ldclle	13, cr13, [sp, #884]	; 0x374
d0029590:	fffdfddd 	undefined instruction 0xfffdfddd
d0029594:	40c4ddfd 	strdmi	sp, [r4], #221	; 0xdd
d0029598:	00000000 	andeq	r0, r0, r0
d002959c:	00800000 	addeq	r0, r0, r0
d00295a0:	00800000 	addeq	r0, r0, r0
d00295a4:	fffffb8b 	undefined instruction 0xfffffb8b
d00295a8:	ffffffff 	undefined instruction 0xffffffff
d00295ac:	ffffffff 	undefined instruction 0xffffffff
d00295b0:	ffffffff 	undefined instruction 0xffffffff
d00295b4:	fbfbfbff 	blx	cff285ba <_start-0xf7a56>
d00295b8:	fbfbfbfb 	blx	cff285ae <_start-0xf7a62>
d00295bc:	fbfbbbaa 	blx	cff1846e <_start-0x107ba2>
d00295c0:	abbbfbfb 	blge	cef285b4 <_start-0x10f7a5c>
d00295c4:	aaaaaaaa 	bge	cead4074 <_start-0x154bf9c>
d00295c8:	aaaaaaaa 	bge	cead4078 <_start-0x154bf98>
d00295cc:	aaaaaaaa 	bge	cead407c <_start-0x154bf94>
d00295d0:	aaaaaaaa 	bge	cead4080 <_start-0x154bf90>
d00295d4:	aaaaaaaa 	bge	cead4084 <_start-0x154bf8c>
d00295d8:	aaaaaaaa 	bge	cead4088 <_start-0x154bf88>
d00295dc:	aaaaaaaa 	bge	cead408c <_start-0x154bf84>
d00295e0:	a8aaaaaa 	stmiage	sl!, {r1, r3, r5, r7, r9, fp, sp, pc}
d00295e4:	00888888 	addeq	r8, r8, r8, lsl #17
d00295e8:	00000000 	andeq	r0, r0, r0
d00295ec:	17000000 	strne	r0, [r0, -r0]
d00295f0:	ffffffff 	undefined instruction 0xffffffff
d00295f4:	ffffffff 	undefined instruction 0xffffffff
d00295f8:	ffffffff 	undefined instruction 0xffffffff
d00295fc:	ffffffff 	undefined instruction 0xffffffff
d0029600:	ffffffff 	undefined instruction 0xffffffff
d0029604:	ffffffff 	undefined instruction 0xffffffff
d0029608:	ffffffff 	undefined instruction 0xffffffff
d002960c:	ffffffff 	undefined instruction 0xffffffff
d0029610:	ffffffff 	undefined instruction 0xffffffff
d0029614:	ffffffff 	undefined instruction 0xffffffff
d0029618:	f7ffffff 	undefined instruction 0xf7ffffff
d002961c:	555577f7 	ldrbpl	r7, [r5, #-2039]	; 0x7f7
d0029620:	57555555 	undefined instruction 0x57555555
d0029624:	fff77777 	undefined instruction 0xfff77777
d0029628:	f7ffffff 	undefined instruction 0xf7ffffff
d002962c:	00001155 	andeq	r1, r0, r5, asr r1
	...
d0029638:	ee2a0000 	cdp	0, 2, cr0, cr10, cr0, {0}
d002963c:	efefefee 	svc	0x00efefee
d0029640:	efefefff 	svc	0x00efefff
d0029644:	efefffff 	svc	0x00efffff
d0029648:	eeeeeeef 	cdp	14, 14, cr14, cr14, cr15, {7}
d002964c:	eeeeeeee 	cdp	14, 14, cr14, cr14, cr14, {7}
d0029650:	aeaaeaee 	vfmsge.f32	s28, s21, s29
d0029654:	eeeeeeee 	cdp	14, 14, cr14, cr14, cr14, {7}
d0029658:	aaaaaaee 	bge	cead4218 <_start-0x154bdf8>
d002965c:	aaaaaaaa 	bge	cead410c <_start-0x154bf04>
d0029660:	aaaaaaaa 	bge	cead4110 <_start-0x154bf00>
d0029664:	aaaaaaaa 	bge	cead4114 <_start-0x154befc>
d0029668:	aaaaaaaa 	bge	cead4118 <_start-0x154bef8>
d002966c:	aaaaaaaa 	bge	cead411c <_start-0x154bef4>
d0029670:	aaaaaaaa 	bge	cead4120 <_start-0x154bef0>
d0029674:	aaaaaaaa 	bge	cead4124 <_start-0x154beec>
d0029678:	a2a2aaaa 	adcge	sl, r2, #696320	; 0xaa000
d002967c:	000000a2 	andeq	r0, r0, r2, lsr #1
d0029680:	00000000 	andeq	r0, r0, r0
d0029684:	ffff0f00 	undefined instruction 0xffff0f00
d0029688:	ffffffff 	undefined instruction 0xffffffff
d002968c:	ffffffff 	undefined instruction 0xffffffff
d0029690:	ffffffff 	undefined instruction 0xffffffff
d0029694:	ffffffff 	undefined instruction 0xffffffff
d0029698:	ffffffff 	undefined instruction 0xffffffff
d002969c:	ffffdfff 	undefined instruction 0xffffdfff
d00296a0:	ffffffff 	undefined instruction 0xffffffff
d00296a4:	ffffffff 	undefined instruction 0xffffffff
d00296a8:	dddfdfff 	ldclle	15, cr13, [pc, #1020]	; 0x3fc
d00296ac:	dddfdfdf 	ldclle	15, cr13, [pc, #892]	; 0x37c
d00296b0:	dddddddd 	ldclle	13, cr13, [sp, #884]	; 0x374
d00296b4:	dd5ddddd 	ldclle	13, cr13, [sp, #-884]	; 0xfffffc8c
d00296b8:	dddddd5d 	ldclle	13, cr13, [sp, #372]	; 0x174
d00296bc:	dfdfdddd 	svcle	0x00dfdddd
d00296c0:	40d5dddf 	ldrsbmi	sp, [r5], #223	; 0xdf
	...
d00296d0:	ffffffab 	undefined instruction 0xffffffab
d00296d4:	ffffffff 	undefined instruction 0xffffffff
d00296d8:	ffffffff 	undefined instruction 0xffffffff
d00296dc:	ffffffff 	undefined instruction 0xffffffff
d00296e0:	bbfbffff 	bllt	cff296e4 <_start-0xf692c>
d00296e4:	babbbbbf 	blt	cef185e8 <_start-0x1107a28>
d00296e8:	bfffbfaa 	svclt	0x00ffbfaa
d00296ec:	bbbbbfbf 	bllt	cef195f0 <_start-0x1106a20>
d00296f0:	aaaaaaba 	bge	cead41e0 <_start-0x154be30>
d00296f4:	aaaaaaaa 	bge	cead41a4 <_start-0x154be6c>
d00296f8:	aaaaaaaa 	bge	cead41a8 <_start-0x154be68>
d00296fc:	aaaaaaaa 	bge	cead41ac <_start-0x154be64>
d0029700:	aaaaaaaa 	bge	cead41b0 <_start-0x154be60>
d0029704:	aaaaaaaa 	bge	cead41b4 <_start-0x154be5c>
d0029708:	aaaaaaaa 	bge	cead41b8 <_start-0x154be58>
d002970c:	aaaaaaaa 	bge	cead41bc <_start-0x154be54>
d0029710:	00888888 	addeq	r8, r8, r8, lsl #17
d0029714:	00000000 	andeq	r0, r0, r0
d0029718:	1f000000 	svcne	0x00000000
d002971c:	ffffffff 	undefined instruction 0xffffffff
d0029720:	ffffffff 	undefined instruction 0xffffffff
d0029724:	ffffffff 	undefined instruction 0xffffffff
d0029728:	ffffffff 	undefined instruction 0xffffffff
d002972c:	ffffffff 	undefined instruction 0xffffffff
d0029730:	ffffffff 	undefined instruction 0xffffffff
d0029734:	ffffffff 	undefined instruction 0xffffffff
d0029738:	ffffffff 	undefined instruction 0xffffffff
d002973c:	ffffffff 	undefined instruction 0xffffffff
d0029740:	ffffffff 	undefined instruction 0xffffffff
d0029744:	ffffffff 	undefined instruction 0xffffffff
d0029748:	557575ff 	ldrbpl	r7, [r5, #-1535]!	; 0x5ff
d002974c:	55555555 	ldrbpl	r5, [r5, #-1365]	; 0x555
d0029750:	77555555 	undefined instruction 0x77555555
d0029754:	f5ffff7f 	undefined instruction 0xf5ffff7f
d0029758:	00005155 	andeq	r5, r0, r5, asr r1
	...
d0029764:	ee2a0000 	cdp	0, 2, cr0, cr10, cr0, {0}
d0029768:	eeeefeee 	cdp	14, 14, cr15, cr14, cr14, {7}
d002976c:	ffeeeeee 	undefined instruction 0xffeeeeee
d0029770:	fefefefe 	mrc2	14, 7, pc, cr14, cr14, {7}
d0029774:	eeeeeeee 	cdp	14, 14, cr14, cr14, cr14, {7}
d0029778:	eeeeeeee 	cdp	14, 14, cr14, cr14, cr14, {7}
d002977c:	aeaaeaee 	vfmsge.f32	s28, s21, s29
d0029780:	eeeeeeee 	cdp	14, 14, cr14, cr14, cr14, {7}
d0029784:	aaaaeaee 	bge	ceae4344 <_start-0x153bccc>
d0029788:	aaaaaaaa 	bge	cead4238 <_start-0x154bdd8>
d002978c:	aaaaaaaa 	bge	cead423c <_start-0x154bdd4>
d0029790:	aaaaaaaa 	bge	cead4240 <_start-0x154bdd0>
d0029794:	aaaaaaaa 	bge	cead4244 <_start-0x154bdcc>
d0029798:	aaaaaaaa 	bge	cead4248 <_start-0x154bdc8>
d002979c:	aaaaaaaa 	bge	cead424c <_start-0x154bdc4>
d00297a0:	aaaaaaaa 	bge	cead4250 <_start-0x154bdc0>
d00297a4:	a2aaaaaa 	adcge	sl, sl, #696320	; 0xaa000
d00297a8:	00000020 	andeq	r0, r0, r0, lsr #32
d00297ac:	00000000 	andeq	r0, r0, r0
d00297b0:	ffff1f00 	undefined instruction 0xffff1f00
d00297b4:	ffffffff 	undefined instruction 0xffffffff
d00297b8:	ffffffff 	undefined instruction 0xffffffff
d00297bc:	ffffffff 	undefined instruction 0xffffffff
d00297c0:	ffffffff 	undefined instruction 0xffffffff
d00297c4:	ffffffff 	undefined instruction 0xffffffff
d00297c8:	fffffdfd 	undefined instruction 0xfffffdfd
d00297cc:	ffffffff 	undefined instruction 0xffffffff
d00297d0:	ffffffff 	undefined instruction 0xffffffff
d00297d4:	ddfdfdff 	ldclle	13, cr15, [sp, #1020]!	; 0x3fc
d00297d8:	dddddddd 	ldclle	13, cr13, [sp, #884]	; 0x374
d00297dc:	dddddddd 	ldclle	13, cr13, [sp, #884]	; 0x374
d00297e0:	d5d5d5dd 	ldrble	sp, [r5, #1501]	; 0x5dd
d00297e4:	d5d5d5d5 	ldrble	sp, [r5, #1493]	; 0x5d5
d00297e8:	ddddddd5 	ldclle	13, cr13, [sp, #852]	; 0x354
d00297ec:	44dddddd 	ldrbmi	sp, [sp], #3549	; 0xddd
	...
d00297f8:	80000000 	andhi	r0, r0, r0
d00297fc:	ffffffab 	undefined instruction 0xffffffab
d0029800:	fffbfffb 	undefined instruction 0xfffbfffb
d0029804:	ffffffff 	undefined instruction 0xffffffff
d0029808:	ffffffff 	undefined instruction 0xffffffff
d002980c:	fbfbfbfb 	blx	cff28802 <_start-0xf780e>
d0029810:	aabbfbfb 	bge	cef28804 <_start-0x10f780c>
d0029814:	fbfbbbaa 	blx	cff186c6 <_start-0x10794a>
d0029818:	bbbbfbfb 	bllt	cef2880c <_start-0x10f7804>
d002981c:	aaababab 	bge	ceb146d0 <_start-0x150b940>
d0029820:	aaaaaaaa 	bge	cead42d0 <_start-0x154bd40>
d0029824:	aaaaaaaa 	bge	cead42d4 <_start-0x154bd3c>
d0029828:	aaaaaaaa 	bge	cead42d8 <_start-0x154bd38>
d002982c:	aaaaaaaa 	bge	cead42dc <_start-0x154bd34>
d0029830:	aaaaaaaa 	bge	cead42e0 <_start-0x154bd30>
d0029834:	aaaaaaaa 	bge	cead42e4 <_start-0x154bd2c>
d0029838:	aaaaaaaa 	bge	cead42e8 <_start-0x154bd28>
d002983c:	00888888 	addeq	r8, r8, r8, lsl #17
d0029840:	00000000 	andeq	r0, r0, r0
d0029844:	5f000000 	svcpl	0x00000000
d0029848:	ffffffff 	undefined instruction 0xffffffff
d002984c:	ffffffff 	undefined instruction 0xffffffff
d0029850:	ffffffff 	undefined instruction 0xffffffff
d0029854:	ffffffff 	undefined instruction 0xffffffff
d0029858:	ffffffff 	undefined instruction 0xffffffff
d002985c:	ffffffff 	undefined instruction 0xffffffff
d0029860:	ffffffff 	undefined instruction 0xffffffff
d0029864:	ffffffff 	undefined instruction 0xffffffff
d0029868:	ffffffff 	undefined instruction 0xffffffff
d002986c:	ffffffff 	undefined instruction 0xffffffff
d0029870:	ffffffff 	undefined instruction 0xffffffff
d0029874:	5575f7f7 	ldrbpl	pc, [r5, #-2039]!	; 0x7f7
d0029878:	55555555 	ldrbpl	r5, [r5, #-1365]	; 0x555
d002987c:	57555555 	undefined instruction 0x57555555
d0029880:	f7f77757 	undefined instruction 0xf7f77757
d0029884:	00015155 	andeq	r5, r1, r5, asr r1
	...
d0029890:	eeae0200 	cdp	2, 10, cr0, cr14, cr0, {0}
d0029894:	eeeeefef 	cdp	15, 14, cr14, cr14, cr15, {7}
d0029898:	ffefefee 	undefined instruction 0xffefefee
d002989c:	efefefff 	svc	0x00efefff
d00298a0:	eeeeeeef 	cdp	14, 14, cr14, cr14, cr15, {7}
d00298a4:	eeeeeeee 	cdp	14, 14, cr14, cr14, cr14, {7}
d00298a8:	aeaaaaee 	vfmsge.f32	s20, s21, s29
d00298ac:	eeeeeeee 	cdp	14, 14, cr14, cr14, cr14, {7}
d00298b0:	aaaaeeee 	bge	ceae5470 <_start-0x153aba0>
d00298b4:	aaaaaaaa 	bge	cead4364 <_start-0x154bcac>
d00298b8:	aaaaaaaa 	bge	cead4368 <_start-0x154bca8>
d00298bc:	aaaaaaaa 	bge	cead436c <_start-0x154bca4>
d00298c0:	aaaaaaaa 	bge	cead4370 <_start-0x154bca0>
d00298c4:	aaaaaaaa 	bge	cead4374 <_start-0x154bc9c>
d00298c8:	aaaaaaaa 	bge	cead4378 <_start-0x154bc98>
d00298cc:	aaaaaaaa 	bge	cead437c <_start-0x154bc94>
d00298d0:	a2aaaaaa 	adcge	sl, sl, #696320	; 0xaa000
d00298d4:	000000a2 	andeq	r0, r0, r2, lsr #1
d00298d8:	00000000 	andeq	r0, r0, r0
d00298dc:	ffff5f00 	undefined instruction 0xffff5f00
d00298e0:	ffffffff 	undefined instruction 0xffffffff
d00298e4:	ffffffff 	undefined instruction 0xffffffff
d00298e8:	ffffffff 	undefined instruction 0xffffffff
d00298ec:	ffffffff 	undefined instruction 0xffffffff
d00298f0:	ffffffff 	undefined instruction 0xffffffff
d00298f4:	ffffdffd 	undefined instruction 0xffffdffd
d00298f8:	ffffffff 	undefined instruction 0xffffffff
d00298fc:	ffffffff 	undefined instruction 0xffffffff
d0029900:	dfffffff 	svcle	0x00ffffff
d0029904:	dfdddddd 	svcle	0x00dddddd
d0029908:	dddddddd 	ldclle	13, cr13, [sp, #884]	; 0x374
d002990c:	55d5dddd 	ldrbpl	sp, [r5, #3549]	; 0xddd
d0029910:	5d555555 	cfldr64pl	mvdx5, [r5, #-340]	; 0xfffffeac
d0029914:	dddd5d55 	ldclle	13, cr5, [sp, #340]	; 0x154
d0029918:	d5dddddd 	ldrble	sp, [sp, #3549]	; 0xddd
d002991c:	00000044 	andeq	r0, r0, r4, asr #32
d0029920:	00000000 	andeq	r0, r0, r0
d0029924:	08000000 	stmdaeq	r0, {}
d0029928:	ffffffab 	undefined instruction 0xffffffab
d002992c:	ffffffff 	undefined instruction 0xffffffff
d0029930:	ffffffff 	undefined instruction 0xffffffff
d0029934:	ffffffff 	undefined instruction 0xffffffff
d0029938:	bbbbbfff 	bllt	cef1993c <_start-0x11066d4>
d002993c:	aabbbbbb 	bge	cef18830 <_start-0x11077e0>
d0029940:	bbbbbbaa 	bllt	cef187f0 <_start-0x1107820>
d0029944:	bbbbbbbb 	bllt	cef18838 <_start-0x11077d8>
d0029948:	aabababb 	bge	ceed843c <_start-0x1147bd4>
d002994c:	aaaaaaaa 	bge	cead43fc <_start-0x154bc14>
d0029950:	aaaaaaaa 	bge	cead4400 <_start-0x154bc10>
d0029954:	aaaaaaaa 	bge	cead4404 <_start-0x154bc0c>
d0029958:	aaaaaaaa 	bge	cead4408 <_start-0x154bc08>
d002995c:	aaaaaaaa 	bge	cead440c <_start-0x154bc04>
d0029960:	aaaaaaaa 	bge	cead4410 <_start-0x154bc00>
d0029964:	aaaaaaaa 	bge	cead4414 <_start-0x154bbfc>
d0029968:	008888aa 	addeq	r8, r8, sl, lsr #17
d002996c:	00000000 	andeq	r0, r0, r0
d0029970:	1f000000 	svcne	0x00000000
d0029974:	ffffffff 	undefined instruction 0xffffffff
d0029978:	ffffffff 	undefined instruction 0xffffffff
d002997c:	ffffffff 	undefined instruction 0xffffffff
d0029980:	ffffffff 	undefined instruction 0xffffffff
d0029984:	ffffffff 	undefined instruction 0xffffffff
d0029988:	7fffffff 	svcvc	0x00ffffff
d002998c:	ffffffff 	undefined instruction 0xffffffff
d0029990:	ffffffff 	undefined instruction 0xffffffff
d0029994:	ffffffff 	undefined instruction 0xffffffff
d0029998:	ffffffff 	undefined instruction 0xffffffff
d002999c:	ffff7f77 	undefined instruction 0xffff7f77
d00299a0:	5575ffff 	ldrbpl	pc, [r5, #-4095]!	; 0xfff
d00299a4:	55555555 	ldrbpl	r5, [r5, #-1365]	; 0x555
d00299a8:	55555555 	ldrbpl	r5, [r5, #-1365]	; 0x555
d00299ac:	55555555 	ldrbpl	r5, [r5, #-1365]	; 0x555
d00299b0:	10515555 	subsne	r5, r1, r5, asr r5
	...
d00299bc:	eeaa0000 	cdp	0, 10, cr0, cr10, cr0, {0}
d00299c0:	eeeeeeee 	cdp	14, 14, cr14, cr14, cr14, {7}
d00299c4:	fefeeeee 	cdp2	14, 15, cr14, cr14, cr14, {7}
d00299c8:	eefefefe 	mrc	14, 7, pc, cr14, cr14, {7}
d00299cc:	eeeeeeee 	cdp	14, 14, cr14, cr14, cr14, {7}
d00299d0:	eaeeeeee 	b	cfbe5590 <_start-0x43aa80>
d00299d4:	aeaaaaea 	vfmsge.f32	s20, s21, s21
d00299d8:	eaeeeaee 	b	cfbe4598 <_start-0x43ba78>
d00299dc:	aaeaeaea 	bge	cfae458c <_start-0x53ba84>
d00299e0:	aaaaaaaa 	bge	cead4490 <_start-0x154bb80>
d00299e4:	aaaaaaaa 	bge	cead4494 <_start-0x154bb7c>
d00299e8:	aaaaaaaa 	bge	cead4498 <_start-0x154bb78>
d00299ec:	aaaaaaaa 	bge	cead449c <_start-0x154bb74>
d00299f0:	aaaaaaaa 	bge	cead44a0 <_start-0x154bb70>
d00299f4:	aaaaaaaa 	bge	cead44a4 <_start-0x154bb6c>
d00299f8:	aaaaaaaa 	bge	cead44a8 <_start-0x154bb68>
d00299fc:	aaaaaaaa 	bge	cead44ac <_start-0x154bb64>
d0029a00:	000000aa 	andeq	r0, r0, sl, lsr #1
d0029a04:	00000000 	andeq	r0, r0, r0
d0029a08:	ffff1f00 	undefined instruction 0xffff1f00
d0029a0c:	ffffffff 	undefined instruction 0xffffffff
d0029a10:	ffffffff 	undefined instruction 0xffffffff
d0029a14:	ffffffff 	undefined instruction 0xffffffff
d0029a18:	ffffffff 	undefined instruction 0xffffffff
d0029a1c:	ffffffff 	undefined instruction 0xffffffff
d0029a20:	ffffddfd 	undefined instruction 0xffffddfd
d0029a24:	ffffffff 	undefined instruction 0xffffffff
d0029a28:	ffffffff 	undefined instruction 0xffffffff
d0029a2c:	fdfdddfd 	ldc2l	13, cr13, [sp, #1012]!	; 0x3f4
d0029a30:	dddddddd 	ldclle	13, cr13, [sp, #884]	; 0x374
d0029a34:	dddddddd 	ldclle	13, cr13, [sp, #884]	; 0x374
d0029a38:	d4d5dddd 	ldrble	sp, [r5], #3549	; 0xddd
d0029a3c:	54555554 	ldrbpl	r5, [r5], #-1364	; 0x554
d0029a40:	d5555444 	ldrble	r5, [r5, #-1092]	; 0x444
d0029a44:	d4d5d555 	ldrble	sp, [r5], #1365	; 0x555
d0029a48:	00004044 	andeq	r4, r0, r4, asr #32
d0029a4c:	00800000 	addeq	r0, r0, r0
d0029a50:	00800000 	addeq	r0, r0, r0
d0029a54:	fbfffbab 	blx	d002890a <gImage_pic+0x5f3e>
d0029a58:	fffffbff 	undefined instruction 0xfffffbff
d0029a5c:	ffffffff 	undefined instruction 0xffffffff
d0029a60:	fbffffff 	blx	d0029a66 <gImage_pic+0x709a>
d0029a64:	bbbbbbfb 	bllt	cef18a58 <_start-0x11075b8>
d0029a68:	aabbbbbb 	bge	cef1895c <_start-0x11076b4>
d0029a6c:	bbbbbbaa 	bllt	cef1891c <_start-0x11076f4>
d0029a70:	bbbbbbbb 	bllt	cef18964 <_start-0x11076ac>
d0029a74:	aaababbb 	bge	ceb14968 <_start-0x150b6a8>
d0029a78:	aaaaaaaa 	bge	cead4528 <_start-0x154bae8>
d0029a7c:	aaaaaaaa 	bge	cead452c <_start-0x154bae4>
d0029a80:	aaaaaaaa 	bge	cead4530 <_start-0x154bae0>
d0029a84:	aaaaaaaa 	bge	cead4534 <_start-0x154badc>
d0029a88:	aaaaaaaa 	bge	cead4538 <_start-0x154bad8>
d0029a8c:	aaaaaaaa 	bge	cead453c <_start-0x154bad4>
d0029a90:	aaaaaaaa 	bge	cead4540 <_start-0x154bad0>
d0029a94:	00a8a8aa 	adceq	sl, r8, sl, lsr #17
d0029a98:	00000000 	andeq	r0, r0, r0
d0029a9c:	17000000 	strne	r0, [r0, -r0]
d0029aa0:	ffffffff 	undefined instruction 0xffffffff
d0029aa4:	ffffffff 	undefined instruction 0xffffffff
d0029aa8:	ffffffff 	undefined instruction 0xffffffff
d0029aac:	ffffffff 	undefined instruction 0xffffffff
d0029ab0:	ffffffff 	undefined instruction 0xffffffff
d0029ab4:	f7f7ffff 	undefined instruction 0xf7f7ffff
d0029ab8:	ffffffff 	undefined instruction 0xffffffff
d0029abc:	ffffffff 	undefined instruction 0xffffffff
d0029ac0:	ffffffff 	undefined instruction 0xffffffff
d0029ac4:	f7ffffff 	undefined instruction 0xf7ffffff
d0029ac8:	fffffff7 	undefined instruction 0xfffffff7
d0029acc:	77f7f7ff 	undefined instruction 0x77f7f7ff
d0029ad0:	55555555 	ldrbpl	r5, [r5, #-1365]	; 0x555
d0029ad4:	55515555 	ldrbpl	r5, [r1, #-1365]	; 0x555
d0029ad8:	55555555 	ldrbpl	r5, [r5, #-1365]	; 0x555
d0029adc:	51555555 	cmppl	r5, r5, asr r5
d0029ae0:	00000001 	andeq	r0, r0, r1
d0029ae4:	00000000 	andeq	r0, r0, r0
d0029ae8:	ee2a0000 	cdp	0, 2, cr0, cr10, cr0, {0}
d0029aec:	eeeeeeee 	cdp	14, 14, cr14, cr14, cr14, {7}
d0029af0:	efefefee 	svc	0x00efefee
d0029af4:	efefefff 	svc	0x00efefff
d0029af8:	eeeeeeee 	cdp	14, 14, cr14, cr14, cr14, {7}
d0029afc:	eeeeeeae 	cdp	14, 14, cr14, cr14, cr14, {5}
d0029b00:	aeaaaaaa 	vfmage.f32	s20, s21, s21
d0029b04:	aeaeaeae 	cdpge	14, 10, cr10, cr14, cr14, {5}
d0029b08:	aaaaaaaa 	bge	cead45b8 <_start-0x154ba58>
d0029b0c:	aaaaaaaa 	bge	cead45bc <_start-0x154ba54>
d0029b10:	aaaaaaaa 	bge	cead45c0 <_start-0x154ba50>
d0029b14:	aaaaaaaa 	bge	cead45c4 <_start-0x154ba4c>
d0029b18:	aaaaaaaa 	bge	cead45c8 <_start-0x154ba48>
d0029b1c:	aaaaaaaa 	bge	cead45cc <_start-0x154ba44>
d0029b20:	aaaaaaaa 	bge	cead45d0 <_start-0x154ba40>
d0029b24:	aaaaaaaa 	bge	cead45d4 <_start-0x154ba3c>
d0029b28:	aaaaaaaa 	bge	cead45d8 <_start-0x154ba38>
d0029b2c:	000000aa 	andeq	r0, r0, sl, lsr #1
d0029b30:	00000000 	andeq	r0, r0, r0
d0029b34:	ffff0700 	undefined instruction 0xffff0700
d0029b38:	ffffffff 	undefined instruction 0xffffffff
d0029b3c:	ffffffff 	undefined instruction 0xffffffff
d0029b40:	ffffffff 	undefined instruction 0xffffffff
d0029b44:	ffffffff 	undefined instruction 0xffffffff
d0029b48:	ffffffff 	undefined instruction 0xffffffff
d0029b4c:	ffffdddd 	undefined instruction 0xffffdddd
d0029b50:	ffffffff 	undefined instruction 0xffffffff
d0029b54:	ffffffff 	undefined instruction 0xffffffff
d0029b58:	dddfdfff 	ldclle	15, cr13, [pc, #1020]	; 0x3fc
d0029b5c:	dddfdddf 	ldclle	13, cr13, [pc, #892]	; 0x37c
d0029b60:	dddddddd 	ldclle	13, cr13, [sp, #884]	; 0x374
d0029b64:	d5dddddd 	ldrble	sp, [sp, #3549]	; 0xddd
d0029b68:	445d4545 	ldrbmi	r4, [sp], #-1349	; 0x545
d0029b6c:	44444444 	strbmi	r4, [r4], #-1092	; 0x444
d0029b70:	45454544 	strbmi	r4, [r5, #-1348]	; 0x544
d0029b74:	00444444 	subeq	r4, r4, r4, asr #8
d0029b78:	00000000 	andeq	r0, r0, r0
d0029b7c:	08000000 	stmdaeq	r0, {}
d0029b80:	ffffbf8b 	undefined instruction 0xffffbf8b
d0029b84:	bfffffff 	svclt	0x00ffffff
d0029b88:	ffffffff 	undefined instruction 0xffffffff
d0029b8c:	ffffffff 	undefined instruction 0xffffffff
d0029b90:	bbbbbbbb 	bllt	cef18a84 <_start-0x110758c>
d0029b94:	aaaabbbb 	bge	cead8a88 <_start-0x1547588>
d0029b98:	bbbbbbaa 	bllt	cef18a48 <_start-0x11075c8>
d0029b9c:	bbbbbbbb 	bllt	cef18a90 <_start-0x1107580>
d0029ba0:	aaaababb 	bge	cead8694 <_start-0x154797c>
d0029ba4:	aaaaaaaa 	bge	cead4654 <_start-0x154b9bc>
d0029ba8:	aaaaaaaa 	bge	cead4658 <_start-0x154b9b8>
d0029bac:	aaaaaaaa 	bge	cead465c <_start-0x154b9b4>
d0029bb0:	aaaaaaaa 	bge	cead4660 <_start-0x154b9b0>
d0029bb4:	aaaaaaaa 	bge	cead4664 <_start-0x154b9ac>
d0029bb8:	aaaaaaaa 	bge	cead4668 <_start-0x154b9a8>
d0029bbc:	aaaaaaaa 	bge	cead466c <_start-0x154b9a4>
d0029bc0:	00aaaaaa 	adceq	sl, sl, sl, lsr #21
d0029bc4:	00000000 	andeq	r0, r0, r0
d0029bc8:	07000000 	streq	r0, [r0, -r0]
d0029bcc:	ffffffff 	undefined instruction 0xffffffff
d0029bd0:	ffffffff 	undefined instruction 0xffffffff
d0029bd4:	ffffffff 	undefined instruction 0xffffffff
d0029bd8:	ffffffff 	undefined instruction 0xffffffff
d0029bdc:	ffffffff 	undefined instruction 0xffffffff
d0029be0:	77f5ffff 	undefined instruction 0x77f5ffff
d0029be4:	ffffffff 	undefined instruction 0xffffffff
d0029be8:	ffffffff 	undefined instruction 0xffffffff
d0029bec:	ffffffff 	undefined instruction 0xffffffff
d0029bf0:	ffffffff 	undefined instruction 0xffffffff
d0029bf4:	ffffffff 	undefined instruction 0xffffffff
d0029bf8:	f5ffffff 	undefined instruction 0xf5ffffff
d0029bfc:	55555555 	ldrbpl	r5, [r5, #-1365]	; 0x555
d0029c00:	11115555 	tstne	r1, r5, asr r5
d0029c04:	15111111 	ldrne	r1, [r1, #-273]	; 0x111
d0029c08:	11155555 	tstne	r5, r5, asr r5
d0029c0c:	00001011 	andeq	r1, r0, r1, lsl r0
d0029c10:	00000000 	andeq	r0, r0, r0
d0029c14:	ee2a0000 	cdp	0, 2, cr0, cr10, cr0, {0}
d0029c18:	eeeeeeee 	cdp	14, 14, cr14, cr14, cr14, {7}
d0029c1c:	feeeeeee 	cdp2	14, 14, cr14, cr14, cr14, {7}
d0029c20:	fefefefe 	mrc2	14, 7, pc, cr14, cr14, {7}
d0029c24:	eaeaeeee 	b	cfae57e4 <_start-0x53a82c>
d0029c28:	eaeeeeea 	b	cfbe57d8 <_start-0x43a838>
d0029c2c:	aaaaaaaa 	bge	cead46dc <_start-0x154b934>
d0029c30:	aaaaaaaa 	bge	cead46e0 <_start-0x154b930>
d0029c34:	aaaaaaaa 	bge	cead46e4 <_start-0x154b92c>
d0029c38:	aaaaaaaa 	bge	cead46e8 <_start-0x154b928>
d0029c3c:	aaaaaaaa 	bge	cead46ec <_start-0x154b924>
d0029c40:	aaaaaaaa 	bge	cead46f0 <_start-0x154b920>
d0029c44:	aaaaaaaa 	bge	cead46f4 <_start-0x154b91c>
d0029c48:	aaaaaaaa 	bge	cead46f8 <_start-0x154b918>
d0029c4c:	aaaaaaaa 	bge	cead46fc <_start-0x154b914>
d0029c50:	aaaaaaaa 	bge	cead4700 <_start-0x154b910>
d0029c54:	aaaaaaaa 	bge	cead4704 <_start-0x154b90c>
d0029c58:	000000aa 	andeq	r0, r0, sl, lsr #1
d0029c5c:	00000000 	andeq	r0, r0, r0
d0029c60:	ffff0700 	undefined instruction 0xffff0700
d0029c64:	ffffffff 	undefined instruction 0xffffffff
d0029c68:	ffffffff 	undefined instruction 0xffffffff
d0029c6c:	ffffffff 	undefined instruction 0xffffffff
d0029c70:	ffffffff 	undefined instruction 0xffffffff
d0029c74:	ddffffff 	ldclle	15, cr15, [pc, #1020]!	; 0x3fc
d0029c78:	ffffdddd 	undefined instruction 0xffffdddd
d0029c7c:	ffffffff 	undefined instruction 0xffffffff
d0029c80:	ffffffff 	undefined instruction 0xffffffff
d0029c84:	ddfdffff 	ldclle	15, cr15, [sp, #1020]!	; 0x3fc
d0029c88:	dddddddd 	ldclle	13, cr13, [sp, #884]	; 0x374
d0029c8c:	dddddddd 	ldclle	13, cr13, [sp, #884]	; 0x374
d0029c90:	d4dddddd 	ldrble	sp, [sp], #3549	; 0xddd
d0029c94:	c45d4444 	ldrbgt	r4, [sp], #-1092	; 0x444
d0029c98:	00004040 	andeq	r4, r0, r0, asr #32
d0029c9c:	40404000 	submi	r4, r0, r0
d0029ca0:	40404044 	submi	r4, r0, r4, asr #32
d0029ca4:	00000000 	andeq	r0, r0, r0
d0029ca8:	80000000 	andhi	r0, r0, r0
d0029cac:	ffffff8b 	undefined instruction 0xffffff8b
d0029cb0:	fffbfbbb 	undefined instruction 0xfffbfbbb
d0029cb4:	ffffffff 	undefined instruction 0xffffffff
d0029cb8:	fbffffff 	blx	d0029cbe <gImage_pic+0x72f2>
d0029cbc:	bbbbbbbb 	bllt	cef18bb0 <_start-0x1107460>
d0029cc0:	aaaababb 	bge	cead87b4 <_start-0x154785c>
d0029cc4:	abbbabaa 	blge	cef14b74 <_start-0x110b49c>
d0029cc8:	ababbbab 	blge	ceb18b7c <_start-0x1507494>
d0029ccc:	abababab 	blge	ceb14b80 <_start-0x150b490>
d0029cd0:	aaaaaaaa 	bge	cead4780 <_start-0x154b890>
d0029cd4:	aaaaaaaa 	bge	cead4784 <_start-0x154b88c>
d0029cd8:	aaaaaaaa 	bge	cead4788 <_start-0x154b888>
d0029cdc:	aaaaaaaa 	bge	cead478c <_start-0x154b884>
d0029ce0:	aaaaaaaa 	bge	cead4790 <_start-0x154b880>
d0029ce4:	aaaaaaaa 	bge	cead4794 <_start-0x154b87c>
d0029ce8:	aaaaaaaa 	bge	cead4798 <_start-0x154b878>
d0029cec:	00aaaaaa 	adceq	sl, sl, sl, lsr #21
d0029cf0:	00000000 	andeq	r0, r0, r0
d0029cf4:	07000000 	streq	r0, [r0, -r0]
d0029cf8:	ffffffff 	undefined instruction 0xffffffff
d0029cfc:	ffffffff 	undefined instruction 0xffffffff
d0029d00:	ffffffff 	undefined instruction 0xffffffff
d0029d04:	ffffffff 	undefined instruction 0xffffffff
d0029d08:	ffffffff 	undefined instruction 0xffffffff
d0029d0c:	5755f7ff 	smmlsrpl	r5, pc, r7, pc
d0029d10:	ffffffff 	undefined instruction 0xffffffff
d0029d14:	ffffffff 	undefined instruction 0xffffffff
d0029d18:	ffffffff 	undefined instruction 0xffffffff
d0029d1c:	fff7ffff 	undefined instruction 0xfff7ffff
d0029d20:	fff7f7ff 	undefined instruction 0xfff7f7ff
d0029d24:	f7f7f7f7 	undefined instruction 0xf7f7f7f7
d0029d28:	51515555 	cmppl	r1, r5, asr r5
d0029d2c:	01115155 	tsteq	r1, r5, asr r1
d0029d30:	11110101 	tstne	r1, r1, lsl #2
d0029d34:	11111111 	tstne	r1, r1, lsl r1
d0029d38:	00001111 	andeq	r1, r0, r1, lsl r1
d0029d3c:	00000000 	andeq	r0, r0, r0
d0029d40:	ee2a0000 	cdp	0, 2, cr0, cr10, cr0, {0}
d0029d44:	eeeeeeee 	cdp	14, 14, cr14, cr14, cr14, {7}
d0029d48:	efefeeee 	svc	0x00efeeee
d0029d4c:	efefefef 	svc	0x00efefef
d0029d50:	aeeeeeee 	cdpge	14, 14, cr14, cr14, cr14, {7}
d0029d54:	aaeeeeae 	bge	cfbe5814 <_start-0x43a7fc>
d0029d58:	aaaaaaaa 	bge	cead4808 <_start-0x154b808>
d0029d5c:	aaaaaaaa 	bge	cead480c <_start-0x154b804>
d0029d60:	aaaaaaaa 	bge	cead4810 <_start-0x154b800>
d0029d64:	aaaaaaaa 	bge	cead4814 <_start-0x154b7fc>
d0029d68:	aaaaaaaa 	bge	cead4818 <_start-0x154b7f8>
d0029d6c:	aaaaaaaa 	bge	cead481c <_start-0x154b7f4>
d0029d70:	aaaaaaaa 	bge	cead4820 <_start-0x154b7f0>
d0029d74:	aaaaaaaa 	bge	cead4824 <_start-0x154b7ec>
d0029d78:	aaaaaaaa 	bge	cead4828 <_start-0x154b7e8>
d0029d7c:	aaaaaaaa 	bge	cead482c <_start-0x154b7e4>
d0029d80:	aaaaaaaa 	bge	cead4830 <_start-0x154b7e0>
d0029d84:	000000aa 	andeq	r0, r0, sl, lsr #1
d0029d88:	00000000 	andeq	r0, r0, r0
d0029d8c:	ffff0f00 	undefined instruction 0xffff0f00
d0029d90:	ffffffff 	undefined instruction 0xffffffff
d0029d94:	ffffffff 	undefined instruction 0xffffffff
d0029d98:	ffffffff 	undefined instruction 0xffffffff
d0029d9c:	ffffffff 	undefined instruction 0xffffffff
d0029da0:	ddfdffff 	ldclle	15, cr15, [sp, #1020]!	; 0x3fc
d0029da4:	ffff5dd5 	undefined instruction 0xffff5dd5
d0029da8:	ddffffff 	ldclle	15, cr15, [pc, #1020]!	; 0x3fc
d0029dac:	ffffdfdf 	undefined instruction 0xffffdfdf
d0029db0:	dfdfffff 	svcle	0x00dfffff
d0029db4:	dddddfdd 	ldclle	15, cr13, [sp, #884]	; 0x374
d0029db8:	dddddddf 	ldclle	13, cr13, [sp, #892]	; 0x37c
d0029dbc:	d4dddddd 	ldrble	sp, [sp], #3549	; 0xddd
d0029dc0:	44444444 	strbmi	r4, [r4], #-1092	; 0x444
	...
d0029dd8:	fbffbfab 	blx	d0019c8e <_start-0x6382>
d0029ddc:	ffbfbfbf 	undefined instruction 0xffbfbfbf
d0029de0:	ffffffff 	undefined instruction 0xffffffff
d0029de4:	fbffffff 	blx	d0029dea <gImage_pic+0x741e>
d0029de8:	bbbbbbbb 	bllt	cef18cdc <_start-0x1107334>
d0029dec:	aaaaaabb 	bge	cead48e0 <_start-0x154b730>
d0029df0:	aaaaaaaa 	bge	cead48a0 <_start-0x154b770>
d0029df4:	aaaaaaaa 	bge	cead48a4 <_start-0x154b76c>
d0029df8:	aaaaaaaa 	bge	cead48a8 <_start-0x154b768>
d0029dfc:	aaaaaaaa 	bge	cead48ac <_start-0x154b764>
d0029e00:	aaaaaaaa 	bge	cead48b0 <_start-0x154b760>
d0029e04:	aaaaaaaa 	bge	cead48b4 <_start-0x154b75c>
d0029e08:	aaaaaaaa 	bge	cead48b8 <_start-0x154b758>
d0029e0c:	aaaaaaaa 	bge	cead48bc <_start-0x154b754>
d0029e10:	aaaaaaaa 	bge	cead48c0 <_start-0x154b750>
d0029e14:	aaaaaaaa 	bge	cead48c4 <_start-0x154b74c>
d0029e18:	00aaaaaa 	adceq	sl, sl, sl, lsr #21
d0029e1c:	00000000 	andeq	r0, r0, r0
d0029e20:	1f000000 	svcne	0x00000000
d0029e24:	ffffffff 	undefined instruction 0xffffffff
d0029e28:	ffffffff 	undefined instruction 0xffffffff
d0029e2c:	ffffffff 	undefined instruction 0xffffffff
d0029e30:	ffffffff 	undefined instruction 0xffffffff
d0029e34:	ffffffff 	undefined instruction 0xffffffff
d0029e38:	555555f5 	ldrbpl	r5, [r5, #-1525]	; 0x5f5
d0029e3c:	ffffff7f 	undefined instruction 0xffffff7f
d0029e40:	ff7fffff 	undefined instruction 0xff7fffff
d0029e44:	ffffffff 	undefined instruction 0xffffffff
d0029e48:	ffffffff 	undefined instruction 0xffffffff
d0029e4c:	ffff7fff 	undefined instruction 0xffff7fff
d0029e50:	75777777 	ldrbvc	r7, [r7, #-1911]!	; 0x777
d0029e54:	11555555 	cmpne	r5, r5, asr r5
d0029e58:	10101111 	andsne	r1, r0, r1, lsl r1
d0029e5c:	00000000 	andeq	r0, r0, r0
d0029e60:	00000010 	andeq	r0, r0, r0, lsl r0
	...
d0029e6c:	ee2a0000 	cdp	0, 2, cr0, cr10, cr0, {0}
d0029e70:	eeeeeeee 	cdp	14, 14, cr14, cr14, cr14, {7}
d0029e74:	fefeeeee 	cdp2	14, 15, cr14, cr14, cr14, {7}
d0029e78:	eefefefe 	mrc	14, 7, pc, cr14, cr14, {7}
d0029e7c:	eaeaeeee 	b	cfae5a3c <_start-0x53a5d4>
d0029e80:	aaeaeeaa 	bge	cfae5930 <_start-0x53a6e0>
d0029e84:	aaaaaaaa 	bge	cead4934 <_start-0x154b6dc>
d0029e88:	aaaaaaaa 	bge	cead4938 <_start-0x154b6d8>
d0029e8c:	aaaaaaaa 	bge	cead493c <_start-0x154b6d4>
d0029e90:	aaaaaaaa 	bge	cead4940 <_start-0x154b6d0>
d0029e94:	aaaaaaaa 	bge	cead4944 <_start-0x154b6cc>
d0029e98:	aaaaaaaa 	bge	cead4948 <_start-0x154b6c8>
d0029e9c:	aaaaaaaa 	bge	cead494c <_start-0x154b6c4>
d0029ea0:	aaaaaaaa 	bge	cead4950 <_start-0x154b6c0>
d0029ea4:	aaaaaaaa 	bge	cead4954 <_start-0x154b6bc>
d0029ea8:	aaaaaaaa 	bge	cead4958 <_start-0x154b6b8>
d0029eac:	aaaaaaaa 	bge	cead495c <_start-0x154b6b4>
d0029eb0:	000000aa 	andeq	r0, r0, sl, lsr #1
d0029eb4:	00000000 	andeq	r0, r0, r0
d0029eb8:	ffff1f00 	undefined instruction 0xffff1f00
d0029ebc:	ffffffff 	undefined instruction 0xffffffff
d0029ec0:	ffffffff 	undefined instruction 0xffffffff
d0029ec4:	ffffffff 	undefined instruction 0xffffffff
d0029ec8:	ffffffff 	undefined instruction 0xffffffff
d0029ecc:	d5ddffff 	ldrble	pc, [sp, #4095]	; 0xfff
d0029ed0:	ddddd555 	cfldr64le	mvdx13, [sp, #340]	; 0x154
d0029ed4:	dddddddd 	ldclle	13, cr13, [sp, #884]	; 0x374
d0029ed8:	fddddddd 	ldc2l	13, cr13, [sp, #884]	; 0x374
d0029edc:	dfdddddd 	svcle	0x00dddddd
d0029ee0:	ddddfdff 	ldclle	13, cr15, [sp, #1020]	; 0x3fc
d0029ee4:	ddddfddd 	ldclle	13, cr15, [sp, #884]	; 0x374
d0029ee8:	54d5dddd 	ldrbpl	sp, [r5], #3549	; 0xddd
d0029eec:	00004044 	andeq	r4, r0, r4, asr #32
	...
d0029efc:	00000080 	andeq	r0, r0, r0, lsl #1
d0029f00:	00000000 	andeq	r0, r0, r0
d0029f04:	bbfbfbab 	bllt	cff28db8 <_start-0xf7258>
d0029f08:	fbfbfbbb 	blx	cff28dfe <_start-0xf7212>
d0029f0c:	ffffffff 	undefined instruction 0xffffffff
d0029f10:	fbffffff 	blx	d0029f16 <gImage_pic+0x754a>
d0029f14:	bbbbbbbb 	bllt	cef18e08 <_start-0x1107208>
d0029f18:	aaaaaaba 	bge	cead4a08 <_start-0x154b608>
d0029f1c:	aaaaaaaa 	bge	cead49cc <_start-0x154b644>
d0029f20:	aaaaaaaa 	bge	cead49d0 <_start-0x154b640>
d0029f24:	aaaaaaaa 	bge	cead49d4 <_start-0x154b63c>
d0029f28:	abaaaaaa 	blge	cead49d8 <_start-0x154b638>
d0029f2c:	aaaaaaaa 	bge	cead49dc <_start-0x154b634>
d0029f30:	aaaaaaaa 	bge	cead49e0 <_start-0x154b630>
d0029f34:	aaaaaaaa 	bge	cead49e4 <_start-0x154b62c>
d0029f38:	a8aaaaaa 	stmiage	sl!, {r1, r3, r5, r7, r9, fp, sp, pc}
d0029f3c:	a8a8a8aa 	stmiage	r8!, {r1, r3, r5, r7, fp, sp, pc}
d0029f40:	88a8a8a8 	stmiahi	r8!, {r3, r5, r7, fp, sp, pc}
d0029f44:	008888a8 	addeq	r8, r8, r8, lsr #17
d0029f48:	00000000 	andeq	r0, r0, r0
d0029f4c:	1f000000 	svcne	0x00000000
d0029f50:	ffffffff 	undefined instruction 0xffffffff
d0029f54:	ffffffff 	undefined instruction 0xffffffff
d0029f58:	ffffffff 	undefined instruction 0xffffffff
d0029f5c:	ffffffff 	undefined instruction 0xffffffff
d0029f60:	ffffffff 	undefined instruction 0xffffffff
d0029f64:	555555d5 	ldrbpl	r5, [r5, #-1493]	; 0x5d5
d0029f68:	f777f757 	undefined instruction 0xf777f757
d0029f6c:	f7777777 	undefined instruction 0xf7777777
d0029f70:	fff7f7f7 	undefined instruction 0xfff7f7f7
d0029f74:	fffffff7 	undefined instruction 0xfffffff7
d0029f78:	fffff7f7 	undefined instruction 0xfffff7f7
d0029f7c:	7777f7f7 	undefined instruction 0x7777f7f7
d0029f80:	11515555 	cmpne	r1, r5, asr r5
d0029f84:	00000101 	andeq	r0, r0, r1, lsl #2
	...
d0029f98:	ee2a0000 	cdp	0, 2, cr0, cr10, cr0, {0}
d0029f9c:	eeeeeeee 	cdp	14, 14, cr14, cr14, cr14, {7}
d0029fa0:	efefefee 	svc	0x00efefee
d0029fa4:	efefefef 	svc	0x00efefef
d0029fa8:	aaeeeeee 	bge	cfbe5b68 <_start-0x43a4a8>
d0029fac:	aaaaeeae 	bge	ceae5a6c <_start-0x153a5a4>
d0029fb0:	aaaaaaaa 	bge	cead4a60 <_start-0x154b5b0>
d0029fb4:	aaaaaaaa 	bge	cead4a64 <_start-0x154b5ac>
d0029fb8:	aaaaaaaa 	bge	cead4a68 <_start-0x154b5a8>
d0029fbc:	aaaaaaaa 	bge	cead4a6c <_start-0x154b5a4>
d0029fc0:	aaaaaaaa 	bge	cead4a70 <_start-0x154b5a0>
d0029fc4:	aaaaaaaa 	bge	cead4a74 <_start-0x154b59c>
d0029fc8:	aaaaaaaa 	bge	cead4a78 <_start-0x154b598>
d0029fcc:	aaaaaaaa 	bge	cead4a7c <_start-0x154b594>
d0029fd0:	aaaaaaaa 	bge	cead4a80 <_start-0x154b590>
d0029fd4:	aaaaaaaa 	bge	cead4a84 <_start-0x154b58c>
d0029fd8:	a2aaaaaa 	adcge	sl, sl, #696320	; 0xaa000
d0029fdc:	000000a2 	andeq	r0, r0, r2, lsr #1
d0029fe0:	00000000 	andeq	r0, r0, r0
d0029fe4:	ffff1f00 	undefined instruction 0xffff1f00
d0029fe8:	ffffffff 	undefined instruction 0xffffffff
d0029fec:	ffffffff 	undefined instruction 0xffffffff
d0029ff0:	ffffffff 	undefined instruction 0xffffffff
d0029ff4:	ffffffff 	undefined instruction 0xffffffff
d0029ff8:	55d5fdff 	ldrbpl	pc, [r5, #3583]	; 0xdff
d0029ffc:	dddd5555 	cfldr64le	mvdx5, [sp, #340]	; 0x154
d002a000:	dddddddd 	ldclle	13, cr13, [sp, #884]	; 0x374
d002a004:	dddddddd 	ldclle	13, cr13, [sp, #884]	; 0x374
d002a008:	dfdddddd 	svcle	0x00dddddd
d002a00c:	ddddffff 	ldclle	15, cr15, [sp, #1020]	; 0x3fc
d002a010:	dddddddf 	ldclle	13, cr13, [sp, #892]	; 0x37c
d002a014:	44d5dddd 	ldrbmi	sp, [r5], #3549	; 0xddd
d002a018:	00000044 	andeq	r0, r0, r4, asr #32
	...
d002a02c:	08000000 	stmdaeq	r0, {}
d002a030:	bfbfbfab 	svclt	0x00bfbfab
d002a034:	bfbbffff 	svclt	0x00bbffff
d002a038:	ffffffff 	undefined instruction 0xffffffff
d002a03c:	ffffffff 	undefined instruction 0xffffffff
d002a040:	bbbbbbbb 	bllt	cef18f34 <_start-0x11070dc>
d002a044:	aaaaaaaa 	bge	cead4af4 <_start-0x154b51c>
d002a048:	aaaaaaaa 	bge	cead4af8 <_start-0x154b518>
d002a04c:	aaaaaaaa 	bge	cead4afc <_start-0x154b514>
d002a050:	aaaaaaaa 	bge	cead4b00 <_start-0x154b510>
d002a054:	aaaaaaaa 	bge	cead4b04 <_start-0x154b50c>
d002a058:	aaaaaaaa 	bge	cead4b08 <_start-0x154b508>
d002a05c:	aaaaaaaa 	bge	cead4b0c <_start-0x154b504>
d002a060:	aaaaaaaa 	bge	cead4b10 <_start-0x154b500>
d002a064:	aaaaaaaa 	bge	cead4b14 <_start-0x154b4fc>
d002a068:	8a8a8aaa 	bhi	ce2ccb18 <_start-0x1d534f8>
d002a06c:	88888a88 	stmhi	r8, {r3, r7, r9, fp, pc}
d002a070:	00888888 	addeq	r8, r8, r8, lsl #17
d002a074:	00000000 	andeq	r0, r0, r0
d002a078:	17000000 	strne	r0, [r0, -r0]
d002a07c:	ffffffff 	undefined instruction 0xffffffff
d002a080:	ffffffff 	undefined instruction 0xffffffff
d002a084:	ffffffff 	undefined instruction 0xffffffff
d002a088:	ffffffff 	undefined instruction 0xffffffff
d002a08c:	ffffffff 	undefined instruction 0xffffffff
d002a090:	55555555 	ldrbpl	r5, [r5, #-1365]	; 0x555
d002a094:	55757575 	ldrbpl	r7, [r5, #-1397]!	; 0x575
d002a098:	75757575 	ldrbvc	r7, [r5, #-1397]!	; 0x575
d002a09c:	77777777 	undefined instruction 0x77777777
d002a0a0:	ffff7f7f 	undefined instruction 0xffff7f7f
d002a0a4:	77ff7fff 	undefined instruction 0x77ff7fff
d002a0a8:	55757f7f 	ldrbpl	r7, [r5, #-3967]!	; 0xf7f
d002a0ac:	10555555 	subsne	r5, r5, r5, asr r5
d002a0b0:	00000010 	andeq	r0, r0, r0, lsl r0
	...
d002a0c4:	ee2a0000 	cdp	0, 2, cr0, cr10, cr0, {0}
d002a0c8:	eeeeeeee 	cdp	14, 14, cr14, cr14, cr14, {7}
d002a0cc:	feeeeeee 	cdp2	14, 14, cr14, cr14, cr14, {7}
d002a0d0:	feeefefe 	mcr2	14, 7, pc, cr14, cr14, {7}
d002a0d4:	eaeaeeee 	b	cfae5c94 <_start-0x53a37c>
d002a0d8:	aaaaeaaa 	bge	ceae4b88 <_start-0x153b488>
d002a0dc:	aaaaaaaa 	bge	cead4b8c <_start-0x154b484>
d002a0e0:	aaaaaaaa 	bge	cead4b90 <_start-0x154b480>
d002a0e4:	aaaaaaaa 	bge	cead4b94 <_start-0x154b47c>
d002a0e8:	aaaaaaaa 	bge	cead4b98 <_start-0x154b478>
d002a0ec:	aaaaaaaa 	bge	cead4b9c <_start-0x154b474>
d002a0f0:	aaaaaaaa 	bge	cead4ba0 <_start-0x154b470>
d002a0f4:	aaaaaaaa 	bge	cead4ba4 <_start-0x154b46c>
d002a0f8:	aaaaaaaa 	bge	cead4ba8 <_start-0x154b468>
d002a0fc:	aaaaaaaa 	bge	cead4bac <_start-0x154b464>
d002a100:	aaaaaaaa 	bge	cead4bb0 <_start-0x154b460>
d002a104:	22222aaa 	eorcs	r2, r2, #696320	; 0xaa000
d002a108:	00000022 	andeq	r0, r0, r2, lsr #32
d002a10c:	00000000 	andeq	r0, r0, r0
d002a110:	ffff0500 	undefined instruction 0xffff0500
d002a114:	ffffffff 	undefined instruction 0xffffffff
d002a118:	ffffffff 	undefined instruction 0xffffffff
d002a11c:	ffffffff 	undefined instruction 0xffffffff
d002a120:	ffffffff 	undefined instruction 0xffffffff
d002a124:	54d4fdff 	ldrbpl	pc, [r4], #3583	; 0xdff
d002a128:	dddd5554 	cfldr64le	mvdx5, [sp, #336]	; 0x150
d002a12c:	dddddddd 	ldclle	13, cr13, [sp, #884]	; 0x374
d002a130:	dddddddd 	ldclle	13, cr13, [sp, #884]	; 0x374
d002a134:	dddddddd 	ldclle	13, cr13, [sp, #884]	; 0x374
d002a138:	dddddddd 	ldclle	13, cr13, [sp, #884]	; 0x374
d002a13c:	dddddddd 	ldclle	13, cr13, [sp, #884]	; 0x374
d002a140:	44d5dddd 	ldrbmi	sp, [r5], #3549	; 0xddd
d002a144:	00000044 	andeq	r0, r0, r4, asr #32
	...
d002a158:	80008000 	andhi	r8, r0, r0
d002a15c:	fffbfb8a 	undefined instruction 0xfffbfb8a
d002a160:	fffbffff 	undefined instruction 0xfffbffff
d002a164:	ffffffff 	undefined instruction 0xffffffff
d002a168:	fbffffff 	blx	d002a16e <gImage_pic+0x77a2>
d002a16c:	bbbbbbbb 	bllt	cef19060 <_start-0x1106fb0>
d002a170:	aaaaaaaa 	bge	cead4c20 <_start-0x154b3f0>
d002a174:	aaaaaaaa 	bge	cead4c24 <_start-0x154b3ec>
d002a178:	aaaaaaaa 	bge	cead4c28 <_start-0x154b3e8>
d002a17c:	aaaaaaaa 	bge	cead4c2c <_start-0x154b3e4>
d002a180:	aaaaaaaa 	bge	cead4c30 <_start-0x154b3e0>
d002a184:	aaaaaaaa 	bge	cead4c34 <_start-0x154b3dc>
d002a188:	aaaaaaaa 	bge	cead4c38 <_start-0x154b3d8>
d002a18c:	aaaaaaaa 	bge	cead4c3c <_start-0x154b3d4>
d002a190:	a8a8aaaa 	stmiage	r8!, {r1, r3, r5, r7, r9, fp, sp, pc}
d002a194:	8888a8a8 	stmhi	r8, {r3, r5, r7, fp, sp, pc}
d002a198:	88888888 	stmhi	r8, {r3, r7, fp, pc}
d002a19c:	00888888 	addeq	r8, r8, r8, lsl #17
d002a1a0:	00000000 	andeq	r0, r0, r0
d002a1a4:	07000000 	streq	r0, [r0, -r0]
d002a1a8:	ffffffff 	undefined instruction 0xffffffff
d002a1ac:	ffffffff 	undefined instruction 0xffffffff
d002a1b0:	ffffffff 	undefined instruction 0xffffffff
d002a1b4:	ffffffff 	undefined instruction 0xffffffff
d002a1b8:	f5ffffff 	undefined instruction 0xf5ffffff
d002a1bc:	55555555 	ldrbpl	r5, [r5, #-1365]	; 0x555
d002a1c0:	575577f7 	smmlsrpl	r5, r7, r7, r7
d002a1c4:	57555757 	undefined instruction 0x57555757
d002a1c8:	77f777f7 	undefined instruction 0x77f777f7
d002a1cc:	f7f777f7 	undefined instruction 0xf7f777f7
d002a1d0:	77f7ff77 	undefined instruction 0x77f7ff77
d002a1d4:	57f75757 	ubfxpl	r5, r7, #14, #24
d002a1d8:	11515155 	cmpne	r1, r5, asr r1
d002a1dc:	00000001 	andeq	r0, r0, r1
	...
d002a1f0:	ee2a0000 	cdp	0, 2, cr0, cr10, cr0, {0}
d002a1f4:	eeefeeee 	cdp	14, 14, cr14, cr15, cr14, {7}
d002a1f8:	ffefeeee 	undefined instruction 0xffefeeee
d002a1fc:	efefefef 	svc	0x00efefef
d002a200:	eeeeeeee 	cdp	14, 14, cr14, cr14, cr14, {7}
d002a204:	aaaaeaae 	bge	ceae4cc4 <_start-0x153b34c>
d002a208:	aaaaaaaa 	bge	cead4cb8 <_start-0x154b358>
d002a20c:	aaaaaaaa 	bge	cead4cbc <_start-0x154b354>
d002a210:	aaaaaaaa 	bge	cead4cc0 <_start-0x154b350>
d002a214:	aaaaaaaa 	bge	cead4cc4 <_start-0x154b34c>
d002a218:	aaaaaaaa 	bge	cead4cc8 <_start-0x154b348>
d002a21c:	aaaaaaaa 	bge	cead4ccc <_start-0x154b344>
d002a220:	aaaaaaaa 	bge	cead4cd0 <_start-0x154b340>
d002a224:	aaaaaaaa 	bge	cead4cd4 <_start-0x154b33c>
d002a228:	aaaaaaaa 	bge	cead4cd8 <_start-0x154b338>
d002a22c:	a2a2aaaa 	adcge	sl, r2, #696320	; 0xaa000
d002a230:	2222a2a2 	eorcs	sl, r2, #536870922	; 0x2000000a
d002a234:	00000002 	andeq	r0, r0, r2
d002a238:	00000000 	andeq	r0, r0, r0
d002a23c:	ffff0500 	undefined instruction 0xffff0500
d002a240:	ffffffff 	undefined instruction 0xffffffff
d002a244:	ffffffff 	undefined instruction 0xffffffff
d002a248:	ffffffff 	undefined instruction 0xffffffff
d002a24c:	ffffffff 	undefined instruction 0xffffffff
d002a250:	4544d5ff 	strbmi	sp, [r4, #-1535]	; 0x5ff
d002a254:	dddd4545 	cfldr64le	mvdx4, [sp, #276]	; 0x114
d002a258:	dddddddd 	ldclle	13, cr13, [sp, #884]	; 0x374
d002a25c:	dddddddd 	ldclle	13, cr13, [sp, #884]	; 0x374
d002a260:	dddddddd 	ldclle	13, cr13, [sp, #884]	; 0x374
d002a264:	dddddddd 	ldclle	13, cr13, [sp, #884]	; 0x374
d002a268:	dddddddd 	ldclle	13, cr13, [sp, #884]	; 0x374
d002a26c:	54d5dddd 	ldrbpl	sp, [r5], #3549	; 0xddd
d002a270:	00004444 	andeq	r4, r0, r4, asr #8
	...
d002a288:	ffbfbb8a 	undefined instruction 0xffbfbb8a
d002a28c:	ffffffff 	undefined instruction 0xffffffff
d002a290:	ffffffff 	undefined instruction 0xffffffff
d002a294:	ffffffff 	undefined instruction 0xffffffff
d002a298:	babbbbbb 	blt	cef1918c <_start-0x1106e84>
d002a29c:	aaaaaaaa 	bge	cead4d4c <_start-0x154b2c4>
d002a2a0:	aaaaaaaa 	bge	cead4d50 <_start-0x154b2c0>
d002a2a4:	aaaaaaaa 	bge	cead4d54 <_start-0x154b2bc>
d002a2a8:	aaaaaaaa 	bge	cead4d58 <_start-0x154b2b8>
d002a2ac:	aaaaaaaa 	bge	cead4d5c <_start-0x154b2b4>
d002a2b0:	aaaaaaaa 	bge	cead4d60 <_start-0x154b2b0>
d002a2b4:	aaaaaaaa 	bge	cead4d64 <_start-0x154b2ac>
d002a2b8:	aaaaaaaa 	bge	cead4d68 <_start-0x154b2a8>
d002a2bc:	aaaaaaaa 	bge	cead4d6c <_start-0x154b2a4>
d002a2c0:	888a888a 	stmhi	sl, {r1, r3, r7, fp, pc}
d002a2c4:	88888888 	stmhi	r8, {r3, r7, fp, pc}
d002a2c8:	00888888 	addeq	r8, r8, r8, lsl #17
d002a2cc:	00000000 	andeq	r0, r0, r0
d002a2d0:	05000000 	streq	r0, [r0]
d002a2d4:	ffffffff 	undefined instruction 0xffffffff
d002a2d8:	ffffffff 	undefined instruction 0xffffffff
d002a2dc:	ffffffff 	undefined instruction 0xffffffff
d002a2e0:	ffffffff 	undefined instruction 0xffffffff
d002a2e4:	55ffffff 	ldrbpl	pc, [pc, #4095]!	; d002b2eb <gImage_pic+0x891f>
d002a2e8:	55555555 	ldrbpl	r5, [r5, #-1365]	; 0x555
d002a2ec:	7f557555 	svcvc	0x00557555
d002a2f0:	75757555 	ldrbvc	r7, [r5, #-1365]!	; 0x555
d002a2f4:	75757555 	ldrbvc	r7, [r5, #-1365]!	; 0x555
d002a2f8:	75777775 	ldrbvc	r7, [r7, #-1909]!	; 0x775
d002a2fc:	757f7f77 	ldrbvc	r7, [pc, #-3959]!	; d002938d <gImage_pic+0x69c1>
d002a300:	55755555 	ldrbpl	r5, [r5, #-1365]!	; 0x555
d002a304:	11115555 	tstne	r1, r5, asr r5
d002a308:	00000010 	andeq	r0, r0, r0, lsl r0
	...
d002a31c:	aa2a0000 	bge	d0aaa324 <bss_end+0xa74d54>
d002a320:	eeeeeeee 	cdp	14, 14, cr14, cr14, cr14, {7}
d002a324:	eeeeeeee 	cdp	14, 14, cr14, cr14, cr14, {7}
d002a328:	fefefefe 	mrc2	14, 7, pc, cr14, cr14, {7}
d002a32c:	aaeeeeee 	bge	cfbe5eec <_start-0x43a124>
d002a330:	aaaaaaaa 	bge	cead4de0 <_start-0x154b230>
d002a334:	aaaaaaaa 	bge	cead4de4 <_start-0x154b22c>
d002a338:	aaaaaaaa 	bge	cead4de8 <_start-0x154b228>
d002a33c:	aaaaaaaa 	bge	cead4dec <_start-0x154b224>
d002a340:	aaaaaaaa 	bge	cead4df0 <_start-0x154b220>
d002a344:	aaaaaaaa 	bge	cead4df4 <_start-0x154b21c>
d002a348:	aaaaaaaa 	bge	cead4df8 <_start-0x154b218>
d002a34c:	aaaaaaaa 	bge	cead4dfc <_start-0x154b214>
d002a350:	aaaaaaaa 	bge	cead4e00 <_start-0x154b210>
d002a354:	aaaaaaaa 	bge	cead4e04 <_start-0x154b20c>
d002a358:	22aaaaaa 	adccs	sl, sl, #696320	; 0xaa000
d002a35c:	00202022 	eoreq	r2, r0, r2, lsr #32
	...
d002a368:	ffff0100 	undefined instruction 0xffff0100
d002a36c:	ffffffff 	undefined instruction 0xffffffff
d002a370:	ffffffff 	undefined instruction 0xffffffff
d002a374:	ffffffff 	undefined instruction 0xffffffff
d002a378:	ffffffff 	undefined instruction 0xffffffff
d002a37c:	444444dd 	strbmi	r4, [r4], #-1245	; 0x4dd
d002a380:	d5d54544 	ldrble	r4, [r5, #1348]	; 0x544
d002a384:	dddddddd 	ldclle	13, cr13, [sp, #884]	; 0x374
d002a388:	dddddddd 	ldclle	13, cr13, [sp, #884]	; 0x374
d002a38c:	dddddddd 	ldclle	13, cr13, [sp, #884]	; 0x374
d002a390:	dddddddd 	ldclle	13, cr13, [sp, #884]	; 0x374
d002a394:	d5d5dddd 	ldrble	sp, [r5, #3549]	; 0xddd
d002a398:	5444d5d5 	strbpl	sp, [r4], #-1493	; 0x5d5
d002a39c:	00004040 	andeq	r4, r0, r0, asr #32
	...
d002a3b0:	00000080 	andeq	r0, r0, r0, lsl #1
d002a3b4:	fbffbb8a 	blx	d00191e6 <_start-0x6e2a>
d002a3b8:	fffffbff 	undefined instruction 0xfffffbff
d002a3bc:	ffffffff 	undefined instruction 0xffffffff
d002a3c0:	fbffffff 	blx	d002a3c6 <gImage_pic+0x79fa>
d002a3c4:	aaaaabfb 	bge	cead53b8 <_start-0x154ac58>
d002a3c8:	aaaaaaaa 	bge	cead4e78 <_start-0x154b198>
d002a3cc:	aaaaaaaa 	bge	cead4e7c <_start-0x154b194>
d002a3d0:	aaaaaaaa 	bge	cead4e80 <_start-0x154b190>
d002a3d4:	aaaaaaaa 	bge	cead4e84 <_start-0x154b18c>
d002a3d8:	aaaaaaaa 	bge	cead4e88 <_start-0x154b188>
d002a3dc:	aaaaaaaa 	bge	cead4e8c <_start-0x154b184>
d002a3e0:	aaaaaaaa 	bge	cead4e90 <_start-0x154b180>
d002a3e4:	aaaaaaaa 	bge	cead4e94 <_start-0x154b17c>
d002a3e8:	a8a8aaaa 	stmiage	r8!, {r1, r3, r5, r7, r9, fp, sp, pc}
d002a3ec:	888888a8 	stmhi	r8, {r3, r5, r7, fp, pc}
d002a3f0:	88888888 	stmhi	r8, {r3, r7, fp, pc}
d002a3f4:	00888888 	addeq	r8, r8, r8, lsl #17
d002a3f8:	00000000 	andeq	r0, r0, r0
d002a3fc:	01000000 	tsteq	r0, r0
d002a400:	ffffff7f 	undefined instruction 0xffffff7f
d002a404:	ffffffff 	undefined instruction 0xffffffff
d002a408:	ffffffff 	undefined instruction 0xffffffff
d002a40c:	ffffffff 	undefined instruction 0xffffffff
d002a410:	51d5ffff 	ldrshpl	pc, [r5, #255]	; 0xff
d002a414:	55555551 	ldrbpl	r5, [r5, #-1361]	; 0x551
d002a418:	55575555 	ldrbpl	r5, [r7, #-1365]	; 0x555
d002a41c:	57575555 	undefined instruction 0x57575555
d002a420:	57575757 	undefined instruction 0x57575757
d002a424:	77775757 	undefined instruction 0x77775757
d002a428:	77575557 	undefined instruction 0x77575557
d002a42c:	55555555 	ldrbpl	r5, [r5, #-1365]	; 0x555
d002a430:	11515551 	cmpne	r1, r1, asr r5
d002a434:	00000001 	andeq	r0, r0, r1
	...
d002a448:	ae020000 	cdpge	0, 0, cr0, cr2, cr0, {0}
d002a44c:	eeefeeee 	cdp	14, 14, cr14, cr15, cr14, {7}
d002a450:	efefeeee 	svc	0x00efeeee
d002a454:	efefefef 	svc	0x00efefef
d002a458:	aaeeeeee 	bge	cfbe6018 <_start-0x439ff8>
d002a45c:	aaaaaaaa 	bge	cead4f0c <_start-0x154b104>
d002a460:	aaaaaaaa 	bge	cead4f10 <_start-0x154b100>
d002a464:	aaaaaaaa 	bge	cead4f14 <_start-0x154b0fc>
d002a468:	aaaaaaaa 	bge	cead4f18 <_start-0x154b0f8>
d002a46c:	aaaaaaaa 	bge	cead4f1c <_start-0x154b0f4>
d002a470:	aaaaaaaa 	bge	cead4f20 <_start-0x154b0f0>
d002a474:	aaaaaaaa 	bge	cead4f24 <_start-0x154b0ec>
d002a478:	aaaaaaaa 	bge	cead4f28 <_start-0x154b0e8>
d002a47c:	aaaaaaaa 	bge	cead4f2c <_start-0x154b0e4>
d002a480:	a2aaaaaa 	adcge	sl, sl, #696320	; 0xaa000
d002a484:	22a2a2a2 	adccs	sl, r2, #536870922	; 0x2000000a
d002a488:	02022222 	andeq	r2, r2, #536870914	; 0x20000002
	...
d002a494:	ffff0100 	undefined instruction 0xffff0100
d002a498:	ffffffff 	undefined instruction 0xffffffff
d002a49c:	ffffffff 	undefined instruction 0xffffffff
d002a4a0:	ffffffff 	undefined instruction 0xffffffff
d002a4a4:	ddffffff 	ldclle	15, cr15, [pc, #1020]!	; 0x3fc
d002a4a8:	454444d4 	strbmi	r4, [r4, #-1236]	; 0x4d4
d002a4ac:	5d554545 	cfldr64pl	mvdx4, [r5, #-276]	; 0xfffffeec
d002a4b0:	5d5d5545 	cfldr64pl	mvdx5, [sp, #-276]	; 0xfffffeec
d002a4b4:	dddddddd 	ldclle	13, cr13, [sp, #884]	; 0x374
d002a4b8:	dddddddd 	ldclle	13, cr13, [sp, #884]	; 0x374
d002a4bc:	dddddddd 	ldclle	13, cr13, [sp, #884]	; 0x374
d002a4c0:	45dddddd 	ldrbmi	sp, [sp, #3549]	; 0xddd
d002a4c4:	4444555d 	strbmi	r5, [r4], #-1373	; 0x55d
d002a4c8:	00000444 	andeq	r0, r0, r4, asr #8
	...
d002a4e0:	bbffbb0a 	bllt	d0019110 <_start-0x6f00>
d002a4e4:	ffbfbbff 	undefined instruction 0xffbfbbff
d002a4e8:	ffffffff 	undefined instruction 0xffffffff
d002a4ec:	ffffffff 	undefined instruction 0xffffffff
d002a4f0:	aaaaaaba 	bge	cead4fe0 <_start-0x154b030>
d002a4f4:	aaaaaaaa 	bge	cead4fa4 <_start-0x154b06c>
d002a4f8:	aaaaaaaa 	bge	cead4fa8 <_start-0x154b068>
d002a4fc:	aaaaaaaa 	bge	cead4fac <_start-0x154b064>
d002a500:	aaaaaaaa 	bge	cead4fb0 <_start-0x154b060>
d002a504:	aaaaaaaa 	bge	cead4fb4 <_start-0x154b05c>
d002a508:	aaaaaaaa 	bge	cead4fb8 <_start-0x154b058>
d002a50c:	aaaaaaaa 	bge	cead4fbc <_start-0x154b054>
d002a510:	aaaaaaaa 	bge	cead4fc0 <_start-0x154b050>
d002a514:	aaaaaaaa 	bge	cead4fc4 <_start-0x154b04c>
d002a518:	8888888a 	stmhi	r8, {r1, r3, r7, fp, pc}
d002a51c:	88888888 	stmhi	r8, {r3, r7, fp, pc}
d002a520:	00888888 	addeq	r8, r8, r8, lsl #17
d002a524:	00000000 	andeq	r0, r0, r0
d002a528:	01000000 	tsteq	r0, r0
d002a52c:	ffffff7f 	undefined instruction 0xffffff7f
d002a530:	ffffffff 	undefined instruction 0xffffffff
d002a534:	ffffffff 	undefined instruction 0xffffffff
d002a538:	ffffffff 	undefined instruction 0xffffffff
d002a53c:	1155f5ff 	ldrshne	pc, [r5, #-95]	; 0xffffffa1
d002a540:	55555515 	ldrbpl	r5, [r5, #-1301]	; 0x515
d002a544:	55555555 	ldrbpl	r5, [r5, #-1365]	; 0x555
d002a548:	55555555 	ldrbpl	r5, [r5, #-1365]	; 0x555
d002a54c:	75775575 	ldrbvc	r5, [r7, #-1397]!	; 0x575
d002a550:	55755555 	ldrbpl	r5, [r5, #-1365]!	; 0x555
d002a554:	55755555 	ldrbpl	r5, [r5, #-1365]!	; 0x555
d002a558:	55555555 	ldrbpl	r5, [r5, #-1365]	; 0x555
d002a55c:	11115155 	tstne	r1, r5, asr r1
d002a560:	00000010 	andeq	r0, r0, r0, lsl r0
	...
d002a574:	ae020000 	cdpge	0, 0, cr0, cr2, cr0, {0}
d002a578:	eeeeeeee 	cdp	14, 14, cr14, cr14, cr14, {7}
d002a57c:	feeeeeee 	cdp2	14, 14, cr14, cr14, cr14, {7}
d002a580:	eefefeee 	cdp	14, 15, cr15, cr14, cr14, {7}
d002a584:	aaeaeeee 	bge	cfae6144 <_start-0x539ecc>
d002a588:	aaaaaaaa 	bge	cead5038 <_start-0x154afd8>
d002a58c:	aaaaaaaa 	bge	cead503c <_start-0x154afd4>
d002a590:	aaaaaaaa 	bge	cead5040 <_start-0x154afd0>
d002a594:	aaaaaaaa 	bge	cead5044 <_start-0x154afcc>
d002a598:	aaaaaaaa 	bge	cead5048 <_start-0x154afc8>
d002a59c:	aaaaaaaa 	bge	cead504c <_start-0x154afc4>
d002a5a0:	aaaaaaaa 	bge	cead5050 <_start-0x154afc0>
d002a5a4:	aaaaaaaa 	bge	cead5054 <_start-0x154afbc>
d002a5a8:	aaaaaaaa 	bge	cead5058 <_start-0x154afb8>
d002a5ac:	aaaaaaaa 	bge	cead505c <_start-0x154afb4>
d002a5b0:	22aa2aaa 	adccs	r2, sl, #696320	; 0xaa000
d002a5b4:	00002020 	andeq	r2, r0, r0, lsr #32
	...
d002a5c0:	ffff0000 	undefined instruction 0xffff0000
d002a5c4:	ffffffff 	undefined instruction 0xffffffff
d002a5c8:	ffffffff 	undefined instruction 0xffffffff
d002a5cc:	ffffffff 	undefined instruction 0xffffffff
d002a5d0:	d4ddfdff 	ldrble	pc, [sp], #3583	; 0xdff
d002a5d4:	44444044 	strbmi	r4, [r4], #-68	; 0x44
d002a5d8:	44445444 	strbmi	r5, [r4], #-1092	; 0x444
d002a5dc:	54544454 	ldrbpl	r4, [r4], #-1108	; 0x454
d002a5e0:	ddddd5d5 	cfldr64le	mvdx13, [sp, #852]	; 0x354
d002a5e4:	d5d5dddd 	ldrble	sp, [r5, #3549]	; 0xddd
d002a5e8:	d5d5d5dd 	ldrble	sp, [r5, #1501]	; 0x5dd
d002a5ec:	44d5d5dd 	ldrbmi	sp, [r5], #1501	; 0x5dd
d002a5f0:	44445454 	strbmi	r5, [r4], #-1108	; 0x454
d002a5f4:	00004044 	andeq	r4, r0, r4, asr #32
	...
d002a60c:	bbfbbb8a 	bllt	cff1943c <_start-0x106bd4>
d002a610:	ffbbbbfb 	undefined instruction 0xffbbbbfb
d002a614:	ffffffff 	undefined instruction 0xffffffff
d002a618:	fbfbffff 	blx	cff2a61e <_start-0xf59f2>
d002a61c:	aaaaaaaa 	bge	cead50cc <_start-0x154af44>
d002a620:	aaaaaaaa 	bge	cead50d0 <_start-0x154af40>
d002a624:	aaaaaaaa 	bge	cead50d4 <_start-0x154af3c>
d002a628:	aaaaaaaa 	bge	cead50d8 <_start-0x154af38>
d002a62c:	aaaaaaaa 	bge	cead50dc <_start-0x154af34>
d002a630:	aaaaaaaa 	bge	cead50e0 <_start-0x154af30>
d002a634:	aaaaaaaa 	bge	cead50e4 <_start-0x154af2c>
d002a638:	aaaaaaaa 	bge	cead50e8 <_start-0x154af28>
d002a63c:	aaaaaaaa 	bge	cead50ec <_start-0x154af24>
d002a640:	aaaaaaaa 	bge	cead50f0 <_start-0x154af20>
d002a644:	888888a8 	stmhi	r8, {r3, r5, r7, fp, pc}
d002a648:	88888888 	stmhi	r8, {r3, r7, fp, pc}
d002a64c:	00808888 	addeq	r8, r0, r8, lsl #17
d002a650:	00000000 	andeq	r0, r0, r0
d002a654:	01000000 	tsteq	r0, r0
d002a658:	ffffffff 	undefined instruction 0xffffffff
d002a65c:	ffffffff 	undefined instruction 0xffffffff
d002a660:	ffffffff 	undefined instruction 0xffffffff
d002a664:	ffffffff 	undefined instruction 0xffffffff
d002a668:	115155f7 	ldrshne	r5, [r1, #-87]	; 0xffffffa9
d002a66c:	55555511 	ldrbpl	r5, [r5, #-1297]	; 0x511
d002a670:	55555555 	ldrbpl	r5, [r5, #-1365]	; 0x555
d002a674:	55555555 	ldrbpl	r5, [r5, #-1365]	; 0x555
d002a678:	55555555 	ldrbpl	r5, [r5, #-1365]	; 0x555
d002a67c:	55555555 	ldrbpl	r5, [r5, #-1365]	; 0x555
d002a680:	55555555 	ldrbpl	r5, [r5, #-1365]	; 0x555
d002a684:	55555155 	ldrbpl	r5, [r5, #-341]	; 0x155
d002a688:	51515155 	cmppl	r1, r5, asr r1
d002a68c:	00010001 	andeq	r0, r1, r1
	...
d002a6a0:	ae020000 	cdpge	0, 0, cr0, cr2, cr0, {0}
d002a6a4:	eeeeeeee 	cdp	14, 14, cr14, cr14, cr14, {7}
d002a6a8:	efefeeee 	svc	0x00efeeee
d002a6ac:	eeefefef 	cdp	15, 14, cr14, cr15, cr15, {7}
d002a6b0:	aaaaeeee 	bge	ceae6270 <_start-0x1539da0>
d002a6b4:	aaaaaaaa 	bge	cead5164 <_start-0x154aeac>
d002a6b8:	aaaaaaaa 	bge	cead5168 <_start-0x154aea8>
d002a6bc:	aaaaaaaa 	bge	cead516c <_start-0x154aea4>
d002a6c0:	aaaaaaaa 	bge	cead5170 <_start-0x154aea0>
d002a6c4:	aaaaaaaa 	bge	cead5174 <_start-0x154ae9c>
d002a6c8:	aaaaaaaa 	bge	cead5178 <_start-0x154ae98>
d002a6cc:	aaaaaaaa 	bge	cead517c <_start-0x154ae94>
d002a6d0:	aaaaaaaa 	bge	cead5180 <_start-0x154ae90>
d002a6d4:	aaaaaaaa 	bge	cead5184 <_start-0x154ae8c>
d002a6d8:	a2aaaaaa 	adcge	sl, sl, #696320	; 0xaa000
d002a6dc:	a2aaa2a2 	adcge	sl, sl, #536870922	; 0x2000000a
d002a6e0:	00020222 	andeq	r0, r2, r2, lsr #4
	...
d002a6ec:	ffff0100 	undefined instruction 0xffff0100
d002a6f0:	ffffffff 	undefined instruction 0xffffffff
d002a6f4:	ffffffff 	undefined instruction 0xffffffff
d002a6f8:	ffffffff 	undefined instruction 0xffffffff
d002a6fc:	44ddffff 	ldrbmi	pc, [sp], #4095	; 0xfff
d002a700:	44444404 	strbmi	r4, [r4], #-1028	; 0x404
d002a704:	45455444 	strbmi	r5, [r5, #-1092]	; 0x444
d002a708:	55454544 	strbpl	r4, [r5, #-1348]	; 0x544
d002a70c:	dd5d5555 	cfldr64le	mvdx5, [sp, #-340]	; 0xfffffeac
d002a710:	5ddd5d5d 	ldclpl	13, cr5, [sp, #372]	; 0x174
d002a714:	45d55ddd 	ldrbmi	r5, [r5, #3549]	; 0xddd
d002a718:	455d5555 	ldrbmi	r5, [sp, #-1365]	; 0x555
d002a71c:	44454555 	strbmi	r4, [r5], #-1365	; 0x555
d002a720:	40404444 	submi	r4, r0, r4, asr #8
	...
d002a738:	bfbbbb0a 	svclt	0x00bbbb0a
d002a73c:	ffbfbbbb 	undefined instruction 0xffbfbbbb
d002a740:	ffffffff 	undefined instruction 0xffffffff
d002a744:	bbbfffff 	bllt	cf02a748 <_start-0xff58c8>
d002a748:	aaaaaaaa 	bge	cead51f8 <_start-0x154ae18>
d002a74c:	aaaaaaaa 	bge	cead51fc <_start-0x154ae14>
d002a750:	aaaaaaaa 	bge	cead5200 <_start-0x154ae10>
d002a754:	aaaaaaaa 	bge	cead5204 <_start-0x154ae0c>
d002a758:	aaaaaaaa 	bge	cead5208 <_start-0x154ae08>
d002a75c:	aaaaaaaa 	bge	cead520c <_start-0x154ae04>
d002a760:	aaaaaaaa 	bge	cead5210 <_start-0x154ae00>
d002a764:	aaaaaaaa 	bge	cead5214 <_start-0x154adfc>
d002a768:	aaaaaaaa 	bge	cead5218 <_start-0x154adf8>
d002a76c:	aaaaaaaa 	bge	cead521c <_start-0x154adf4>
d002a770:	888888a8 	stmhi	r8, {r3, r5, r7, fp, pc}
d002a774:	88888888 	stmhi	r8, {r3, r7, fp, pc}
d002a778:	00888888 	addeq	r8, r8, r8, lsl #17
d002a77c:	00000000 	andeq	r0, r0, r0
d002a780:	01000000 	tsteq	r0, r0
d002a784:	ffffffff 	undefined instruction 0xffffffff
d002a788:	ffffffff 	undefined instruction 0xffffffff
d002a78c:	ffffffff 	undefined instruction 0xffffffff
d002a790:	ffffffff 	undefined instruction 0xffffffff
d002a794:	11115155 	tstne	r1, r5, asr r1
d002a798:	15551511 	ldrbne	r1, [r5, #-1297]	; 0x511
d002a79c:	55551551 	ldrbpl	r1, [r5, #-1361]	; 0x551
d002a7a0:	55555555 	ldrbpl	r5, [r5, #-1365]	; 0x555
d002a7a4:	55555555 	ldrbpl	r5, [r5, #-1365]	; 0x555
d002a7a8:	55555555 	ldrbpl	r5, [r5, #-1365]	; 0x555
d002a7ac:	55555555 	ldrbpl	r5, [r5, #-1365]	; 0x555
d002a7b0:	55555555 	ldrbpl	r5, [r5, #-1365]	; 0x555
d002a7b4:	15555555 	ldrbne	r5, [r5, #-1365]	; 0x555
d002a7b8:	00011011 	andeq	r1, r1, r1, lsl r0
	...
d002a7cc:	aa0a0000 	bge	d02aa7d4 <bss_end+0x275204>
d002a7d0:	eeeaeeee 	cdp	14, 14, cr14, cr10, cr14, {7}
d002a7d4:	eeeeeeee 	cdp	14, 14, cr14, cr14, cr14, {7}
d002a7d8:	eeeefefe 	mcr	14, 7, pc, cr14, cr14, {7}
d002a7dc:	aaaaeaee 	bge	ceae539c <_start-0x153ac74>
d002a7e0:	aaaaaaaa 	bge	cead5290 <_start-0x154ad80>
d002a7e4:	aaaaaaaa 	bge	cead5294 <_start-0x154ad7c>
d002a7e8:	aaaaaaaa 	bge	cead5298 <_start-0x154ad78>
d002a7ec:	aaaaaaaa 	bge	cead529c <_start-0x154ad74>
d002a7f0:	aaaaaaaa 	bge	cead52a0 <_start-0x154ad70>
d002a7f4:	aaaaaaaa 	bge	cead52a4 <_start-0x154ad6c>
d002a7f8:	aaaaaaaa 	bge	cead52a8 <_start-0x154ad68>
d002a7fc:	aaaaaaaa 	bge	cead52ac <_start-0x154ad64>
d002a800:	aaaaaaaa 	bge	cead52b0 <_start-0x154ad60>
d002a804:	aaaaaaaa 	bge	cead52b4 <_start-0x154ad5c>
d002a808:	20aa222a 	adccs	r2, sl, sl, lsr #4
d002a80c:	00000020 	andeq	r0, r0, r0, lsr #32
	...
d002a818:	ffff0100 	undefined instruction 0xffff0100
d002a81c:	ffffffff 	undefined instruction 0xffffffff
d002a820:	ffffffff 	undefined instruction 0xffffffff
d002a824:	ffffffff 	undefined instruction 0xffffffff
d002a828:	40d4fdff 	ldrshmi	pc, [r4], #223	; 0xdf
d002a82c:	44404000 	strbmi	r4, [r0]
d002a830:	40c04544 	sbcmi	r4, r0, r4, asr #10
d002a834:	54444444 	strbpl	r4, [r4], #-1092	; 0x444
d002a838:	d4c55454 	strble	r5, [r5], #1108	; 0x454
d002a83c:	d5d55544 	ldrble	r5, [r5, #1348]	; 0x544
d002a840:	5455d55d 	ldrbpl	sp, [r5], #-1373	; 0x55d
d002a844:	5455d555 	ldrbpl	sp, [r5], #-1365	; 0x555
d002a848:	5444d455 	strbpl	sp, [r4], #-1109	; 0x455
d002a84c:	40404454 	submi	r4, r0, r4, asr r4
	...
d002a860:	00000080 	andeq	r0, r0, r0, lsl #1
d002a864:	fbbbbb8a 	blx	cef19696 <_start-0x110697a>
d002a868:	fffbfbfb 	undefined instruction 0xfffbfbfb
d002a86c:	ffffffff 	undefined instruction 0xffffffff
d002a870:	bbfbfbff 	bllt	cff29874 <_start-0xf679c>
d002a874:	aaaaaaaa 	bge	cead5324 <_start-0x154acec>
d002a878:	aaaaaaaa 	bge	cead5328 <_start-0x154ace8>
d002a87c:	aaaaaaaa 	bge	cead532c <_start-0x154ace4>
d002a880:	aaaaaaaa 	bge	cead5330 <_start-0x154ace0>
d002a884:	aaaaaaaa 	bge	cead5334 <_start-0x154acdc>
d002a888:	aaaaaaaa 	bge	cead5338 <_start-0x154acd8>
d002a88c:	aaaaaaaa 	bge	cead533c <_start-0x154acd4>
d002a890:	aaaaaaaa 	bge	cead5340 <_start-0x154acd0>
d002a894:	aaaaaaaa 	bge	cead5344 <_start-0x154accc>
d002a898:	aaaaaaaa 	bge	cead5348 <_start-0x154acc8>
d002a89c:	888888a8 	stmhi	r8, {r3, r5, r7, fp, pc}
d002a8a0:	88888888 	stmhi	r8, {r3, r7, fp, pc}
d002a8a4:	00888888 	addeq	r8, r8, r8, lsl #17
d002a8a8:	00000000 	andeq	r0, r0, r0
d002a8ac:	01000000 	tsteq	r0, r0
d002a8b0:	ffffffff 	undefined instruction 0xffffffff
d002a8b4:	ffffffff 	undefined instruction 0xffffffff
d002a8b8:	ffffffff 	undefined instruction 0xffffffff
d002a8bc:	f7ffffff 	undefined instruction 0xf7ffffff
d002a8c0:	11110151 	tstne	r1, r1, asr r1
d002a8c4:	55511511 	ldrbpl	r1, [r1, #-1297]	; 0x511
d002a8c8:	51111151 	tstpl	r1, r1, asr r1
d002a8cc:	55515155 	ldrbpl	r5, [r1, #-341]	; 0x155
d002a8d0:	55515555 	ldrbpl	r5, [r1, #-1365]	; 0x555
d002a8d4:	55555555 	ldrbpl	r5, [r5, #-1365]	; 0x555
d002a8d8:	55555555 	ldrbpl	r5, [r5, #-1365]	; 0x555
d002a8dc:	55555555 	ldrbpl	r5, [r5, #-1365]	; 0x555
d002a8e0:	55555555 	ldrbpl	r5, [r5, #-1365]	; 0x555
d002a8e4:	00015151 	andeq	r5, r1, r1, asr r1
	...
d002a8f8:	aa0a0000 	bge	d02aa900 <bss_end+0x275330>
d002a8fc:	eeeeeeae 	cdp	14, 14, cr14, cr14, cr14, {5}
d002a900:	efefeeee 	svc	0x00efeeee
d002a904:	eeeeefef 	cdp	15, 14, cr14, cr14, cr15, {7}
d002a908:	aaaaaaee 	bge	cead54c8 <_start-0x154ab48>
d002a90c:	aaaaaaaa 	bge	cead53bc <_start-0x154ac54>
d002a910:	aaaaaaaa 	bge	cead53c0 <_start-0x154ac50>
d002a914:	aaaaaaaa 	bge	cead53c4 <_start-0x154ac4c>
d002a918:	aaaaaaaa 	bge	cead53c8 <_start-0x154ac48>
d002a91c:	aaaaaaaa 	bge	cead53cc <_start-0x154ac44>
d002a920:	aaaaaaaa 	bge	cead53d0 <_start-0x154ac40>
d002a924:	aaaaaaaa 	bge	cead53d4 <_start-0x154ac3c>
d002a928:	aaaaaaaa 	bge	cead53d8 <_start-0x154ac38>
d002a92c:	aaaaaaaa 	bge	cead53dc <_start-0x154ac34>
d002a930:	a2aaaaaa 	adcge	sl, sl, #696320	; 0xaa000
d002a934:	02a222a2 	adceq	r2, r2, #536870922	; 0x2000000a
d002a938:	00000202 	andeq	r0, r0, r2, lsl #4
	...
d002a944:	ffff0500 	undefined instruction 0xffff0500
d002a948:	ffffffff 	undefined instruction 0xffffffff
d002a94c:	ffffffff 	undefined instruction 0xffffffff
d002a950:	ffffffff 	undefined instruction 0xffffffff
d002a954:	0044ddff 	strdeq	sp, [r4], #-223	; 0xffffff21
d002a958:	44440004 	strbmi	r0, [r4], #-4
d002a95c:	00444444 	subeq	r4, r4, r4, asr #8
d002a960:	45444404 	strbmi	r4, [r4, #-1028]	; 0x404
d002a964:	54444444 	strbpl	r4, [r4], #-1092	; 0x444
d002a968:	55550544 	ldrbpl	r0, [r5, #-1348]	; 0x544
d002a96c:	55555555 	ldrbpl	r5, [r5, #-1365]	; 0x555
d002a970:	55454545 	strbpl	r4, [r5, #-1349]	; 0x545
d002a974:	55d55d45 	ldrbpl	r5, [r5, #3397]	; 0xd45
d002a978:	44445555 	strbmi	r5, [r4], #-1365	; 0x555
	...
d002a990:	bbbbab8a 	bllt	cef157c0 <_start-0x110a850>
d002a994:	bfbfbbff 	svclt	0x00bfbbff
d002a998:	ffffffff 	undefined instruction 0xffffffff
d002a99c:	babbbbff 	blt	cef199a0 <_start-0x1106670>
d002a9a0:	aaaaaaaa 	bge	cead5450 <_start-0x154abc0>
d002a9a4:	aaaaaaaa 	bge	cead5454 <_start-0x154abbc>
d002a9a8:	aaaaaaaa 	bge	cead5458 <_start-0x154abb8>
d002a9ac:	aaaaaaaa 	bge	cead545c <_start-0x154abb4>
d002a9b0:	aaaaaaaa 	bge	cead5460 <_start-0x154abb0>
d002a9b4:	aaaaaaaa 	bge	cead5464 <_start-0x154abac>
d002a9b8:	aaaaaaaa 	bge	cead5468 <_start-0x154aba8>
d002a9bc:	aaaaaaaa 	bge	cead546c <_start-0x154aba4>
d002a9c0:	aaaaaaaa 	bge	cead5470 <_start-0x154aba0>
d002a9c4:	aaaaaaaa 	bge	cead5474 <_start-0x154ab9c>
d002a9c8:	888888aa 	stmhi	r8, {r1, r3, r5, r7, fp, pc}
d002a9cc:	88888888 	stmhi	r8, {r3, r7, fp, pc}
d002a9d0:	00888888 	addeq	r8, r8, r8, lsl #17
d002a9d4:	00000000 	andeq	r0, r0, r0
d002a9d8:	01000000 	tsteq	r0, r0
d002a9dc:	ffffffff 	undefined instruction 0xffffffff
d002a9e0:	ffffffff 	undefined instruction 0xffffffff
d002a9e4:	ffffffff 	undefined instruction 0xffffffff
d002a9e8:	f5ffffff 	undefined instruction 0xf5ffffff
d002a9ec:	01110051 	tsteq	r1, r1, asr r0
d002a9f0:	55115515 	ldrpl	r5, [r1, #-1301]	; 0x515
d002a9f4:	10110051 	andsne	r0, r1, r1, asr r0
d002a9f8:	55151511 	ldrpl	r1, [r5, #-1297]	; 0x511
d002a9fc:	51555555 	cmppl	r5, r5, asr r5
d002aa00:	55555515 	ldrbpl	r5, [r5, #-1301]	; 0x515
d002aa04:	55555555 	ldrbpl	r5, [r5, #-1365]	; 0x555
d002aa08:	55555555 	ldrbpl	r5, [r5, #-1365]	; 0x555
d002aa0c:	55555555 	ldrbpl	r5, [r5, #-1365]	; 0x555
d002aa10:	00111151 	andseq	r1, r1, r1, asr r1
	...
d002aa24:	aa020000 	bge	d00aaa2c <bss_end+0x7545c>
d002aa28:	eeeeeeea 	cdp	14, 14, cr14, cr14, cr10, {7}
d002aa2c:	eeeeeeee 	cdp	14, 14, cr14, cr14, cr14, {7}
d002aa30:	eaeeeeee 	b	cfbe65f0 <_start-0x439a20>
d002aa34:	aaaaaaaa 	bge	cead54e4 <_start-0x154ab2c>
d002aa38:	aaaaaaaa 	bge	cead54e8 <_start-0x154ab28>
d002aa3c:	aaaaaaaa 	bge	cead54ec <_start-0x154ab24>
d002aa40:	aaaaaaaa 	bge	cead54f0 <_start-0x154ab20>
d002aa44:	aaaaaaaa 	bge	cead54f4 <_start-0x154ab1c>
d002aa48:	aaaaaaaa 	bge	cead54f8 <_start-0x154ab18>
d002aa4c:	aaaaaaaa 	bge	cead54fc <_start-0x154ab14>
d002aa50:	aaaaaaaa 	bge	cead5500 <_start-0x154ab10>
d002aa54:	aaaaaaaa 	bge	cead5504 <_start-0x154ab0c>
d002aa58:	aaaaaaaa 	bge	cead5508 <_start-0x154ab08>
d002aa5c:	aaaaaaaa 	bge	cead550c <_start-0x154ab04>
d002aa60:	202022aa 	eorcs	r2, r0, sl, lsr #5
d002aa64:	00002000 	andeq	r2, r0, r0
	...
d002aa70:	ffdf0100 	undefined instruction 0xffdf0100
d002aa74:	ffffffff 	undefined instruction 0xffffffff
d002aa78:	ffffffff 	undefined instruction 0xffffffff
d002aa7c:	ffffffff 	undefined instruction 0xffffffff
d002aa80:	0040d4ff 	strdeq	sp, [r0], #-79	; 0xffffffb1
d002aa84:	44440000 	strbmi	r0, [r4]
d002aa88:	40444440 	submi	r4, r4, r0, asr #8
d002aa8c:	44000000 	strmi	r0, [r0]
d002aa90:	45544444 	ldrbmi	r4, [r4, #-1092]	; 0x444
d002aa94:	4444c4d5 	strbmi	ip, [r4], #-1237	; 0x4d5
d002aa98:	44444454 	strbmi	r4, [r4], #-1108	; 0x454
d002aa9c:	54544444 	ldrbpl	r4, [r4], #-1092	; 0x444
d002aaa0:	55d55554 	ldrbpl	r5, [r5, #1364]	; 0x554
d002aaa4:	40445555 	submi	r5, r4, r5, asr r5
	...
d002aab8:	80008000 	andhi	r8, r0, r0
d002aabc:	fbbbab8a 	blx	cef158ee <_start-0x110a722>
d002aac0:	ffbbbbfb 	undefined instruction 0xffbbbbfb
d002aac4:	fffffffb 	undefined instruction 0xfffffffb
d002aac8:	aaabbbfb 	bge	ceb19abc <_start-0x1506554>
d002aacc:	aaaaaaaa 	bge	cead557c <_start-0x154aa94>
d002aad0:	aaaaaaaa 	bge	cead5580 <_start-0x154aa90>
d002aad4:	aaa8aaaa 	bge	cea55584 <_start-0x15caa8c>
d002aad8:	aaaaaaaa 	bge	cead5588 <_start-0x154aa88>
d002aadc:	aaaaaaaa 	bge	cead558c <_start-0x154aa84>
d002aae0:	aaaaaaaa 	bge	cead5590 <_start-0x154aa80>
d002aae4:	aaaaaaaa 	bge	cead5594 <_start-0x154aa7c>
d002aae8:	aaaaaaaa 	bge	cead5598 <_start-0x154aa78>
d002aaec:	aaaaaaaa 	bge	cead559c <_start-0x154aa74>
d002aaf0:	aaaaaaaa 	bge	cead55a0 <_start-0x154aa70>
d002aaf4:	888888a8 	stmhi	r8, {r3, r5, r7, fp, pc}
d002aaf8:	88888888 	stmhi	r8, {r3, r7, fp, pc}
d002aafc:	00888888 	addeq	r8, r8, r8, lsl #17
d002ab00:	00000000 	andeq	r0, r0, r0
d002ab04:	01000000 	tsteq	r0, r0
d002ab08:	ffffff7f 	undefined instruction 0xffffff7f
d002ab0c:	ffffffff 	undefined instruction 0xffffffff
d002ab10:	ffffffff 	undefined instruction 0xffffffff
d002ab14:	55ffffff 	ldrbpl	pc, [pc, #4095]!	; d002bb1b <gImage_pic+0x914f>
d002ab18:	51010011 	tstpl	r1, r1, lsl r0
d002ab1c:	55515155 	ldrbpl	r5, [r1, #-341]	; 0x155
d002ab20:	01011055 	qaddeq	r1, r5, r1
d002ab24:	51511511 	cmppl	r1, r1, lsl r5
d002ab28:	11511111 	cmpne	r1, r1, lsl r1
d002ab2c:	51555111 	cmppl	r5, r1, lsl r1
d002ab30:	55115151 	ldrpl	r5, [r1, #-337]	; 0x151
d002ab34:	55555555 	ldrbpl	r5, [r5, #-1365]	; 0x555
d002ab38:	55555555 	ldrbpl	r5, [r5, #-1365]	; 0x555
d002ab3c:	00111155 	andseq	r1, r1, r5, asr r1
	...
d002ab50:	aa020000 	bge	d00aab58 <bss_end+0x75588>
d002ab54:	aeeeeeee 	cdpge	14, 14, cr14, cr14, cr14, {7}
d002ab58:	eeeeeeee 	cdp	14, 14, cr14, cr14, cr14, {7}
d002ab5c:	aaeeeeef 	bge	cfbe6720 <_start-0x4398f0>
d002ab60:	aaaaaaaa 	bge	cead5610 <_start-0x154aa00>
d002ab64:	aaaaaaaa 	bge	cead5614 <_start-0x154a9fc>
d002ab68:	aaaaaaaa 	bge	cead5618 <_start-0x154a9f8>
d002ab6c:	aaaaaaaa 	bge	cead561c <_start-0x154a9f4>
d002ab70:	aaaaaaaa 	bge	cead5620 <_start-0x154a9f0>
d002ab74:	aaaaaaaa 	bge	cead5624 <_start-0x154a9ec>
d002ab78:	aaaaaaaa 	bge	cead5628 <_start-0x154a9e8>
d002ab7c:	aaaaaaaa 	bge	cead562c <_start-0x154a9e4>
d002ab80:	aaaaaaaa 	bge	cead5630 <_start-0x154a9e0>
d002ab84:	aaaaaaaa 	bge	cead5634 <_start-0x154a9dc>
d002ab88:	aaaaaaaa 	bge	cead5638 <_start-0x154a9d8>
d002ab8c:	0202a2a2 	andeq	sl, r2, #536870922	; 0x2000000a
d002ab90:	00000002 	andeq	r0, r0, r2
	...
d002ab9c:	ff5f0000 	undefined instruction 0xff5f0000
d002aba0:	ffffffff 	undefined instruction 0xffffffff
d002aba4:	ffffffff 	undefined instruction 0xffffffff
d002aba8:	ffffffff 	undefined instruction 0xffffffff
d002abac:	000044dd 	ldrdeq	r4, [r0], -sp
d002abb0:	44554400 	ldrbmi	r4, [r5], #-1024	; 0x400
d002abb4:	40445445 	submi	r5, r4, r5, asr #8
d002abb8:	44040000 	strmi	r0, [r4]
d002abbc:	44440404 	strbmi	r0, [r4], #-1028	; 0x404
d002abc0:	44444544 	strbmi	r4, [r4], #-1348	; 0x544
d002abc4:	44444444 	strbmi	r4, [r4], #-1092	; 0x444
d002abc8:	45454544 	strbmi	r4, [r5, #-1348]	; 0x544
d002abcc:	5ddd5545 	cfldr64pl	mvdx5, [sp, #276]	; 0x114
d002abd0:	44555555 	ldrbmi	r5, [r5], #-1365	; 0x555
	...
d002abe8:	bbbfab08 	bllt	cf015810 <_start-0x100a800>
d002abec:	bbbbbbbb 	bllt	cef19ae0 <_start-0x1106530>
d002abf0:	ffffffbf 	undefined instruction 0xffffffbf
d002abf4:	aaaaaabb 	bge	cead56e8 <_start-0x154a928>
d002abf8:	aaaaaaaa 	bge	cead56a8 <_start-0x154a968>
d002abfc:	aaaaaaaa 	bge	cead56ac <_start-0x154a964>
d002ac00:	aaaaaaaa 	bge	cead56b0 <_start-0x154a960>
d002ac04:	aaaaaa8a 	bge	cead5634 <_start-0x154a9dc>
d002ac08:	aaaaaaaa 	bge	cead56b8 <_start-0x154a958>
d002ac0c:	aaaaaaaa 	bge	cead56bc <_start-0x154a954>
d002ac10:	aaaaaaaa 	bge	cead56c0 <_start-0x154a950>
d002ac14:	aaaaaaaa 	bge	cead56c4 <_start-0x154a94c>
d002ac18:	aaaaaaaa 	bge	cead56c8 <_start-0x154a948>
d002ac1c:	aaaaaaaa 	bge	cead56cc <_start-0x154a944>
d002ac20:	88888aaa 	stmhi	r8, {r1, r3, r5, r7, r9, fp, pc}
d002ac24:	88888888 	stmhi	r8, {r3, r7, fp, pc}
d002ac28:	00888888 	addeq	r8, r8, r8, lsl #17
	...
d002ac34:	ffffff1f 	undefined instruction 0xffffff1f
d002ac38:	ffffffff 	undefined instruction 0xffffffff
d002ac3c:	ffffffff 	undefined instruction 0xffffffff
d002ac40:	11f5ffff 	ldrshne	pc, [r5, #255]!	; 0xff
d002ac44:	11110010 	tstne	r1, r0, lsl r0
d002ac48:	55511155 	ldrbpl	r1, [r1, #-341]	; 0x155
d002ac4c:	10011055 	andne	r1, r1, r5, asr r0
d002ac50:	11110111 	tstne	r1, r1, lsl r1
d002ac54:	55151101 	ldrpl	r1, [r5, #-257]	; 0x101
d002ac58:	15111111 	ldrne	r1, [r1, #-273]	; 0x111
d002ac5c:	55155551 	ldrpl	r5, [r5, #-1361]	; 0x551
d002ac60:	55555555 	ldrbpl	r5, [r5, #-1365]	; 0x555
d002ac64:	55555575 	ldrbpl	r5, [r5, #-1397]	; 0x575
d002ac68:	10111155 	andsne	r1, r1, r5, asr r1
	...
d002ac7c:	2a000000 	bcs	d002ac84 <gImage_pic+0x82b8>
d002ac80:	eeeeeaee 	vfms.f32	s29, s29, s29
d002ac84:	eeeeeaea 	vfms.f32	s29, s29, s21
d002ac88:	aaeaeeee 	bge	cfae6848 <_start-0x5397c8>
d002ac8c:	aaaaaaaa 	bge	cead573c <_start-0x154a8d4>
d002ac90:	aaaaaaaa 	bge	cead5740 <_start-0x154a8d0>
d002ac94:	aaaaaaaa 	bge	cead5744 <_start-0x154a8cc>
d002ac98:	aaaaaaaa 	bge	cead5748 <_start-0x154a8c8>
d002ac9c:	aaaaaaaa 	bge	cead574c <_start-0x154a8c4>
d002aca0:	aaaaaaaa 	bge	cead5750 <_start-0x154a8c0>
d002aca4:	aaaaaaaa 	bge	cead5754 <_start-0x154a8bc>
d002aca8:	aaaaaaaa 	bge	cead5758 <_start-0x154a8b8>
d002acac:	aaaaaaaa 	bge	cead575c <_start-0x154a8b4>
d002acb0:	aaaaaaaa 	bge	cead5760 <_start-0x154a8b0>
d002acb4:	aaaaaaaa 	bge	cead5764 <_start-0x154a8ac>
d002acb8:	2020a2aa 	eorcs	sl, r0, sl, lsr #5
	...
d002acc8:	ff070000 	undefined instruction 0xff070000
d002accc:	ffffffff 	undefined instruction 0xffffffff
d002acd0:	ffffffff 	undefined instruction 0xffffffff
d002acd4:	ddddffff 	ldclle	15, cr15, [sp, #1020]	; 0x3fc
d002acd8:	000000d4 	ldrdeq	r0, [r0], -r4
d002acdc:	40444000 	submi	r4, r4, r0
d002ace0:	0040d445 	subeq	sp, r0, r5, asr #8
d002ace4:	40000000 	andmi	r0, r0, r0
d002ace8:	40000000 	andmi	r0, r0, r0
d002acec:	40404400 	submi	r4, r0, r0, lsl #8
d002acf0:	d4444440 	strble	r4, [r4], #-1088	; 0x440
d002acf4:	44444444 	strbmi	r4, [r4], #-1092	; 0x444
d002acf8:	d4dd5544 	ldrble	r5, [sp], #1348	; 0x544
d002acfc:	4454d555 	ldrbmi	sp, [r4], #-1365	; 0x555
	...
d002ad14:	bbbb8b80 	bllt	cef0db1c <_start-0x11124f4>
d002ad18:	bbbbfbbb 	bllt	cef29c0c <_start-0x10f6404>
d002ad1c:	fbfbfffb 	blx	cff2ad12 <_start-0xf52fe>
d002ad20:	aaaaaaaa 	bge	cead57d0 <_start-0x154a840>
d002ad24:	aaaaaaaa 	bge	cead57d4 <_start-0x154a83c>
d002ad28:	aaaaaaaa 	bge	cead57d8 <_start-0x154a838>
d002ad2c:	8aaaaaaa 	bhi	cead57dc <_start-0x154a834>
d002ad30:	aaaa8aa8 	bge	ceacd7d8 <_start-0x1552838>
d002ad34:	aaa888aa 	bge	cea4cfe4 <_start-0x15d302c>
d002ad38:	aaaaaaaa 	bge	cead57e8 <_start-0x154a828>
d002ad3c:	aaaaaaaa 	bge	cead57ec <_start-0x154a824>
d002ad40:	aaaaaaaa 	bge	cead57f0 <_start-0x154a820>
d002ad44:	aaaaaaaa 	bge	cead57f4 <_start-0x154a81c>
d002ad48:	aaaaaaaa 	bge	cead57f8 <_start-0x154a818>
d002ad4c:	8888a8aa 	stmhi	r8, {r1, r3, r5, r7, fp, sp, pc}
d002ad50:	80888888 	addhi	r8, r8, r8, lsl #17
d002ad54:	00808080 	addeq	r8, r0, r0, lsl #1
	...
d002ad60:	ffffff07 	undefined instruction 0xffffff07
d002ad64:	ffffffff 	undefined instruction 0xffffffff
d002ad68:	ffffffff 	undefined instruction 0xffffffff
d002ad6c:	1151f5f7 	ldrshne	pc, [r1, #-87]	; 0xffffffa9
d002ad70:	51110101 	tstpl	r1, r1, lsl #2
d002ad74:	55555115 	ldrbpl	r5, [r5, #-277]	; 0x115
d002ad78:	01000010 	tsteq	r0, r0, lsl r0
d002ad7c:	00011100 	andeq	r1, r1, r0, lsl #2
d002ad80:	11010011 	tstne	r1, r1, lsl r0
d002ad84:	11111111 	tstne	r1, r1, lsl r1
d002ad88:	51555155 	cmppl	r5, r5, asr r1
d002ad8c:	55555511 	ldrbpl	r5, [r5, #-1297]	; 0x511
d002ad90:	5555d577 	ldrbpl	sp, [r5, #-1399]	; 0x577
d002ad94:	11115155 	tstne	r1, r5, asr r1
	...
d002ada8:	2a000000 	bcs	d002adb0 <gImage_pic+0x83e4>
d002adac:	eeaeaeee 	cdp	14, 10, cr10, cr14, cr14, {7}
d002adb0:	eeeeeeae 	cdp	14, 14, cr14, cr14, cr14, {5}
d002adb4:	aaaaeeee 	bge	ceae6974 <_start-0x153969c>
d002adb8:	aaaaaaaa 	bge	cead5868 <_start-0x154a7a8>
d002adbc:	aaaaaaaa 	bge	cead586c <_start-0x154a7a4>
d002adc0:	aaaaaaaa 	bge	cead5870 <_start-0x154a7a0>
d002adc4:	aaaaaaaa 	bge	cead5874 <_start-0x154a79c>
d002adc8:	aaaa2aaa 	bge	ceab5878 <_start-0x156a798>
d002adcc:	aaaaaaaa 	bge	cead587c <_start-0x154a794>
d002add0:	aaaaaaaa 	bge	cead5880 <_start-0x154a790>
d002add4:	aaaaaaaa 	bge	cead5884 <_start-0x154a78c>
d002add8:	aaaaaaaa 	bge	cead5888 <_start-0x154a788>
d002addc:	aaaaaaaa 	bge	cead588c <_start-0x154a784>
d002ade0:	aaaaaaaa 	bge	cead5890 <_start-0x154a780>
d002ade4:	02a2a2aa 	adceq	sl, r2, #-1610612726	; 0xa000000a
	...
d002adf4:	ff050000 	undefined instruction 0xff050000
d002adf8:	ffffffff 	undefined instruction 0xffffffff
d002adfc:	ffffffff 	undefined instruction 0xffffffff
d002ae00:	ddddfdff 	ldclle	13, cr15, [sp, #1020]	; 0x3fc
d002ae04:	000000c4 	andeq	r0, r0, r4, asr #1
d002ae08:	44444405 	strbmi	r4, [r4], #-1029	; 0x405
d002ae0c:	00004445 	andeq	r4, r0, r5, asr #8
d002ae10:	04000000 	streq	r0, [r0]
d002ae14:	00040004 	andeq	r0, r4, r4
d002ae18:	00040000 	andeq	r0, r4, r0
d002ae1c:	40440400 	submi	r0, r4, r0, lsl #8
d002ae20:	44444404 	strbmi	r4, [r4], #-1028	; 0x404
d002ae24:	dd5d5545 	cfldr64le	mvdx5, [sp, #-276]	; 0xfffffeec
d002ae28:	4455dd5d 	ldrbmi	sp, [r5], #-3421	; 0xd5d
d002ae2c:	00000004 	andeq	r0, r0, r4
	...
d002ae40:	bbbb8b08 	bllt	cef0da68 <_start-0x11125a8>
d002ae44:	bbbbfbbb 	bllt	cef29d38 <_start-0x10f62d8>
d002ae48:	bbfbbfbf 	bllt	cff1ad4c <_start-0x1052c4>
d002ae4c:	aaaaaaaa 	bge	cead58fc <_start-0x154a714>
d002ae50:	aaaaaaaa 	bge	cead5900 <_start-0x154a710>
d002ae54:	aaaaaaaa 	bge	cead5904 <_start-0x154a70c>
d002ae58:	8aaaaaaa 	bhi	cead5908 <_start-0x154a708>
d002ae5c:	aaaa8888 	bge	ceacd084 <_start-0x1552f8c>
d002ae60:	aaa88a8a 	bge	cea4d890 <_start-0x15d2780>
d002ae64:	aaaaaaaa 	bge	cead5914 <_start-0x154a6fc>
d002ae68:	aaaaaaaa 	bge	cead5918 <_start-0x154a6f8>
d002ae6c:	aaaaaaaa 	bge	cead591c <_start-0x154a6f4>
d002ae70:	aaaaaaaa 	bge	cead5920 <_start-0x154a6f0>
d002ae74:	aaaaaaaa 	bge	cead5924 <_start-0x154a6ec>
d002ae78:	888aaaaa 	stmhi	sl, {r1, r3, r5, r7, r9, fp, sp, pc}
d002ae7c:	88888888 	stmhi	r8, {r3, r7, fp, pc}
d002ae80:	00000888 	andeq	r0, r0, r8, lsl #17
	...
d002ae8c:	ffffff01 	undefined instruction 0xffffff01
d002ae90:	ffffffff 	undefined instruction 0xffffffff
d002ae94:	fdffffff 	ldc2l	15, cr15, [pc, #1020]!	; 0x3fc
d002ae98:	10515555 	subsne	r5, r1, r5, asr r5
d002ae9c:	51151111 	tstpl	r5, r1, lsl r1
d002aea0:	10051155 	andne	r1, r5, r5, asr r1
d002aea4:	10000000 	andne	r0, r0, r0
d002aea8:	00001100 	andeq	r1, r0, r0, lsl #2
d002aeac:	00000000 	andeq	r0, r0, r0
d002aeb0:	01001111 	tsteq	r0, r1, lsl r1
d002aeb4:	11111111 	tstne	r1, r1, lsl r1
d002aeb8:	55555515 	ldrbpl	r5, [r5, #-1301]	; 0x515
d002aebc:	55555555 	ldrbpl	r5, [r5, #-1365]	; 0x555
d002aec0:	10115555 	andsne	r5, r1, r5, asr r5
	...
d002aed4:	2a000000 	bcs	d002aedc <gImage_pic+0x8510>
d002aed8:	eeeeeeae 	cdp	14, 14, cr14, cr14, cr14, {5}
d002aedc:	eeeeeeee 	cdp	14, 14, cr14, cr14, cr14, {7}
d002aee0:	aaaaaaea 	bge	cead5a90 <_start-0x154a580>
d002aee4:	aaaaaaaa 	bge	cead5994 <_start-0x154a67c>
d002aee8:	aaaaaaaa 	bge	cead5998 <_start-0x154a678>
d002aeec:	aaaaaaaa 	bge	cead599c <_start-0x154a674>
d002aef0:	aaaaaaa2 	bge	cead5980 <_start-0x154a690>
d002aef4:	aaaaaaaa 	bge	cead59a4 <_start-0x154a66c>
d002aef8:	aaaaaa2a 	bge	cead57a8 <_start-0x154a868>
d002aefc:	aaaaaaaa 	bge	cead59ac <_start-0x154a664>
d002af00:	aaaaaaaa 	bge	cead59b0 <_start-0x154a660>
d002af04:	aaaaaaaa 	bge	cead59b4 <_start-0x154a65c>
d002af08:	aaaaaaaa 	bge	cead59b8 <_start-0x154a658>
d002af0c:	aaaaaaaa 	bge	cead59bc <_start-0x154a654>
d002af10:	2020aaaa 	eorcs	sl, r0, sl, lsr #21
	...
d002af20:	ff010000 	undefined instruction 0xff010000
d002af24:	ffffffff 	undefined instruction 0xffffffff
d002af28:	ffffffff 	undefined instruction 0xffffffff
d002af2c:	44d4ddff 	ldrbmi	sp, [r4], #3583	; 0xdff
d002af30:	40400040 	submi	r0, r0, r0, asr #32
d002af34:	405c4444 	subsmi	r4, ip, r4, asr #8
d002af38:	00404004 	subeq	r4, r0, r4
d002af3c:	00000000 	andeq	r0, r0, r0
d002af40:	00010000 	andeq	r0, r1, r0
	...
d002af4c:	54440040 	strbpl	r0, [r4], #-64	; 0x40
d002af50:	54545444 	ldrbpl	r5, [r4], #-1092	; 0x444
d002af54:	4454d555 	ldrbmi	sp, [r4], #-1365	; 0x555
d002af58:	00000040 	andeq	r0, r0, r0, asr #32
	...
d002af6c:	fbbb8a00 	blx	cef0d776 <_start-0x111289a>
d002af70:	bbbbfbfb 	bllt	cef29f64 <_start-0x10f60ac>
d002af74:	aafbfbbb 	bge	cff29e68 <_start-0xf61a8>
d002af78:	aaaaaaaa 	bge	cead5a28 <_start-0x154a5e8>
d002af7c:	aaaaaaaa 	bge	cead5a2c <_start-0x154a5e4>
d002af80:	aaaaaaaa 	bge	cead5a30 <_start-0x154a5e0>
d002af84:	88888aaa 	stmhi	r8, {r1, r3, r5, r7, r9, fp, pc}
d002af88:	aaaa8888 	bge	ceacd1b0 <_start-0x1552e60>
d002af8c:	888a8a88 	stmhi	sl, {r3, r7, r9, fp, pc}
d002af90:	aaa8aaa8 	bge	cea55a38 <_start-0x15ca5d8>
d002af94:	aaaaaaaa 	bge	cead5a44 <_start-0x154a5cc>
d002af98:	aaaaaaaa 	bge	cead5a48 <_start-0x154a5c8>
d002af9c:	aaaaaaaa 	bge	cead5a4c <_start-0x154a5c4>
d002afa0:	aaaaaaaa 	bge	cead5a50 <_start-0x154a5c0>
d002afa4:	8888a8aa 	stmhi	r8, {r1, r3, r5, r7, fp, sp, pc}
d002afa8:	80808888 	addhi	r8, r0, r8, lsl #17
d002afac:	00808080 	addeq	r8, r0, r0, lsl #1
	...
d002afb8:	ffffff01 	undefined instruction 0xffffff01
d002afbc:	ffffffff 	undefined instruction 0xffffffff
d002afc0:	f5ffffff 	undefined instruction 0xf5ffffff
d002afc4:	01001155 	tsteq	r0, r5, asr r1
d002afc8:	55555111 	ldrbpl	r5, [r5, #-273]	; 0x111
d002afcc:	50010155 	andpl	r0, r1, r5, asr r1
	...
d002afd8:	00000100 	andeq	r0, r0, r0, lsl #2
d002afdc:	01000000 	tsteq	r0, r0
d002afe0:	01111100 	tsteq	r1, r0, lsl #2
d002afe4:	55555111 	ldrbpl	r5, [r5, #-273]	; 0x111
d002afe8:	55555555 	ldrbpl	r5, [r5, #-1365]	; 0x555
d002afec:	11115155 	tstne	r1, r5, asr r1
	...
d002b000:	02000000 	andeq	r0, r0, #0
d002b004:	eeeeeeae 	cdp	14, 14, cr14, cr14, cr14, {5}
d002b008:	eeeeaeae 	cdp	14, 14, cr10, cr14, cr14, {5}
d002b00c:	aaaaaaee 	bge	cead5bcc <_start-0x154a444>
d002b010:	aaaaaaaa 	bge	cead5ac0 <_start-0x154a550>
d002b014:	aaaaaaaa 	bge	cead5ac4 <_start-0x154a54c>
d002b018:	aaaaaaaa 	bge	cead5ac8 <_start-0x154a548>
d002b01c:	aa2aa2a2 	bge	d0ad3aac <bss_end+0xa9e4dc>
d002b020:	aaa222aa 	bge	ce8b3ad0 <_start-0x176c540>
d002b024:	aa2aaaa2 	bge	d0ad5ab4 <bss_end+0xaa04e4>
d002b028:	aaaaaaaa 	bge	cead5ad8 <_start-0x154a538>
d002b02c:	aaaaaaaa 	bge	cead5adc <_start-0x154a534>
d002b030:	aaaaaaaa 	bge	cead5ae0 <_start-0x154a530>
d002b034:	aaaaaaaa 	bge	cead5ae4 <_start-0x154a52c>
d002b038:	aaaaaaaa 	bge	cead5ae8 <_start-0x154a528>
d002b03c:	0222a2aa 	eoreq	sl, r2, #-1610612726	; 0xa000000a
	...
d002b04c:	7f000000 	svcvc	0x00000000
d002b050:	ffffffff 	undefined instruction 0xffffffff
d002b054:	ffffffff 	undefined instruction 0xffffffff
d002b058:	0044ddff 	strdeq	sp, [r4], #-223	; 0xffffff21
d002b05c:	44040000 	strmi	r0, [r4]
d002b060:	04dcdd45 	ldrbeq	sp, [ip], #3397	; 0xd45
d002b064:	00000004 	andeq	r0, r0, r4
d002b068:	00000000 	andeq	r0, r0, r0
d002b06c:	00000400 	andeq	r0, r0, r0, lsl #8
	...
d002b078:	44440040 	strbmi	r0, [r4], #-64	; 0x40
d002b07c:	44444545 	strbmi	r4, [r4], #-1349	; 0x545
d002b080:	44545555 	ldrbmi	r5, [r4], #-1365	; 0x555
d002b084:	00000444 	andeq	r0, r0, r4, asr #8
	...
d002b098:	ffbb8800 	undefined instruction 0xffbb8800
d002b09c:	bbbbbbbb 	bllt	cef19f90 <_start-0x1106080>
d002b0a0:	aabbffbb 	bge	cef2af94 <_start-0x10f507c>
d002b0a4:	88aaaaaa 	stmiahi	sl!, {r1, r3, r5, r7, r9, fp, sp, pc}
d002b0a8:	aaaaaa8a 	bge	cead5ad8 <_start-0x154a538>
d002b0ac:	8aaaaaaa 	bhi	cead5b5c <_start-0x154a4b4>
d002b0b0:	888888aa 	stmhi	r8, {r1, r3, r5, r7, fp, pc}
d002b0b4:	888a8888 	stmhi	sl, {r3, r7, fp, pc}
d002b0b8:	a8aa8888 	stmiage	sl!, {r3, r7, fp, pc}
d002b0bc:	8aaa8888 	bhi	ceacd2e4 <_start-0x1552d2c>
d002b0c0:	aaaaaa8a 	bge	cead5af0 <_start-0x154a520>
d002b0c4:	aaaaaaaa 	bge	cead5b74 <_start-0x154a49c>
d002b0c8:	aaaaaaaa 	bge	cead5b78 <_start-0x154a498>
d002b0cc:	aaaaaaaa 	bge	cead5b7c <_start-0x154a494>
d002b0d0:	8888aaaa 	stmhi	r8, {r1, r3, r5, r7, r9, fp, sp, pc}
d002b0d4:	88888888 	stmhi	r8, {r3, r7, fp, pc}
d002b0d8:	00000008 	andeq	r0, r0, r8
	...
d002b0e4:	ffff7f00 	undefined instruction 0xffff7f00
d002b0e8:	ffffffff 	undefined instruction 0xffffffff
d002b0ec:	55ffffff 	ldrbpl	pc, [pc, #4095]!	; d002c0f3 <gImage_pic+0x9727>
d002b0f0:	00001010 	andeq	r1, r0, r0, lsl r0
d002b0f4:	57151101 	ldrpl	r1, [r5, -r1, lsl #2]
d002b0f8:	11111175 	tstne	r1, r5, ror r1
d002b0fc:	00000010 	andeq	r0, r0, r0, lsl r0
d002b100:	00000000 	andeq	r0, r0, r0
d002b104:	00000001 	andeq	r0, r0, r1
d002b108:	00001000 	andeq	r1, r0, r0
d002b10c:	11111100 	tstne	r1, r0, lsl #2
d002b110:	55551111 	ldrbpl	r1, [r5, #-273]	; 0x111
d002b114:	55551555 	ldrbpl	r1, [r5, #-1365]	; 0x555
d002b118:	11111155 	tstne	r1, r5, asr r1
	...
d002b12c:	02000000 	andeq	r0, r0, #0
d002b130:	aaeaeeae 	bge	cfae6bf0 <_start-0x539420>
d002b134:	eeeeaaee 	vfms.f32	s21, s29, s29
d002b138:	aaaaaaea 	bge	cead5ce8 <_start-0x154a328>
d002b13c:	aaaaaaaa 	bge	cead5bec <_start-0x154a424>
d002b140:	aaaaaaaa 	bge	cead5bf0 <_start-0x154a420>
d002b144:	aaaaaaaa 	bge	cead5bf4 <_start-0x154a41c>
d002b148:	a2222220 	eorge	r2, r2, #2
d002b14c:	aaa2a22a 	bge	ce8d39fc <_start-0x174c614>
d002b150:	aaaaaaaa 	bge	cead5c00 <_start-0x154a410>
d002b154:	aaaaaaaa 	bge	cead5c04 <_start-0x154a40c>
d002b158:	aaaaaaaa 	bge	cead5c08 <_start-0x154a408>
d002b15c:	aaaaaaaa 	bge	cead5c0c <_start-0x154a404>
d002b160:	aaaaaaaa 	bge	cead5c10 <_start-0x154a400>
d002b164:	aaaaaaaa 	bge	cead5c14 <_start-0x154a3fc>
d002b168:	0020a0aa 	eoreq	sl, r0, sl, lsr #1
	...
d002b178:	5f000000 	svcpl	0x00000000
d002b17c:	ffffffff 	undefined instruction 0xffffffff
d002b180:	ffffffff 	undefined instruction 0xffffffff
d002b184:	0040c4fd 	strdeq	ip, [r0], #-77	; 0xffffffb3
d002b188:	04000000 	streq	r0, [r0]
d002b18c:	00d05d44 	sbcseq	r5, r0, r4, asr #26
d002b190:	00004004 	andeq	r4, r0, r4
	...
d002b1a4:	04004000 	streq	r4, [r0]
d002b1a8:	44444454 	strbmi	r4, [r4], #-1108	; 0x454
d002b1ac:	40444444 	submi	r4, r4, r4, asr #8
	...
d002b1c0:	00000080 	andeq	r0, r0, r0, lsl #1
d002b1c4:	fbab8800 	blx	ceb0d1ce <_start-0x1512e42>
d002b1c8:	bbbbabab 	bllt	cef1607c <_start-0x1109f94>
d002b1cc:	aabbfbbb 	bge	cef2a0c0 <_start-0x10f5f50>
d002b1d0:	88a8a8aa 	stmiahi	r8!, {r1, r3, r5, r7, fp, sp, pc}
d002b1d4:	aaaaaa88 	bge	cead5bfc <_start-0x154a414>
d002b1d8:	aaaaaaaa 	bge	cead5c88 <_start-0x154a388>
d002b1dc:	8888a8a8 	stmhi	r8, {r3, r5, r7, fp, sp, pc}
d002b1e0:	aa888888 	bge	ce24d408 <_start-0x1dd2c08>
d002b1e4:	88888a88 	stmhi	r8, {r3, r7, r9, fp, pc}
d002b1e8:	8a8888a8 	bhi	ce24d490 <_start-0x1dd2b80>
d002b1ec:	aaaa8aa8 	bge	ceacdc94 <_start-0x155237c>
d002b1f0:	aaaaaaaa 	bge	cead5ca0 <_start-0x154a370>
d002b1f4:	aaaaaaaa 	bge	cead5ca4 <_start-0x154a36c>
d002b1f8:	aaaaaaaa 	bge	cead5ca8 <_start-0x154a368>
d002b1fc:	8888a8aa 	stmhi	r8, {r1, r3, r5, r7, fp, sp, pc}
d002b200:	80888888 	addhi	r8, r8, r8, lsl #17
d002b204:	00808080 	addeq	r8, r0, r0, lsl #1
	...
d002b210:	ffff1f00 	undefined instruction 0xffff1f00
d002b214:	ffffffff 	undefined instruction 0xffffffff
d002b218:	55ffffff 	ldrbpl	pc, [pc, #4095]!	; d002c21f <gImage_pic+0x9853>
d002b21c:	00000000 	andeq	r0, r0, r0
d002b220:	77551101 	ldrbvc	r1, [r5, -r1, lsl #2]
d002b224:	01110151 	tsteq	r1, r1, asr r1
	...
d002b238:	11010100 	tstne	r1, r0, lsl #2
d002b23c:	55551101 	ldrbpl	r1, [r5, #-257]	; 0x101
d002b240:	51515555 	cmppl	r1, r5, asr r5
d002b244:	00011151 	andeq	r1, r1, r1, asr r1
	...
d002b258:	02000000 	andeq	r0, r0, #0
d002b25c:	aaaaeeae 	bge	ceae6d1c <_start-0x15392f4>
d002b260:	eeaeaeee 	cdp	14, 10, cr10, cr14, cr14, {7}
d002b264:	aaaaaaea 	bge	cead5e14 <_start-0x154a1fc>
d002b268:	aaaaa2aa 	bge	cead3d18 <_start-0x154c2f8>
d002b26c:	aaaaaaaa 	bge	cead5d1c <_start-0x154a2f4>
d002b270:	a2aaaaaa 	adcge	sl, sl, #696320	; 0xaa000
d002b274:	2222a202 	eorcs	sl, r2, #536870912	; 0x20000000
d002b278:	2aaa82aa 	bcs	ceacbd28 <_start-0x15542e8>
d002b27c:	aa22aaaa 	bge	d08d5d2c <bss_end+0x8a075c>
d002b280:	aaaaaaaa 	bge	cead5d30 <_start-0x154a2e0>
d002b284:	aaaaaaaa 	bge	cead5d34 <_start-0x154a2dc>
d002b288:	aaaaaaaa 	bge	cead5d38 <_start-0x154a2d8>
d002b28c:	aaaaaaaa 	bge	cead5d3c <_start-0x154a2d4>
d002b290:	aaaaaaaa 	bge	cead5d40 <_start-0x154a2d0>
d002b294:	022222a2 	eoreq	r2, r2, #536870922	; 0x2000000a
	...
d002b2a4:	1f000000 	svcne	0x00000000
d002b2a8:	ffffffff 	undefined instruction 0xffffffff
d002b2ac:	ffffffff 	undefined instruction 0xffffffff
d002b2b0:	0000d4dd 	ldrdeq	sp, [r0], -sp
d002b2b4:	04000000 	streq	r0, [r0]
d002b2b8:	44d0dd4d 	ldrbmi	sp, [r0], #3405	; 0xd4d
	...
d002b2d0:	04000000 	streq	r0, [r0]
d002b2d4:	44444444 	strbmi	r4, [r4], #-1092	; 0x444
d002b2d8:	00444444 	subeq	r4, r4, r4, asr #8
	...
d002b2f0:	bbab0800 	bllt	ceaed2f8 <_start-0x1532d18>
d002b2f4:	bbbbbbbb 	bllt	cef1a1e8 <_start-0x1105e28>
d002b2f8:	aababbbb 	bge	ceeda1ec <_start-0x1145e24>
d002b2fc:	888aaaaa 	stmhi	sl, {r1, r3, r5, r7, r9, fp, sp, pc}
d002b300:	aaaa8a88 	bge	ceacdd28 <_start-0x15522e8>
d002b304:	aaaaaaaa 	bge	cead5db4 <_start-0x154a25c>
d002b308:	888888aa 	stmhi	r8, {r1, r3, r5, r7, fp, pc}
d002b30c:	a8888a88 	stmge	r8, {r3, r7, r9, fp, pc}
d002b310:	8888a888 	stmhi	r8, {r3, r7, fp, sp, pc}
d002b314:	a88a88a8 	stmge	sl, {r3, r5, r7, fp, pc}
d002b318:	8aaa8aa8 	bhi	ceacddc0 <_start-0x1552250>
d002b31c:	aaaaaaaa 	bge	cead5dcc <_start-0x154a244>
d002b320:	aaaaaaaa 	bge	cead5dd0 <_start-0x154a240>
d002b324:	aaaaaaaa 	bge	cead5dd4 <_start-0x154a23c>
d002b328:	888888aa 	stmhi	r8, {r1, r3, r5, r7, fp, pc}
d002b32c:	08888888 	stmeq	r8, {r3, r7, fp, pc}
	...
d002b33c:	ffff1700 	undefined instruction 0xffff1700
d002b340:	ffffffff 	undefined instruction 0xffffffff
d002b344:	55ffffff 	ldrbpl	pc, [pc, #4095]!	; d002c34b <gImage_pic+0x997f>
d002b348:	00001000 	andeq	r1, r0, r0
d002b34c:	f5550100 	undefined instruction 0xf5550100
d002b350:	10001150 	andne	r1, r0, r0, asr r1
d002b354:	00000000 	andeq	r0, r0, r0
d002b358:	01000000 	tsteq	r0, r0
d002b35c:	00000010 	andeq	r0, r0, r0, lsl r0
	...
d002b368:	15151511 	ldrne	r1, [r5, #-1297]	; 0x511
d002b36c:	11555555 	cmpne	r5, r5, asr r5
d002b370:	00001011 	andeq	r1, r0, r1, lsl r0
	...
d002b388:	aaaaea2a 	bge	ceae5c38 <_start-0x153a3d8>
d002b38c:	eaaaaaee 	b	cead5f4c <_start-0x154a0c4>
d002b390:	aaaaaaaa 	bge	cead5e40 <_start-0x154a1d0>
d002b394:	aa2222aa 	bge	d08b3e44 <bss_end+0x87e874>
d002b398:	aaaaaaaa 	bge	cead5e48 <_start-0x154a1c8>
d002b39c:	aaaaaaaa 	bge	cead5e4c <_start-0x154a1c4>
d002b3a0:	22202000 	eorcs	r2, r0, #0
d002b3a4:	aa2a2820 	bge	d0ab542c <bss_end+0xa7fe5c>
d002b3a8:	22aa2022 	adccs	r2, sl, #34	; 0x22
d002b3ac:	aaaaaaaa 	bge	cead5e5c <_start-0x154a1b4>
d002b3b0:	aaaaaaaa 	bge	cead5e60 <_start-0x154a1b0>
d002b3b4:	aaaaaaaa 	bge	cead5e64 <_start-0x154a1ac>
d002b3b8:	aaaaaaaa 	bge	cead5e68 <_start-0x154a1a8>
d002b3bc:	aaaaaaaa 	bge	cead5e6c <_start-0x154a1a4>
d002b3c0:	00202022 	eoreq	r2, r0, r2, lsr #32
	...
d002b3d0:	07000000 	streq	r0, [r0, -r0]
d002b3d4:	ffffffff 	undefined instruction 0xffffffff
d002b3d8:	ffffffff 	undefined instruction 0xffffffff
d002b3dc:	0000c4fd 	strdeq	ip, [r0], -sp
d002b3e0:	00000000 	andeq	r0, r0, r0
d002b3e4:	0040dd55 	subeq	sp, r0, r5, asr sp
	...
d002b3f0:	00400000 	subeq	r0, r0, r0
	...
d002b3fc:	04000000 	streq	r0, [r0]
d002b400:	44444444 	strbmi	r4, [r4], #-1092	; 0x444
d002b404:	00004044 	andeq	r4, r0, r4, asr #32
	...
d002b41c:	fb8b8000 	blx	ce30b426 <_start-0x1d14bea>
d002b420:	abfbabab 	blge	cff162d4 <_start-0x109d3c>
d002b424:	aabbbbbb 	bge	cef1a318 <_start-0x1105cf8>
d002b428:	88a8a8aa 	stmiahi	r8!, {r1, r3, r5, r7, fp, sp, pc}
d002b42c:	aaaa8888 	bge	ceacd654 <_start-0x15529bc>
d002b430:	aaaa8aaa 	bge	ceacdee0 <_start-0x1552130>
d002b434:	8888a888 	stmhi	r8, {r3, r7, fp, sp, pc}
d002b438:	88888888 	stmhi	r8, {r3, r7, fp, pc}
d002b43c:	88888888 	stmhi	r8, {r3, r7, fp, pc}
d002b440:	a8888888 	stmge	r8, {r3, r7, fp, pc}
d002b444:	8888a88a 	stmhi	r8, {r1, r3, r7, fp, sp, pc}
d002b448:	aaaaaa88 	bge	cead5e70 <_start-0x154a1a0>
d002b44c:	aaaaaaaa 	bge	cead5efc <_start-0x154a114>
d002b450:	a8aaaaaa 	stmiage	sl!, {r1, r3, r5, r7, r9, fp, sp, pc}
d002b454:	88888888 	stmhi	r8, {r3, r7, fp, pc}
d002b458:	80808088 	addhi	r8, r0, r8, lsl #1
d002b45c:	00008080 	andeq	r8, r0, r0, lsl #1
	...
d002b468:	ffff0700 	undefined instruction 0xffff0700
d002b46c:	ffffffff 	undefined instruction 0xffffffff
d002b470:	51f7ffff 	ldrshpl	pc, [r7, #255]!	; 0xff
d002b474:	00001000 	andeq	r1, r0, r0
d002b478:	7d570100 	ldfvce	f0, [r7]
d002b47c:	00400041 	subeq	r0, r0, r1, asr #32
	...
d002b494:	51511101 	cmppl	r1, r1, lsl #2
d002b498:	11515555 	cmpne	r1, r5, asr r5
d002b49c:	00000011 	andeq	r0, r0, r1, lsl r0
	...
d002b4b4:	aeaaee2a 	cdpge	14, 10, cr14, cr10, cr10, {1}
d002b4b8:	eaaeaaee 	b	cebd6078 <_start-0x1449f98>
d002b4bc:	aaaaaaaa 	bge	cead5f6c <_start-0x154a0a4>
d002b4c0:	220200aa 	andcs	r0, r2, #170	; 0xaa
d002b4c4:	a2aaaaaa 	adcge	sl, sl, #696320	; 0xaa000
d002b4c8:	aaaaaaaa 	bge	cead5f78 <_start-0x154a098>
d002b4cc:	0a0a0200 	beq	d02abcd4 <bss_end+0x276704>
d002b4d0:	a28202a2 	addge	r0, r2, #536870922	; 0x2000000a
d002b4d4:	222282a2 	eorcs	r8, r2, #536870922	; 0x2000000a
d002b4d8:	aaaaaaa2 	bge	cead5f68 <_start-0x154a0a8>
d002b4dc:	aaa2a2aa 	bge	ce8d3f8c <_start-0x174c084>
d002b4e0:	aaaaaaaa 	bge	cead5f90 <_start-0x154a080>
d002b4e4:	aaaaaaaa 	bge	cead5f94 <_start-0x154a07c>
d002b4e8:	a2aaaaaa 	adcge	sl, sl, #696320	; 0xaa000
d002b4ec:	000022a2 	andeq	r2, r0, r2, lsr #5
	...
d002b4fc:	07000000 	streq	r0, [r0, -r0]
d002b500:	ffffffff 	undefined instruction 0xffffffff
d002b504:	ffffffff 	undefined instruction 0xffffffff
d002b508:	000044dd 	ldrdeq	r4, [r0], -sp
d002b50c:	00000000 	andeq	r0, r0, r0
d002b510:	0060dd0d 	rsbeq	sp, r0, sp, lsl #26
d002b514:	00000040 	andeq	r0, r0, r0, asr #32
	...
d002b528:	04000000 	streq	r0, [r0]
d002b52c:	44444544 	strbmi	r4, [r4], #-1348	; 0x544
d002b530:	00000044 	andeq	r0, r0, r4, asr #32
	...
d002b548:	bb8b0000 	bllt	ce2eb550 <_start-0x1d34ac0>
d002b54c:	aabbbbba 	bge	cef1a43c <_start-0x1105bd4>
d002b550:	aababbbb 	bge	ceeda444 <_start-0x1145bcc>
d002b554:	88a88aaa 	stmiahi	r8!, {r1, r3, r5, r7, r9, fp, pc}
d002b558:	aa8a8888 	bge	ce2cd780 <_start-0x1d52890>
d002b55c:	aaaaaaaa 	bge	cead600c <_start-0x154a004>
d002b560:	88888a8a 	stmhi	r8, {r1, r3, r7, r9, fp, pc}
d002b564:	88888088 	stmhi	r8, {r3, r7, pc}
d002b568:	88888888 	stmhi	r8, {r3, r7, fp, pc}
d002b56c:	88888808 	stmhi	r8, {r3, fp, pc}
d002b570:	888a8a8a 	stmhi	sl, {r1, r3, r7, r9, fp, pc}
d002b574:	aaaaaa8a 	bge	cead5fa4 <_start-0x154a06c>
d002b578:	aaaaaaaa 	bge	cead6028 <_start-0x1549fe8>
d002b57c:	88aaaaaa 	stmiahi	sl!, {r1, r3, r5, r7, r9, fp, sp, pc}
d002b580:	88888888 	stmhi	r8, {r3, r7, fp, pc}
d002b584:	00808888 	addeq	r8, r0, r8, lsl #17
	...
d002b594:	ffff0700 	undefined instruction 0xffff0700
d002b598:	ffffffff 	undefined instruction 0xffffffff
d002b59c:	50f5ffff 	ldrshtpl	pc, [r5], #255	; 0xff
d002b5a0:	00001000 	andeq	r1, r0, r0
d002b5a4:	53150100 	tstpl	r5, #0
d002b5a8:	00001061 	andeq	r1, r0, r1, rrx
d002b5ac:	00000010 	andeq	r0, r0, r0, lsl r0
	...
d002b5c0:	55111101 	ldrpl	r1, [r1, #-257]	; 0x101
d002b5c4:	11115555 	tstne	r1, r5, asr r5
d002b5c8:	00000010 	andeq	r0, r0, r0, lsl r0
	...
d002b5e0:	aaaaea2a 	bge	ceae5e90 <_start-0x153a180>
d002b5e4:	eaaaaaee 	b	cead61a4 <_start-0x1549e6c>
d002b5e8:	aaaaaaaa 	bge	cead6098 <_start-0x1549f78>
d002b5ec:	222000a8 	eorcs	r0, r0, #168	; 0xa8
d002b5f0:	aaaaaa2a 	bge	cead5ea0 <_start-0x154a170>
d002b5f4:	aaaaaaaa 	bge	cead60a4 <_start-0x1549f6c>
d002b5f8:	000020a0 	andeq	r2, r0, r0, lsr #1
d002b5fc:	20220200 	eorcs	r0, r2, r0, lsl #4
d002b600:	20202820 	eorcs	r2, r0, r0, lsr #16
d002b604:	aaaa2222 	bge	ceab3e94 <_start-0x156c17c>
d002b608:	aaaaaaaa 	bge	cead60b8 <_start-0x1549f58>
d002b60c:	aaaaaaaa 	bge	cead60bc <_start-0x1549f54>
d002b610:	aaaaaaaa 	bge	cead60c0 <_start-0x1549f50>
d002b614:	22aaaaaa 	adccs	sl, sl, #696320	; 0xaa000
d002b618:	2a002022 	bcs	d00336a8 <gImage_pic+0x10cdc>
d002b61c:	000000a0 	andeq	r0, r0, r0, lsr #1
	...
d002b628:	07000000 	streq	r0, [r0, -r0]
d002b62c:	fffffdff 	undefined instruction 0xfffffdff
d002b630:	fffffffd 	undefined instruction 0xfffffffd
d002b634:	000040dc 	ldrdeq	r4, [r0], -ip
d002b638:	00000000 	andeq	r0, r0, r0
d002b63c:	00c0d45d 	sbceq	sp, r0, sp, asr r4
d002b640:	00140000 	andseq	r0, r4, r0
	...
d002b654:	44000000 	strmi	r0, [r0]
d002b658:	44444400 	strbmi	r4, [r4], #-1024	; 0x400
d002b65c:	00000040 	andeq	r0, r0, r0, asr #32
	...
d002b674:	bb8b0000 	bllt	ce2eb67c <_start-0x1d34994>
d002b678:	aabbbbaa 	bge	cef1a528 <_start-0x1105ae8>
d002b67c:	aabbbbbb 	bge	cef1a570 <_start-0x1105aa0>
d002b680:	88a888aa 	stmiahi	r8!, {r1, r3, r5, r7, fp, pc}
d002b684:	aa888880 	bge	ce24d88c <_start-0x1dd2784>
d002b688:	a8a8aaaa 	stmiage	r8!, {r1, r3, r5, r7, r9, fp, sp, pc}
d002b68c:	8888aaa8 	stmhi	r8, {r3, r5, r7, r9, fp, sp, pc}
d002b690:	88888088 	stmhi	r8, {r3, r7, pc}
d002b694:	88888888 	stmhi	r8, {r3, r7, fp, pc}
d002b698:	88888888 	stmhi	r8, {r3, r7, fp, pc}
d002b69c:	88888888 	stmhi	r8, {r3, r7, fp, pc}
d002b6a0:	aaaaaaaa 	bge	cead6150 <_start-0x1549ec0>
d002b6a4:	aaaaaaaa 	bge	cead6154 <_start-0x1549ebc>
d002b6a8:	88a8aaaa 	stmiahi	r8!, {r1, r3, r5, r7, r9, fp, sp, pc}
d002b6ac:	88888888 	stmhi	r8, {r3, r7, fp, pc}
d002b6b0:	80a88888 	adchi	r8, r8, r8, lsl #17
d002b6b4:	00000080 	andeq	r0, r0, r0, lsl #1
	...
d002b6c0:	ffff0700 	undefined instruction 0xffff0700
d002b6c4:	ffffffff 	undefined instruction 0xffffffff
d002b6c8:	50f5ffff 	ldrshtpl	pc, [r5], #255	; 0xff
d002b6cc:	00000000 	andeq	r0, r0, r0
d002b6d0:	45550000 	ldrbmi	r0, [r5]
d002b6d4:	00005041 	andeq	r5, r0, r1, asr #32
d002b6d8:	00000075 	andeq	r0, r0, r5, ror r0
	...
d002b6ec:	55111111 	ldrpl	r1, [r1, #-273]	; 0x111
d002b6f0:	01515555 	cmpeq	r1, r5, asr r5
	...
d002b70c:	aeaaee0a 	cdpge	14, 10, cr14, cr10, cr10, {0}
d002b710:	eeaeaaee 	vfms.f32	s20, s29, s29
d002b714:	aaaaaaaa 	bge	cead61c4 <_start-0x1549e4c>
d002b718:	220002a2 	andcs	r0, r0, #536870922	; 0x2000000a
d002b71c:	aaaaaaaa 	bge	cead61cc <_start-0x1549e44>
d002b720:	aaaaaaaa 	bge	cead61d0 <_start-0x1549e40>
d002b724:	000202a2 	andeq	r0, r2, r2, lsr #5
d002b728:	02000202 	andeq	r0, r0, #536870912	; 0x20000000
d002b72c:	02a02222 	adceq	r2, r0, #536870914	; 0x20000002
d002b730:	aaa22aa2 	bge	ce8b61c0 <_start-0x1769e50>
d002b734:	aaaa2aaa 	bge	ceab61e4 <_start-0x1569e2c>
d002b738:	aaaaaaaa 	bge	cead61e8 <_start-0x1549e28>
d002b73c:	aaaaaaaa 	bge	cead61ec <_start-0x1549e24>
d002b740:	a2aaaaaa 	adcge	sl, sl, #696320	; 0xaa000
d002b744:	2a0202a2 	bcs	d00ac1d4 <bss_end+0x76c04>
d002b748:	000080aa 	andeq	r8, r0, sl, lsr #1
	...
d002b754:	01000000 	tsteq	r0, r0
d002b758:	ffffffff 	undefined instruction 0xffffffff
d002b75c:	ffffffff 	undefined instruction 0xffffffff
d002b760:	000044dd 	ldrdeq	r4, [r0], -sp
d002b764:	00000000 	andeq	r0, r0, r0
d002b768:	40c04555 	sbcmi	r4, r0, r5, asr r5
d002b76c:	007c0000 	rsbseq	r0, ip, r0
	...
d002b780:	00040000 	andeq	r0, r4, r0
d002b784:	44454404 	strbmi	r4, [r5], #-1028	; 0x404
d002b788:	00000040 	andeq	r0, r0, r0, asr #32
	...
d002b7a0:	bb0a0000 	bllt	d02ab7a8 <bss_end+0x2761d8>
d002b7a4:	bbbfbbaa 	bllt	cf01a654 <_start-0x10059bc>
d002b7a8:	aababbbb 	bge	ceeda69c <_start-0x1145974>
d002b7ac:	8888aaaa 	stmhi	r8, {r1, r3, r5, r7, r9, fp, sp, pc}
d002b7b0:	aa8a8880 	bge	ce2cd9b8 <_start-0x1d52658>
d002b7b4:	8a888aaa 	bhi	ce24e264 <_start-0x1dd1dac>
d002b7b8:	8888eaaa 	stmhi	r8, {r1, r3, r5, r7, r9, fp, sp, lr, pc}
d002b7bc:	88888888 	stmhi	r8, {r3, r7, fp, pc}
d002b7c0:	8a888888 	bhi	ce24d9e8 <_start-0x1dd2628>
d002b7c4:	88888888 	stmhi	r8, {r3, r7, fp, pc}
d002b7c8:	8a8aaa88 	bhi	ce2d61f0 <_start-0x1d49e20>
d002b7cc:	aaaaaa8a 	bge	cead61fc <_start-0x1549e14>
d002b7d0:	aaaaaaaa 	bge	cead6280 <_start-0x1549d90>
d002b7d4:	8a8aaaaa 	bhi	ce2d6284 <_start-0x1d49d8c>
d002b7d8:	8888888a 	stmhi	r8, {r1, r3, r7, fp, pc}
d002b7dc:	88aa8a88 	stmiahi	sl!, {r3, r7, r9, fp, pc}
d002b7e0:	00080000 	andeq	r0, r8, r0
	...
d002b7ec:	ff7f0100 	undefined instruction 0xff7f0100
d002b7f0:	ffffffff 	undefined instruction 0xffffffff
d002b7f4:	51f5ffff 	ldrshpl	pc, [r5, #255]!	; 0xff
d002b7f8:	00000010 	andeq	r0, r0, r0, lsl r0
d002b7fc:	59040000 	stmdbpl	r4, {}
d002b800:	00001051 	andeq	r1, r0, r1, asr r0
d002b804:	000000fd 	strdeq	r0, [r0], -sp
d002b808:	00000000 	andeq	r0, r0, r0
d002b80c:	00000100 	andeq	r0, r0, r0, lsl #2
d002b810:	00000000 	andeq	r0, r0, r0
d002b814:	11000000 	tstne	r0, r0
d002b818:	55151111 	ldrpl	r1, [r5, #-273]	; 0x111
d002b81c:	10105555 	andsne	r5, r0, r5, asr r5
	...
d002b82c:	00000100 	andeq	r0, r0, r0, lsl #2
	...
d002b838:	aaaaaa02 	bge	cead6048 <_start-0x1549fc8>
d002b83c:	aaeaeeee 	bge	cfae73fc <_start-0x538c14>
d002b840:	aaaaaaea 	bge	cead63f0 <_start-0x1549c20>
d002b844:	22002028 	andcs	r2, r0, #40	; 0x28
d002b848:	aaaaaaaa 	bge	cead62f8 <_start-0x1549d18>
d002b84c:	eaa8aaaa 	b	cea562fc <_start-0x15c9d14>
d002b850:	000020aa 	andeq	r2, r0, sl, lsr #1
d002b854:	00202000 	eoreq	r2, r0, r0
d002b858:	22aa2208 	adccs	r2, sl, #-2147483648	; 0x80000000
d002b85c:	2aa222a2 	bcs	ce8b42ec <_start-0x176bd24>
d002b860:	aaaaaaaa 	bge	cead6310 <_start-0x1549d00>
d002b864:	aaaaaaaa 	bge	cead6314 <_start-0x1549cfc>
d002b868:	aaaaaaaa 	bge	cead6318 <_start-0x1549cf8>
d002b86c:	0020aaaa 	eoreq	sl, r0, sl, lsr #21
d002b870:	2a000000 	bcs	d002b878 <gImage_pic+0x8eac>
d002b874:	0000a0aa 	andeq	sl, r0, sl, lsr #1
d002b878:	0000000a 	andeq	r0, r0, sl
	...
d002b884:	ffffff5f 	undefined instruction 0xffffff5f
d002b888:	ffffffff 	undefined instruction 0xffffffff
d002b88c:	000040d4 	ldrdeq	r4, [r0], -r4
d002b890:	00000000 	andeq	r0, r0, r0
d002b894:	54d49c51 	ldrbpl	r9, [r4], #3153	; 0xc51
d002b898:	00fc0100 	rscseq	r0, ip, r0, lsl #2
	...
d002b8ac:	04000000 	streq	r0, [r0]
d002b8b0:	445454d5 	ldrbmi	r5, [r4], #-1237	; 0x4d5
d002b8b4:	00000040 	andeq	r0, r0, r0, asr #32
	...
d002b8c0:	01000000 	tsteq	r0, r0
	...
d002b8cc:	ab880000 	blge	ce22b8d4 <_start-0x1df473c>
d002b8d0:	bbbbbbbb 	bllt	cef1a7c4 <_start-0x110584c>
d002b8d4:	aabbbbbb 	bge	cef1a7c8 <_start-0x1105848>
d002b8d8:	8888a8aa 	stmhi	r8, {r1, r3, r5, r7, fp, sp, pc}
d002b8dc:	aa8a8880 	bge	ce2cdae4 <_start-0x1d5252c>
d002b8e0:	aaaaaaaa 	bge	cead6390 <_start-0x1549c80>
d002b8e4:	8088aaab 	addhi	sl, r8, fp, lsr #21
d002b8e8:	88888080 	stmhi	r8, {r7, pc}
d002b8ec:	80888080 	addhi	r8, r8, r0, lsl #1
d002b8f0:	88888888 	stmhi	r8, {r3, r7, fp, pc}
d002b8f4:	a8888888 	stmge	r8, {r3, r7, fp, pc}
d002b8f8:	aaaaaa8a 	bge	cead6328 <_start-0x1549ce8>
d002b8fc:	aaaaaaaa 	bge	cead63ac <_start-0x1549c64>
d002b900:	88a8aaaa 	stmiahi	r8!, {r1, r3, r5, r7, r9, fp, sp, pc}
d002b904:	80808080 	addhi	r8, r0, r0, lsl #1
d002b908:	88888888 	stmhi	r8, {r3, r7, fp, pc}
d002b90c:	008a0080 	addeq	r0, sl, r0, lsl #1
	...
d002b918:	ff1f0000 	undefined instruction 0xff1f0000
d002b91c:	ffffffff 	undefined instruction 0xffffffff
d002b920:	50f5ffff 	ldrshtpl	pc, [r5], #255	; 0xff
d002b924:	00000000 	andeq	r0, r0, r0
d002b928:	67070100 	strvs	r0, [r7, -r0, lsl #2]
d002b92c:	01011417 	tsteq	r1, r7, lsl r4
d002b930:	000000f7 	strdeq	r0, [r0], -r7
	...
d002b940:	01000000 	tsteq	r0, r0
d002b944:	55551101 	ldrbpl	r1, [r5, #-257]	; 0x101
d002b948:	01515155 	cmpeq	r1, r5, asr r1
	...
d002b958:	00001700 	andeq	r1, r0, r0, lsl #14
	...
d002b964:	aaaaaa02 	bge	cead6174 <_start-0x1549e9c>
d002b968:	aeaeeeae 	cdpge	14, 10, cr14, cr14, cr14, {5}
d002b96c:	a2aaaaaa 	adcge	sl, sl, #696320	; 0xaa000
d002b970:	020000a2 	andeq	r0, r0, #162	; 0xa2
d002b974:	aaaaa222 	bge	cead4204 <_start-0x154be0c>
d002b978:	aaaaaaaa 	bge	cead6428 <_start-0x1549be8>
d002b97c:	000200a2 	andeq	r0, r2, r2, lsr #1
d002b980:	02022202 	andeq	r2, r2, #536870912	; 0x20000000
d002b984:	02020220 	andeq	r0, r2, #2
d002b988:	a2a28a22 	adcge	r8, r2, #139264	; 0x22000
d002b98c:	aaaaaaa2 	bge	cead641c <_start-0x1549bf4>
d002b990:	aaaaaaaa 	bge	cead6440 <_start-0x1549bd0>
d002b994:	aaaaaaaa 	bge	cead6444 <_start-0x1549bcc>
d002b998:	000000a2 	andeq	r0, r0, r2, lsr #1
d002b99c:	22020000 	andcs	r0, r2, #0
d002b9a0:	0000a0a2 	andeq	sl, r0, r2, lsr #1
d002b9a4:	000000aa 	andeq	r0, r0, sl, lsr #1
	...
d002b9b0:	ffffff07 	undefined instruction 0xffffff07
d002b9b4:	ffffffff 	undefined instruction 0xffffffff
d002b9b8:	000040d4 	ldrdeq	r4, [r0], -r4
d002b9bc:	00000000 	andeq	r0, r0, r0
d002b9c0:	d0954504 	addsle	r4, r5, r4, lsl #10
d002b9c4:	00fc0300 	rscseq	r0, ip, r0, lsl #6
	...
d002b9d8:	05000004 	streq	r0, [r0, #-4]
d002b9dc:	445d4555 	ldrbmi	r4, [sp], #-1365	; 0x555
d002b9e0:	00000440 	andeq	r0, r0, r0, asr #8
	...
d002b9ec:	5f000000 	svcpl	0x00000000
	...
d002b9f8:	8b080000 	blhi	d022ba00 <bss_end+0x1f6430>
d002b9fc:	fbbbbbba 	blx	cef1a8ee <_start-0x1105722>
d002ba00:	aababbbb 	bge	ceeda8f4 <_start-0x114571c>
d002ba04:	888888aa 	stmhi	r8, {r1, r3, r5, r7, fp, pc}
d002ba08:	aa8a8888 	bge	ce2cdc30 <_start-0x1d523e0>
d002ba0c:	aaaabaaa 	bge	ceada4bc <_start-0x1545b54>
d002ba10:	88a8baaa 	stmiahi	r8!, {r1, r3, r5, r7, r9, fp, ip, sp, pc}
d002ba14:	88088808 	stmdahi	r8, {r3, fp, pc}
d002ba18:	88888888 	stmhi	r8, {r3, r7, fp, pc}
d002ba1c:	88888808 	stmhi	r8, {r3, fp, pc}
d002ba20:	aa8888a8 	bge	ce24dcc8 <_start-0x1dd2348>
d002ba24:	aaaaaaaa 	bge	cead64d4 <_start-0x1549b3c>
d002ba28:	aaaaaaaa 	bge	cead64d8 <_start-0x1549b38>
d002ba2c:	8088a8aa 	addhi	sl, r8, sl, lsr #17
d002ba30:	08000008 	stmdaeq	r0, {r3}
d002ba34:	88888888 	stmhi	r8, {r3, r7, fp, pc}
d002ba38:	00aa0a00 	adceq	r0, sl, r0, lsl #20
	...
d002ba44:	ff070000 	undefined instruction 0xff070000
d002ba48:	ffffffff 	undefined instruction 0xffffffff
d002ba4c:	1055ffff 	ldrshne	pc, [r5], #-255	; 0xffffff01
d002ba50:	00000000 	andeq	r0, r0, r0
d002ba54:	d5550000 	ldrble	r0, [r5]
d002ba58:	0700f87f 	smusdxeq	r0, pc, r8
d002ba5c:	000000f0 	strdeq	r0, [r0], r0
	...
d002ba6c:	10010000 	andne	r0, r1, r0
d002ba70:	55551511 	ldrbpl	r1, [r5, #-1297]	; 0x511
d002ba74:	11105575 	tstne	r0, r5, ror r5
	...
d002ba84:	00007f01 	andeq	r7, r0, r1, lsl #30
	...
d002ba90:	aaea2a00 	bge	cfab6298 <_start-0x569d78>
d002ba94:	aaaaeeae 	bge	ceae7554 <_start-0x1538abc>
d002ba98:	22aaaaea 	adccs	sl, sl, #958464	; 0xea000
d002ba9c:	002000a0 	eoreq	r0, r0, r0, lsr #1
d002baa0:	eeaaaa02 	vfma.f32	s20, s20, s4
d002baa4:	aaa2aaf8 	bge	ce8d668c <_start-0x1749984>
d002baa8:	000020a2 	andeq	r2, r0, r2, lsr #1
d002baac:	00202000 	eoreq	r2, r0, r0
d002bab0:	20200020 	eorcs	r0, r0, r0, lsr #32
d002bab4:	20aa2828 	adccs	r2, sl, r8, lsr #16
d002bab8:	aaaaaa2a 	bge	cead6368 <_start-0x1549ca8>
d002babc:	aaaaaaaa 	bge	cead656c <_start-0x1549aa4>
d002bac0:	a0aaaaaa 	adcge	sl, sl, sl, lsr #21
	...
d002bacc:	2a000022 	bcs	d002bb5c <gImage_pic+0x9190>
d002bad0:	000000aa 	andeq	r0, r0, sl, lsr #1
	...
d002badc:	ffffff05 	undefined instruction 0xffffff05
d002bae0:	fdffffff 	ldc2l	15, cr15, [pc, #1020]!	; 0x3fc
d002bae4:	000000d4 	ldrdeq	r0, [r0], -r4
d002bae8:	00000000 	andeq	r0, r0, r0
d002baec:	fc7fd405 	ldc2l	4, cr13, [pc], #-20	; 0xffffffec
d002baf0:	00dc0700 	sbcseq	r0, ip, r0, lsl #14
	...
d002bb04:	54004004 	strpl	r4, [r0], #-4
d002bb08:	c4ddd555 	ldrbgt	sp, [sp], #1365	; 0x555
d002bb0c:	00000040 	andeq	r0, r0, r0, asr #32
	...
d002bb18:	fd050000 	stc2	0, cr0, [r5]
d002bb1c:	00800000 	addeq	r0, r0, r0
d002bb20:	00800000 	addeq	r0, r0, r0
d002bb24:	8b800080 	blhi	ce02bd2c <_start-0x1ff42e4>
d002bb28:	fbbbabbb 	blx	cef16a1e <_start-0x11095f2>
d002bb2c:	aababbbb 	bge	ceedaa20 <_start-0x11455f0>
d002bb30:	808888a8 	addhi	r8, r8, r8, lsr #17
d002bb34:	28888088 	stmcs	r8, {r3, r7, pc}
d002bb38:	aaf8fbaa 	bge	cfe6a9e8 <_start-0x1b5628>
d002bb3c:	8888aaaa 	stmhi	r8, {r1, r3, r5, r7, r9, fp, sp, pc}
d002bb40:	88888888 	stmhi	r8, {r3, r7, fp, pc}
d002bb44:	88888088 	stmhi	r8, {r3, r7, pc}
d002bb48:	8a808880 	bhi	ce04dd50 <_start-0x1fd22c0>
d002bb4c:	aa888888 	bge	ce24dd74 <_start-0x1dd229c>
d002bb50:	aaaaaaaa 	bge	cead6600 <_start-0x1549a10>
d002bb54:	aaaaaaaa 	bge	cead6604 <_start-0x1549a0c>
d002bb58:	808088a8 	addhi	r8, r0, r8, lsr #17
d002bb5c:	80800080 	addhi	r0, r0, r0, lsl #1
d002bb60:	80888888 	addhi	r8, r8, r8, lsl #17
d002bb64:	00aaaa00 	adceq	sl, sl, r0, lsl #20
	...
d002bb70:	ff010000 	undefined instruction 0xff010000
d002bb74:	ffffffff 	undefined instruction 0xffffffff
d002bb78:	0055ffff 	ldrsheq	pc, [r5], #-255	; 0xffffff01
d002bb7c:	00000000 	andeq	r0, r0, r0
d002bb80:	dc450100 	stflee	f0, [r5], {0}
d002bb84:	0701f87f 	smusdxeq	r1, pc, r8
d002bb88:	00000055 	andeq	r0, r0, r5, asr r0
	...
d002bb98:	51110014 	tstpl	r1, r4, lsl r0
d002bb9c:	55555151 	ldrbpl	r5, [r5, #-337]	; 0x151
d002bba0:	00015175 	andeq	r5, r1, r5, ror r1
	...
d002bbb0:	0000ff17 	andeq	pc, r0, r7, lsl pc
	...
d002bbbc:	aaaa0a00 	bge	ceaae3c4 <_start-0x1571c4c>
d002bbc0:	aeeaeeae 	cdpge	14, 14, cr14, cr10, cr14, {5}
d002bbc4:	a2a2aaaa 	adcge	sl, r2, #696320	; 0xaa000
d002bbc8:	00000020 	andeq	r0, r0, r0, lsr #32
d002bbcc:	eeaaaa02 	vfma.f32	s20, s20, s4
d002bbd0:	aaaeaafa 	bge	cebd67c0 <_start-0x1449850>
d002bbd4:	000022a2 	andeq	r2, r0, r2, lsr #5
d002bbd8:	22000000 	andcs	r0, r0, #0
d002bbdc:	200a8022 	andcs	r8, sl, r2, lsr #32
d002bbe0:	2a2a0222 	bcs	d0aac470 <bss_end+0xa76ea0>
d002bbe4:	aaaaaaaa 	bge	cead6694 <_start-0x154997c>
d002bbe8:	aaaaaaaa 	bge	cead6698 <_start-0x1549978>
d002bbec:	00aaaaaa 	adceq	sl, sl, sl, lsr #21
d002bbf0:	00000000 	andeq	r0, r0, r0
d002bbf4:	02020000 	andeq	r0, r2, #0
d002bbf8:	aa020002 	bge	d00abc08 <bss_end+0x76638>
d002bbfc:	000000aa 	andeq	r0, r0, sl, lsr #1
	...
d002bc08:	ffffff01 	undefined instruction 0xffffff01
d002bc0c:	ffffffff 	undefined instruction 0xffffffff
d002bc10:	000000d4 	ldrdeq	r0, [r0], -r4
d002bc14:	00000000 	andeq	r0, r0, r0
d002bc18:	f8ffe415 	undefined instruction 0xf8ffe415
d002bc1c:	00c40d00 	sbceq	r0, r4, r0, lsl #26
	...
d002bc30:	40454404 	submi	r4, r5, r4, lsl #8
d002bc34:	44dd555d 	ldrbmi	r5, [sp], #1373	; 0x55d
d002bc38:	00000040 	andeq	r0, r0, r0, asr #32
	...
d002bc44:	df5f0000 	svcle	0x005f0000
	...
d002bc50:	0a000000 	beq	d002bc58 <gImage_pic+0x928c>
d002bc54:	bbbbabbb 	bllt	cef16b48 <_start-0x11094c8>
d002bc58:	aababbba 	bge	ceedab48 <_start-0x11454c8>
d002bc5c:	088888a8 	stmeq	r8, {r3, r5, r7, fp, pc}
d002bc60:	aa0a0088 	bge	d02abe88 <bss_end+0x2768b8>
d002bc64:	8af8ffaa 	bhi	cfe6bb14 <_start-0x1b44fc>
d002bc68:	8888aa8a 	stmhi	r8, {r1, r3, r7, r9, fp, sp, pc}
d002bc6c:	08888088 	stmeq	r8, {r3, r7, pc}
d002bc70:	888a8880 	stmhi	sl, {r7, fp, pc}
d002bc74:	88888888 	stmhi	r8, {r3, r7, fp, pc}
d002bc78:	aa8a8a88 	bge	ce2ce6a0 <_start-0x1d51970>
d002bc7c:	aaaaaaaa 	bge	cead672c <_start-0x15498e4>
d002bc80:	aaaaaaaa 	bge	cead6730 <_start-0x15498e0>
d002bc84:	00000888 	andeq	r0, r0, r8, lsl #17
d002bc88:	08000000 	stmdaeq	r0, {}
d002bc8c:	00888888 	addeq	r8, r8, r8, lsl #17
d002bc90:	00aaaa0a 	adceq	sl, sl, sl, lsl #20
	...
d002bc9c:	ff010000 	undefined instruction 0xff010000
d002bca0:	ffffffff 	undefined instruction 0xffffffff
d002bca4:	0055ffff 	ldrsheq	pc, [r5], #-255	; 0xffffff01
d002bca8:	00000000 	andeq	r0, r0, r0
d002bcac:	15170100 	ldrne	r0, [r7, #-256]	; 0x100
d002bcb0:	1f01f8ff 	svcne	0x0001f8ff
d002bcb4:	00000070 	andeq	r0, r0, r0, ror r0
	...
d002bcc4:	11c50110 	bicne	r0, r5, r0, lsl r1
d002bcc8:	55555155 	ldrbpl	r5, [r5, #-341]	; 0x155
d002bccc:	00105575 	andseq	r5, r0, r5, ror r5
	...
d002bcd8:	01000000 	tsteq	r0, r0
d002bcdc:	0000ff7f 	andeq	pc, r0, pc, ror pc
	...
d002bce8:	aaaa0200 	bge	ceaac4f0 <_start-0x1573b20>
d002bcec:	aaaaaaaa 	bge	cead679c <_start-0x1549874>
d002bcf0:	00a0aaea 	adceq	sl, r0, sl, ror #21
d002bcf4:	00000020 	andeq	r0, r0, r0, lsr #32
d002bcf8:	eeaaaa02 	vfma.f32	s20, s20, s4
d002bcfc:	ea8eaaf8 	b	ce3d68e4 <_start-0x1c4972c>
d002bd00:	000020a0 	andeq	r2, r0, r0, lsr #1
d002bd04:	20200000 	eorcs	r0, r0, r0
d002bd08:	20a22200 	adccs	r2, r2, r0, lsl #4
d002bd0c:	aaaa2a00 	bge	ceab6514 <_start-0x1569afc>
d002bd10:	aaaaaaaa 	bge	cead67c0 <_start-0x1549850>
d002bd14:	aaaaaaaa 	bge	cead67c4 <_start-0x154984c>
d002bd18:	00a0aaaa 	adceq	sl, r0, sl, lsr #21
d002bd1c:	00000000 	andeq	r0, r0, r0
d002bd20:	20000000 	andcs	r0, r0, r0
d002bd24:	aa0a0000 	bge	d02abd2c <bss_end+0x27675c>
d002bd28:	000000aa 	andeq	r0, r0, sl, lsr #1
	...
d002bd34:	ffff7f00 	undefined instruction 0xffff7f00
d002bd38:	fffffdff 	undefined instruction 0xfffffdff
d002bd3c:	000000d4 	ldrdeq	r0, [r0], -r4
d002bd40:	00000000 	andeq	r0, r0, r0
d002bd44:	fcffd155 	ldc2l	1, cr13, [pc], #340	; 0x154
d002bd48:	00fc1f00 	rscseq	r1, ip, r0, lsl #30
	...
d002bd58:	04000000 	streq	r0, [r0]
d002bd5c:	d55d4504 	ldrble	r4, [sp, #-1284]	; 0x504
d002bd60:	54d55554 	ldrbpl	r5, [r5], #1364	; 0x554
d002bd64:	00000040 	andeq	r0, r0, r0, asr #32
	...
d002bd70:	dfff0100 	svcle	0x00ff0100
d002bd74:	00000000 	andeq	r0, r0, r0
d002bd78:	80000000 	andhi	r0, r0, r0
d002bd7c:	88008000 	stmdahi	r0, {pc}
d002bd80:	aaabbbbb 	bge	ceb1ac74 <_start-0x150539c>
d002bd84:	aabbabaa 	bge	cef16c34 <_start-0x11093dc>
d002bd88:	808088a8 	addhi	r8, r0, r8, lsr #17
d002bd8c:	aa088080 	bge	d024bf94 <bss_end+0x2169c4>
d002bd90:	88f8ffb9 	ldmhi	r8!, {r0, r3, r4, r5, r7, r8, r9, sl, fp, ip, sp, lr, pc}^
d002bd94:	8880aabb 	stmhi	r0, {r0, r1, r3, r4, r5, r7, r9, fp, sp, pc}
d002bd98:	88808088 	stmhi	r0, {r3, r7, pc}
d002bd9c:	88888088 	stmhi	r8, {r3, r7, pc}
d002bda0:	8a808888 	bhi	ce04dfc8 <_start-0x1fd2048>
d002bda4:	aaaaa8aa 	bge	cead6054 <_start-0x1549fbc>
d002bda8:	aaaaaaaa 	bge	cead6858 <_start-0x15497b8>
d002bdac:	a8aaaaaa 	stmiage	sl!, {r1, r3, r5, r7, r9, fp, sp, pc}
d002bdb0:	00008080 	andeq	r8, r0, r0, lsl #1
d002bdb4:	80008000 	andhi	r8, r0, r0
d002bdb8:	80808880 	addhi	r8, r0, r0, lsl #17
d002bdbc:	00abaa8a 	adceq	sl, fp, sl, lsl #21
	...
d002bdc8:	7f000000 	svcvc	0x00000000
d002bdcc:	ffffffff 	undefined instruction 0xffffffff
d002bdd0:	00f5ffff 	ldrshteq	pc, [r5], #255	; 0xff
d002bdd4:	00000000 	andeq	r0, r0, r0
d002bdd8:	d5650100 	strble	r0, [r5, #-256]!	; 0x100
d002bddc:	3f00fcff 	svccc	0x0000fcff
d002bde0:	000000fd 	strdeq	r0, [r0], -sp
	...
d002bdec:	01000000 	tsteq	r0, r0
d002bdf0:	55155501 	ldrpl	r5, [r5, #-1281]	; 0x501
d002bdf4:	555555d7 	ldrbpl	r5, [r5, #-1495]	; 0x5d7
d002bdf8:	00505555 	subseq	r5, r0, r5, asr r5
	...
d002be04:	17000000 	strne	r0, [r0, -r0]
d002be08:	0000ffff 	strdeq	pc, [r0], -pc
	...
d002be14:	aaaa0200 	bge	ceaac61c <_start-0x15739f4>
d002be18:	aaaaaaaa 	bge	cead68c8 <_start-0x1549748>
d002be1c:	a0aaaaae 	adcge	sl, sl, lr, lsr #21
d002be20:	00000000 	andeq	r0, r0, r0
d002be24:	eeabaa02 	vfma.f32	s20, s22, s4
d002be28:	aeae20ee 	cdpge	0, 10, cr2, cr14, cr14, {7}
d002be2c:	00000082 	andeq	r0, r0, r2, lsl #1
d002be30:	00200000 	eoreq	r0, r0, r0
d002be34:	02820282 	addeq	r0, r2, #536870920	; 0x20000008
d002be38:	aaaaaaa8 	bge	cead68e0 <_start-0x1549730>
d002be3c:	aaaaaaaa 	bge	cead68ec <_start-0x1549724>
d002be40:	aaaaaaaa 	bge	cead68f0 <_start-0x1549720>
d002be44:	0080aaaa 	addeq	sl, r0, sl, lsr #21
	...
d002be50:	aaaa0000 	bge	ceaabe58 <_start-0x15741b8>
d002be54:	000000aa 	andeq	r0, r0, sl, lsr #1
	...
d002be60:	dfff1f00 	svcle	0x00ff1f00
d002be64:	ffffdfff 	undefined instruction 0xffffdfff
d002be68:	000000fc 	strdeq	r0, [r0], -ip
d002be6c:	00000000 	andeq	r0, r0, r0
d002be70:	feff5f45 	cdp2	15, 15, cr5, cr15, cr5, {2}
d002be74:	00de7f00 	sbcseq	r7, lr, r0, lsl #30
	...
d002be80:	40000000 	andmi	r0, r0, r0
d002be84:	55040400 	strpl	r0, [r4, #-1024]	; 0x400
d002be88:	5ddd4544 	cfldr64pl	mvdx4, [sp, #272]	; 0x110
d002be8c:	55555545 	ldrbpl	r5, [r5, #-1349]	; 0x545
d002be90:	00000040 	andeq	r0, r0, r0, asr #32
	...
d002be9c:	dfff0f00 	svcle	0x00ff0f00
	...
d002bea8:	08000000 	stmdaeq	r0, {}
d002beac:	aaaabaab 	bge	ceada960 <_start-0x15456b0>
d002beb0:	aabbbbaa 	bge	cef1ad60 <_start-0x11052b0>
d002beb4:	008088aa 	addeq	r8, r0, sl, lsr #17
d002beb8:	aa080000 	bge	d022bec0 <bss_end+0x1f68f0>
d002bebc:	80bbaaba 	ldrhthi	sl, [fp], sl
d002bec0:	8888fe2b 	stmhi	r8, {r0, r1, r3, r5, r9, sl, fp, ip, sp, lr, pc}
d002bec4:	88080888 	stmdahi	r8, {r3, r7, fp}
d002bec8:	88888808 	stmhi	r8, {r3, fp, pc}
d002becc:	8aa88888 	bhi	cea4e0f4 <_start-0x15d1f1c>
d002bed0:	aaaaaa8a 	bge	cead6900 <_start-0x1549710>
d002bed4:	aaaaaaaa 	bge	cead6984 <_start-0x154968c>
d002bed8:	aaaaaaaa 	bge	cead6988 <_start-0x1549688>
d002bedc:	00000088 	andeq	r0, r0, r8, lsl #1
d002bee0:	00000000 	andeq	r0, r0, r0
d002bee4:	08000000 	stmdaeq	r0, {}
d002bee8:	00aabaaa 	adceq	fp, sl, sl, lsr #21
	...
d002bef4:	1f000000 	svcne	0x00000000
d002bef8:	ffffffff 	undefined instruction 0xffffffff
d002befc:	10fdffff 	ldrshtne	pc, [sp], #255	; 0xff
d002bf00:	00000000 	andeq	r0, r0, r0
d002bf04:	71350000 	teqvc	r5, r0
d002bf08:	00c059ff 	strdeq	r5, [r0], #159	; 0x9f
d002bf0c:	0000001d 	andeq	r0, r0, sp, lsl r0
	...
d002bf18:	01000000 	tsteq	r0, r0
d002bf1c:	55111511 	ldrpl	r1, [r1, #-1297]	; 0x511
d002bf20:	55555555 	ldrbpl	r5, [r5, #-1365]	; 0x555
d002bf24:	00505555 	subseq	r5, r0, r5, asr r5
	...
d002bf30:	5f000000 	svcpl	0x00000000
d002bf34:	0000ffff 	strdeq	pc, [r0], -pc
	...
d002bf40:	aa2a0000 	bge	d0aabf48 <bss_end+0xa76978>
d002bf44:	aaaaaaaa 	bge	cead69f4 <_start-0x154961c>
d002bf48:	00aaaaaa 	adceq	sl, sl, sl, lsr #21
d002bf4c:	00000000 	andeq	r0, r0, r0
d002bf50:	aeaaaa02 	vfmage.f32	s20, s20, s4
d002bf54:	00a0aaea 	adceq	sl, r0, sl, ror #21
d002bf58:	00000000 	andeq	r0, r0, r0
d002bf5c:	80200020 	eorhi	r0, r0, r0, lsr #32
d002bf60:	8002000a 	andhi	r0, r2, sl
d002bf64:	aaaaa222 	bge	cead47f4 <_start-0x154b81c>
d002bf68:	aaaaaaaa 	bge	cead6a18 <_start-0x15495f8>
d002bf6c:	aaaaaaaa 	bge	cead6a1c <_start-0x15495f4>
d002bf70:	0000aaaa 	andeq	sl, r0, sl, lsr #21
	...
d002bf7c:	aaaa0200 	bge	ceaac784 <_start-0x157388c>
d002bf80:	000000aa 	andeq	r0, r0, sl, lsr #1
	...
d002bf8c:	dffd0700 	svcle	0x00fd0700
d002bf90:	ffffddfd 	undefined instruction 0xffffddfd
d002bf94:	0000c0fd 	strdeq	ip, [r0], -sp
d002bf98:	00000000 	andeq	r0, r0, r0
d002bf9c:	ffddd94d 	undefined instruction 0xffddd94d
d002bfa0:	00004004 	andeq	r4, r0, r4
	...
d002bfb0:	44000000 	strmi	r0, [r0]
d002bfb4:	d4544544 	ldrble	r4, [r4], #-1348	; 0x544
d002bfb8:	54d4d555 	ldrbpl	sp, [r4], #1365	; 0x555
d002bfbc:	00000040 	andeq	r0, r0, r0, asr #32
	...
d002bfc8:	fffddf00 	undefined instruction 0xfffddf00
d002bfcc:	00800080 	addeq	r0, r0, r0, lsl #1
d002bfd0:	00000080 	andeq	r0, r0, r0, lsl #1
d002bfd4:	00000000 	andeq	r0, r0, r0
d002bfd8:	aaabaa8b 	bge	ceb16a0c <_start-0x1509604>
d002bfdc:	aaababaa 	bge	ceb16e8c <_start-0x1509184>
d002bfe0:	008088a8 	addeq	r8, r0, r8, lsr #17
d002bfe4:	aa808080 	bge	ce04c1ec <_start-0x1fd3e24>
d002bfe8:	a8fbabab 	ldmge	fp!, {r0, r1, r3, r5, r7, r8, r9, fp, sp, pc}^
d002bfec:	0800a8aa 	stmdaeq	r0, {r1, r3, r5, r7, fp, sp, pc}
d002bff0:	80888880 	addhi	r8, r8, r0, lsl #17
d002bff4:	80808888 	addhi	r8, r0, r8, lsl #17
d002bff8:	88888888 	stmhi	r8, {r3, r7, fp, pc}
d002bffc:	aaaaaa88 	bge	cead6a24 <_start-0x15495ec>
d002c000:	aaaaaaaa 	bge	cead6ab0 <_start-0x1549560>
d002c004:	a8aaaaaa 	stmiage	sl!, {r1, r3, r5, r7, r9, fp, sp, pc}
d002c008:	00800080 	addeq	r0, r0, r0, lsl #1
d002c00c:	00000000 	andeq	r0, r0, r0
d002c010:	8a800000 	bhi	ce02c018 <_start-0x1ff3ff8>
d002c014:	00abaaab 	adceq	sl, fp, fp, lsr #21
	...
d002c020:	07000000 	streq	r0, [r0, -r0]
d002c024:	ffffffff 	undefined instruction 0xffffffff
d002c028:	50ffffff 	ldrshtpl	pc, [pc, #255]	; d002c12f <gImage_pic+0x9763>
d002c02c:	00000000 	andeq	r0, r0, r0
d002c030:	d3310000 	teqle	r1, #0
d002c034:	00fcffff 	ldrshteq	pc, [ip], #255	; 0xff
d002c038:	00000011 	andeq	r0, r0, r1, lsl r0
	...
d002c044:	01000000 	tsteq	r0, r0
d002c048:	55115111 	ldrpl	r5, [r1, #-273]	; 0x111
d002c04c:	55515515 	ldrbpl	r5, [r1, #-1301]	; 0x515
d002c050:	00505555 	subseq	r5, r0, r5, asr r5
	...
d002c05c:	ff010000 	undefined instruction 0xff010000
d002c060:	0000ffff 	strdeq	pc, [r0], -pc
	...
d002c06c:	aa2a0000 	bge	d0aac074 <bss_end+0xa76aa4>
d002c070:	aaaaaaaa 	bge	cead6b20 <_start-0x15494f0>
d002c074:	a2aaaaaa 	adcge	sl, sl, #696320	; 0xaa000
d002c078:	00000000 	andeq	r0, r0, r0
d002c07c:	a2a2aa02 	adcge	sl, r2, #8192	; 0x2000
d002c080:	02a0aeaa 	adceq	sl, r0, #2720	; 0xaa0
d002c084:	020000a0 	andeq	r0, r0, #160	; 0xa0
d002c088:	00800000 	addeq	r0, r0, r0
d002c08c:	22020200 	andcs	r0, r2, #0
d002c090:	aa222802 	bge	d08b60a0 <bss_end+0x880ad0>
d002c094:	aaaaaaaa 	bge	cead6b44 <_start-0x15494cc>
d002c098:	aaaaaaaa 	bge	cead6b48 <_start-0x15494c8>
d002c09c:	0000aaaa 	andeq	sl, r0, sl, lsr #21
	...
d002c0a8:	aaaa2a00 	bge	ceab68b0 <_start-0x1569760>
d002c0ac:	000000aa 	andeq	r0, r0, sl, lsr #1
	...
d002c0b8:	dfff0500 	svcle	0x00ff0500
d002c0bc:	ffffdfff 	undefined instruction 0xffffdfff
d002c0c0:	000044fd 	strdeq	r4, [r0], -sp
d002c0c4:	00000000 	andeq	r0, r0, r0
d002c0c8:	4d7d6705 	ldclmi	7, cr6, [sp, #-20]!	; 0xffffffec
d002c0cc:	0000fffd 	strdeq	pc, [r0], -sp
	...
d002c0dc:	44040000 	strmi	r0, [r4]
d002c0e0:	44444404 	strbmi	r4, [r4], #-1028	; 0x404
d002c0e4:	45d55d45 	ldrbmi	r5, [r5, #3397]	; 0xd45
d002c0e8:	00000044 	andeq	r0, r0, r4, asr #32
	...
d002c0f4:	dfffff05 	svcle	0x00ffff05
	...
d002c104:	baaaba0a 	blt	ceada934 <_start-0x15456dc>
d002c108:	aaaaaaaa 	bge	cead6bb8 <_start-0x1549458>
d002c10c:	008088aa 	addeq	r8, r0, sl, lsr #17
d002c110:	aa880008 	bge	ce22c138 <_start-0x1df3ed8>
d002c114:	aaaafeaa 	bge	ceaebbc4 <_start-0x153444c>
d002c118:	8800e8af 	stmdahi	r0, {r0, r1, r2, r3, r5, r7, fp, sp, lr, pc}
d002c11c:	80088800 	andhi	r8, r8, r0, lsl #16
d002c120:	88880008 	stmhi	r8, {r3}
d002c124:	88888888 	stmhi	r8, {r3, r7, fp, pc}
d002c128:	aaaaaa88 	bge	cead6b50 <_start-0x15494c0>
d002c12c:	aaaaaaaa 	bge	cead6bdc <_start-0x1549434>
d002c130:	aaaaaaaa 	bge	cead6be0 <_start-0x1549430>
d002c134:	00000080 	andeq	r0, r0, r0, lsl #1
d002c138:	00000000 	andeq	r0, r0, r0
d002c13c:	aa080000 	bge	d022c144 <bss_end+0x1f6b74>
d002c140:	00abaabb 	strheq	sl, [fp], fp
	...
d002c14c:	01000000 	tsteq	r0, r0
d002c150:	ffffff7f 	undefined instruction 0xffffff7f
d002c154:	55f5ffff 	ldrbpl	pc, [r5, #4095]!	; 0xfff
d002c158:	00000000 	andeq	r0, r0, r0
d002c15c:	65150000 	ldrvs	r0, [r5]
d002c160:	5ff51f7c 	svcpl	0x00f51f7c
d002c164:	000000fc 	strdeq	r0, [r0], -ip
	...
d002c170:	01000000 	tsteq	r0, r0
d002c174:	51011100 	tstpl	r1, r0, lsl #2
d002c178:	55150011 	ldrpl	r0, [r5, #-17]
d002c17c:	00505555 	subseq	r5, r0, r5, asr r5
	...
d002c188:	ff170000 	undefined instruction 0xff170000
d002c18c:	0000ffff 	strdeq	pc, [r0], -pc
	...
d002c198:	aa020000 	bge	d00ac1a0 <bss_end+0x76bd0>
d002c19c:	aaaaeaaa 	bge	ceae6c4c <_start-0x15393c4>
d002c1a0:	a8aaaaaa 	stmiage	sl!, {r1, r3, r5, r7, r9, fp, sp, pc}
d002c1a4:	00000000 	andeq	r0, r0, r0
d002c1a8:	beaaaa02 	vfmalt.f32	s20, s20, s4
d002c1ac:	aaba82ea 	bge	ceeccd5c <_start-0x11532b4>
	...
d002c1b8:	00800000 	addeq	r0, r0, r0
d002c1bc:	aaaa20a0 	bge	ceab4444 <_start-0x156bbcc>
d002c1c0:	aaaaaaaa 	bge	cead6c70 <_start-0x15493a0>
d002c1c4:	aaaaaaaa 	bge	cead6c74 <_start-0x154939c>
d002c1c8:	0000aaaa 	andeq	sl, r0, sl, lsr #21
	...
d002c1d4:	aaaaaa00 	bge	cead69dc <_start-0x1549634>
d002c1d8:	000000aa 	andeq	r0, r0, sl, lsr #1
	...
d002c1e4:	df5f0000 	svcle	0x005f0000
d002c1e8:	ddddfdff 	ldclle	13, cr15, [sp, #1020]	; 0x3fc
d002c1ec:	004054dd 	ldrdeq	r5, [r0], #-77	; 0xffffffb3
d002c1f0:	00000000 	andeq	r0, r0, r0
d002c1f4:	c01fcd15 	andsgt	ip, pc, r5, lsl sp
d002c1f8:	00dc3f00 	sbcseq	r3, ip, r0, lsl #30
	...
d002c20c:	00004400 	andeq	r4, r0, r0, lsl #8
d002c210:	44d55500 	ldrbmi	r5, [r5], #1280	; 0x500
d002c214:	00000040 	andeq	r0, r0, r0, asr #32
	...
d002c220:	fffdff5d 	undefined instruction 0xfffdff5d
	...
d002c230:	bbabab88 	bllt	ceb17058 <_start-0x1508fb8>
d002c234:	aaaaaaaa 	bge	cead6ce4 <_start-0x154932c>
d002c238:	8080a8aa 	addhi	sl, r0, sl, lsr #17
d002c23c:	aa820080 	bge	ce0ac444 <_start-0x1f73bcc>
d002c240:	88008e8a 	stmdahi	r0, {r1, r3, r7, r9, sl, fp, pc}
d002c244:	8088a82b 	addhi	sl, r8, fp, lsr #16
d002c248:	80808000 	addhi	r8, r0, r0
d002c24c:	88808080 	stmhi	r0, {r7, pc}
d002c250:	aaa82080 	bge	cea34458 <_start-0x15ebbb8>
d002c254:	aaa8aaaa 	bge	cea56d04 <_start-0x15c930c>
d002c258:	aa88a8aa 	bge	ce256508 <_start-0x1dc9b08>
d002c25c:	aaaaaaaa 	bge	cead6d0c <_start-0x1549304>
d002c260:	80000080 	andhi	r0, r0, r0, lsl #1
d002c264:	00000000 	andeq	r0, r0, r0
d002c268:	aa888000 	bge	ce24c270 <_start-0x1dd3da0>
d002c26c:	00abaabb 	strheq	sl, [fp], fp
	...
d002c27c:	ffffff1f 	undefined instruction 0xffffff1f
d002c280:	55f5ffff 	ldrbpl	pc, [r5, #4095]!	; 0xfff
d002c284:	00000000 	andeq	r0, r0, r0
d002c288:	d1350000 	teqle	r5, r0
d002c28c:	7f000038 	svcvc	0x00000038
d002c290:	000000fc 	strdeq	r0, [r0], -ip
	...
d002c29c:	41100000 	tstmi	r0, r0
d002c2a0:	01000011 	tsteq	r0, r1, lsl r0
d002c2a4:	55010000 	strpl	r0, [r1]
d002c2a8:	00505555 	subseq	r5, r0, r5, asr r5
	...
d002c2b4:	ff7f0100 	undefined instruction 0xff7f0100
d002c2b8:	0000ffff 	strdeq	pc, [r0], -pc
	...
d002c2c4:	2a020000 	bcs	d00ac2cc <bss_end+0x76cfc>
d002c2c8:	aaaaeeaa 	bge	ceae7d78 <_start-0x1538298>
d002c2cc:	aaaaaaaa 	bge	cead6d7c <_start-0x1549294>
d002c2d0:	00000000 	andeq	r0, r0, r0
d002c2d4:	e08aaa00 	add	sl, sl, r0, lsl #20
d002c2d8:	aaea0000 	bge	cfaac2e0 <_start-0x573d30>
d002c2dc:	00000002 	andeq	r0, r0, r2
d002c2e0:	00020200 	andeq	r0, r2, r0, lsl #4
d002c2e4:	82000200 	andhi	r0, r0, #0
d002c2e8:	aaaaaaaa 	bge	cead6d98 <_start-0x1549278>
d002c2ec:	a2aaaaa2 	adcge	sl, sl, #663552	; 0xa2000
d002c2f0:	aaaaaaaa 	bge	cead6da0 <_start-0x1549270>
d002c2f4:	0000aaaa 	andeq	sl, r0, sl, lsr #21
	...
d002c300:	aaaaaa02 	bge	cead6b10 <_start-0x1549500>
d002c304:	000000aa 	andeq	r0, r0, sl, lsr #1
	...
d002c310:	ff070000 	undefined instruction 0xff070000
d002c314:	dddddfff 	ldclle	15, cr13, [sp, #1020]	; 0x3fc
d002c318:	000044d5 	ldrdeq	r4, [r0], -r5
d002c31c:	00000000 	andeq	r0, r0, r0
d002c320:	00c0d405 	sbceq	sp, r0, r5, lsl #8
d002c324:	00e0ff00 	rsceq	pc, r0, r0, lsl #30
	...
d002c330:	04000000 	streq	r0, [r0]
d002c334:	00040000 	andeq	r0, r4, r0
d002c338:	00000000 	andeq	r0, r0, r0
d002c33c:	45550500 	ldrbmi	r0, [r5, #-1280]	; 0x500
d002c340:	00000044 	andeq	r0, r0, r4, asr #32
d002c344:	00000000 	andeq	r0, r0, r0
d002c348:	05000000 	streq	r0, [r0]
d002c34c:	ffffffdf 	undefined instruction 0xffffffdf
	...
d002c35c:	baab8a00 	blt	ceb0eb64 <_start-0x15114ac>
d002c360:	aaaaaaaa 	bge	cead6e10 <_start-0x1549200>
d002c364:	0088aaaa 	addeq	sl, r8, sl, lsr #21
d002c368:	8a080000 	bhi	d022c370 <bss_end+0x1f6da0>
d002c36c:	0008888b 	andeq	r8, r8, fp, lsl #17
d002c370:	880888aa 	stmdahi	r8, {r1, r3, r5, r7, fp, pc}
d002c374:	08080088 	stmdaeq	r8, {r3, r7}
d002c378:	80888808 	addhi	r8, r8, r8, lsl #16
d002c37c:	8a8a8888 	bhi	ce2ce5a4 <_start-0x1d51a6c>
d002c380:	8aa8aaaa 	bhi	cea56e30 <_start-0x15c91e0>
d002c384:	8a888a8a 	bhi	ce24edb4 <_start-0x1dd125c>
d002c388:	aaaaaaaa 	bge	cead6e38 <_start-0x15491d8>
d002c38c:	00000080 	andeq	r0, r0, r0, lsl #1
d002c390:	00000000 	andeq	r0, r0, r0
d002c394:	aa8a0800 	bge	ce2ae39c <_start-0x1d71c74>
d002c398:	00bbbabb 	ldrhteq	fp, [fp], fp
	...
d002c3a8:	ffffff01 	undefined instruction 0xffffff01
d002c3ac:	11557fff 	ldrshne	r7, [r5, #-255]	; 0xffffff01
d002c3b0:	00000050 	andeq	r0, r0, r0, asr r0
d002c3b4:	13150000 	tstne	r5, #0
d002c3b8:	d0000000 	andle	r0, r0, r0
	...
d002c3c8:	11100000 	tstne	r0, r0
d002c3cc:	00001010 	andeq	r1, r0, r0, lsl r0
d002c3d0:	15000000 	strne	r0, [r0]
d002c3d4:	00105515 	andseq	r5, r0, r5, lsl r5
	...
d002c3e0:	ffff1700 	undefined instruction 0xffff1700
d002c3e4:	0000ffff 	strdeq	pc, [r0], -pc
	...
d002c3f0:	02000000 	andeq	r0, r0, #0
d002c3f4:	aaaaaaaa 	bge	cead6ea4 <_start-0x154916c>
d002c3f8:	aaaaaaaa 	bge	cead6ea8 <_start-0x1549168>
d002c3fc:	000000a0 	andeq	r0, r0, r0, lsr #1
d002c400:	a0aaaa02 	adcge	sl, sl, r2, lsl #20
d002c404:	a8ea0020 	stmiage	sl!, {r5}^
d002c408:	00200020 	eoreq	r0, r0, r0, lsr #32
d002c40c:	00200000 	eoreq	r0, r0, r0
d002c410:	22220000 	eorcs	r0, r2, #0
d002c414:	aaaa2aaa 	bge	ceab6ec4 <_start-0x156914c>
d002c418:	aa2aa2aa 	bge	d0ad4ec8 <bss_end+0xa9f8f8>
d002c41c:	aaaa2aaa 	bge	ceab6ecc <_start-0x1569144>
d002c420:	0000aaaa 	andeq	sl, r0, sl, lsr #21
	...
d002c42c:	aaaaaa2a 	bge	cead6cdc <_start-0x1549334>
d002c430:	000000aa 	andeq	r0, r0, sl, lsr #1
	...
d002c43c:	fd000000 	stc2	0, cr0, [r0]
d002c440:	ddddddfd 	ldclle	13, cr13, [sp, #1012]	; 0x3f4
d002c444:	40fd5d44 	rscsmi	r5, sp, r4, asr #26
d002c448:	00000000 	andeq	r0, r0, r0
d002c44c:	00009440 	andeq	r9, r0, r0, asr #8
d002c450:	00c07d00 	sbceq	r7, r0, r0, lsl #26
	...
d002c460:	00004000 	andeq	r4, r0, r0
d002c464:	00000000 	andeq	r0, r0, r0
d002c468:	44440000 	strbmi	r0, [r4]
d002c46c:	00000044 	andeq	r0, r0, r4, asr #32
d002c470:	00000000 	andeq	r0, r0, r0
d002c474:	5d000000 	stcpl	0, cr0, [r0]
d002c478:	fffdfffd 	undefined instruction 0xfffdfffd
	...
d002c488:	aaaa8880 	bge	ceace690 <_start-0x1551980>
d002c48c:	aaaaaaaa 	bge	cead6f3c <_start-0x15490d4>
d002c490:	80a8baab 	adchi	fp, r8, fp, lsr #21
d002c494:	2a000000 	bcs	d002c49c <gImage_pic+0x9ad0>
d002c498:	888888aa 	stmhi	r8, {r1, r3, r5, r7, fp, pc}
d002c49c:	8888e0ab 	stmhi	r8, {r0, r1, r3, r5, r7, sp, lr, pc}
d002c4a0:	88008080 	stmdahi	r0, {r7, pc}
d002c4a4:	88888888 	stmhi	r8, {r3, r7, fp, pc}
d002c4a8:	a8888088 	stmge	r8, {r3, r7, pc}
d002c4ac:	a8888888 	stmge	r8, {r3, r7, fp, pc}
d002c4b0:	a8aaaaa8 	stmiage	sl!, {r3, r5, r7, r9, fp, sp, pc}
d002c4b4:	aaaaaaaa 	bge	cead6f64 <_start-0x15490ac>
d002c4b8:	00000080 	andeq	r0, r0, r0, lsl #1
d002c4bc:	00800000 	addeq	r0, r0, r0
d002c4c0:	abaa8880 	blge	ceace6c8 <_start-0x1551948>
d002c4c4:	00abbaab 	adceq	fp, fp, fp, lsr #21
	...
d002c4d4:	ffff1700 	undefined instruction 0xffff1700
d002c4d8:	ff15f5f7 	undefined instruction 0xff15f5f7
d002c4dc:	0000f0ff 	strdeq	pc, [r0], -pc
d002c4e0:	0d070000 	stceq	0, cr0, [r7]
d002c4e4:	01000000 	tsteq	r0, r0
d002c4e8:	00000050 	andeq	r0, r0, r0, asr r0
	...
d002c4f4:	00000100 	andeq	r0, r0, r0, lsl #2
d002c4f8:	01000000 	tsteq	r0, r0
d002c4fc:	01004011 	tsteq	r0, r1, lsl r0
d002c500:	00101111 	andseq	r1, r0, r1, lsl r1
	...
d002c50c:	ffff7f01 	undefined instruction 0xffff7f01
d002c510:	0000ffff 	strdeq	pc, [r0], -pc
	...
d002c51c:	02000000 	andeq	r0, r0, #0
d002c520:	aaaaaaaa 	bge	cead6fd0 <_start-0x1549040>
d002c524:	eeaeaaaa 	vfma.f32	s20, s29, s21
d002c528:	000080aa 	andeq	r8, r0, sl, lsr #1
d002c52c:	82a80800 	adchi	r0, r8, #0
d002c530:	02020020 	andeq	r0, r2, #32
d002c534:	00000000 	andeq	r0, r0, r0
d002c538:	aaaa0a02 	bge	ceaaed48 <_start-0x15712c8>
d002c53c:	02000082 	andeq	r0, r0, #130	; 0x82
d002c540:	a2aa8a2a 	adcge	r8, sl, #172032	; 0x2a000
d002c544:	aaaa2aa2 	bge	ceab6fd4 <_start-0x156903c>
d002c548:	aaaaaaaa 	bge	cead6ff8 <_start-0x1549018>
d002c54c:	0000aaaa 	andeq	sl, r0, sl, lsr #21
d002c550:	00000000 	andeq	r0, r0, r0
d002c554:	02000000 	andeq	r0, r0, #0
d002c558:	aaaaaaaa 	bge	cead7008 <_start-0x1549008>
d002c55c:	000000ae 	andeq	r0, r0, lr, lsr #1
	...
d002c568:	05000000 	streq	r0, [r0]
d002c56c:	d4dddddf 	ldrble	sp, [sp], #3551	; 0xddf
d002c570:	fdffff5f 	ldc2l	15, cr15, [pc, #380]!	; 0x17c
d002c574:	00000000 	andeq	r0, r0, r0
d002c578:	00000801 	andeq	r0, r0, r1, lsl #16
	...
d002c584:	00400400 	subeq	r0, r0, r0, lsl #8
d002c588:	00000000 	andeq	r0, r0, r0
d002c58c:	00000018 	andeq	r0, r0, r8, lsl r0
d002c590:	40040400 	andmi	r0, r4, r0, lsl #8
d002c594:	40000000 	andmi	r0, r0, r0
d002c598:	00000044 	andeq	r0, r0, r4, asr #32
d002c59c:	00000000 	andeq	r0, r0, r0
d002c5a0:	df010000 	svcle	0x00010000
d002c5a4:	ffffffdf 	undefined instruction 0xffffffdf
	...
d002c5b4:	aa8a0800 	bge	ce2ae5bc <_start-0x1d71a54>
d002c5b8:	abaaaaaa 	blge	cead7068 <_start-0x1548fa8>
d002c5bc:	a8babbbb 	ldmge	sl!, {r0, r1, r3, r4, r5, r7, r8, r9, fp, ip, sp, pc}
d002c5c0:	0a000000 	beq	d002c5c8 <gImage_pic+0x9bfc>
d002c5c4:	8888a088 	stmhi	r8, {r3, r7, sp, pc}
d002c5c8:	08088888 	stmdaeq	r8, {r3, r7, fp, pc}
d002c5cc:	aa828888 	bge	ce0ce7f4 <_start-0x1f5181c>
d002c5d0:	88a8aaaa 	stmiahi	r8!, {r1, r3, r5, r7, r9, fp, sp, pc}
d002c5d4:	aaaa0008 	bge	ceaac5fc <_start-0x1573a14>
d002c5d8:	8a888888 	bhi	ce24e800 <_start-0x1dd1810>
d002c5dc:	8aaaaaaa 	bhi	cead708c <_start-0x1548f84>
d002c5e0:	aaaaaa8a 	bge	cead7010 <_start-0x1549000>
d002c5e4:	00000080 	andeq	r0, r0, r0, lsl #1
d002c5e8:	00000000 	andeq	r0, r0, r0
d002c5ec:	abaa8a08 	blge	ceacee14 <_start-0x15511fc>
d002c5f0:	00bbbaaa 	adcseq	fp, fp, sl, lsr #21
	...
d002c600:	ff5f0100 	undefined instruction 0xff5f0100
d002c604:	ff7f5577 	undefined instruction 0xff7f5577
d002c608:	00d0ffff 	ldrsheq	pc, [r0], #255	; 0xff
d002c60c:	18000000 	stmdane	r0, {}
d002c610:	00000010 	andeq	r0, r0, r0, lsl r0
d002c614:	00000000 	andeq	r0, r0, r0
d002c618:	7f150100 	svcvc	0x00150100
d002c61c:	000000ff 	strdeq	r0, [r0], -pc
d002c620:	00001100 	andeq	r1, r0, r0, lsl #2
d002c624:	11000000 	tstne	r0, r0
d002c628:	00001011 	andeq	r1, r0, r1, lsl r0
d002c62c:	00141111 	andseq	r1, r4, r1, lsl r1
	...
d002c638:	ffffff07 	undefined instruction 0xffffff07
d002c63c:	0000ffff 	strdeq	pc, [r0], -pc
	...
d002c64c:	aaaaaa02 	bge	cead6e5c <_start-0x15491b4>
d002c650:	eeeaaaaa 	vfma.f32	s21, s21, s21
d002c654:	0000aaee 	andeq	sl, r0, lr, ror #21
d002c658:	2a880200 	bcs	ce22ce60 <_start-0x1df31b0>
d002c65c:	20200000 	eorcs	r0, r0, r0
d002c660:	20000000 	andcs	r0, r0, r0
d002c664:	eaaaaa02 	b	cead6e74 <_start-0x154919c>
d002c668:	200000aa 	andcs	r0, r0, sl, lsr #1
d002c66c:	20a0aa02 	adccs	sl, r0, r2, lsl #20
d002c670:	aaaaaa2a 	bge	cead6f20 <_start-0x15490f0>
d002c674:	aaaa2aaa 	bge	ceab7124 <_start-0x1568eec>
d002c678:	0000aaaa 	andeq	sl, r0, sl, lsr #21
d002c67c:	00000000 	andeq	r0, r0, r0
d002c680:	2a000000 	bcs	d002c688 <gImage_pic+0x9cbc>
d002c684:	aaaaaaaa 	bge	cead7134 <_start-0x1548edc>
d002c688:	000000aa 	andeq	r0, r0, sl, lsr #1
	...
d002c698:	ddd5dd05 	ldclle	13, cr13, [r5, #20]
d002c69c:	ffffffff 	undefined instruction 0xffffffff
d002c6a0:	000000fc 	strdeq	r0, [r0], -ip
d002c6a4:	00000c01 	andeq	r0, r0, r1, lsl #24
	...
d002c6b0:	c0ffff55 	rscsgt	pc, pc, r5, asr pc
d002c6b4:	08000000 	stmdaeq	r0, {}
d002c6b8:	00000000 	andeq	r0, r0, r0
d002c6bc:	04440000 	strbeq	r0, [r4]
d002c6c0:	00000000 	andeq	r0, r0, r0
d002c6c4:	00000044 	andeq	r0, r0, r4, asr #32
d002c6c8:	00000000 	andeq	r0, r0, r0
d002c6cc:	ff1d0000 	undefined instruction 0xff1d0000
d002c6d0:	ffffffff 	undefined instruction 0xffffffff
d002c6d4:	00000000 	andeq	r0, r0, r0
d002c6d8:	80000000 	andhi	r0, r0, r0
d002c6dc:	00000000 	andeq	r0, r0, r0
d002c6e0:	8a000000 	bhi	d002c6e8 <gImage_pic+0x9d1c>
d002c6e4:	bbabaaaa 	bllt	ceb17194 <_start-0x1508e7c>
d002c6e8:	fafbfbbb 	blx	cff2b5dc <_start-0xf4a34>
d002c6ec:	aa000088 	bge	d002c914 <gImage_pic+0x9f48>
d002c6f0:	08888888 	stmeq	r8, {r3, r7, fp, pc}
d002c6f4:	88a88a88 	stmiahi	r8!, {r3, r7, r9, fp, pc}
d002c6f8:	ab088880 	blge	d024e900 <bss_end+0x219330>
d002c6fc:	80aaabab 	adchi	sl, sl, fp, lsr #23
d002c700:	8a888080 	bhi	ce24c908 <_start-0x1dd3708>
d002c704:	aa888828 	bge	ce24e7ac <_start-0x1dd1864>
d002c708:	88aaaaaa 	stmiahi	sl!, {r1, r3, r5, r7, r9, fp, sp, pc}
d002c70c:	aaaaaa88 	bge	cead7134 <_start-0x1548edc>
d002c710:	00008080 	andeq	r8, r0, r0, lsl #1
d002c714:	80000000 	andhi	r0, r0, r0
d002c718:	ababaa88 	blge	ceb17140 <_start-0x1508ed0>
d002c71c:	00ababab 	adceq	sl, fp, fp, lsr #23
	...
d002c72c:	55010000 	strpl	r0, [r1]
d002c730:	ffffff57 	undefined instruction 0xffffff57
d002c734:	40ffffff 	ldrshtmi	pc, [pc, #255]	; d002c83b <gImage_pic+0x9e6f>
d002c738:	5c040000 	stcpl	0, cr0, [r4], {0}
d002c73c:	00000040 	andeq	r0, r0, r0, asr #32
d002c740:	00000011 	andeq	r0, r0, r1, lsl r0
d002c744:	ff571100 	undefined instruction 0xff571100
d002c748:	0000f1ff 	strdeq	pc, [r0], -pc
d002c74c:	00000400 	andeq	r0, r0, r0, lsl #8
d002c750:	01000000 	tsteq	r0, r0
d002c754:	00000111 	andeq	r0, r0, r1, lsl r1
d002c758:	00100101 	andseq	r0, r0, r1, lsl #2
	...
d002c764:	ffffff7f 	undefined instruction 0xffffff7f
d002c768:	0000ffff 	strdeq	pc, [r0], -pc
	...
d002c778:	aaaa0200 	bge	ceaacf80 <_start-0x1573090>
d002c77c:	eeeeeeae 	cdp	14, 14, cr14, cr14, cr14, {5}
d002c780:	00aaeeee 	adceq	lr, sl, lr, ror #29
d002c784:	228a2800 	addcs	r2, sl, #0
d002c788:	aa00a022 	bge	d0054818 <bss_end+0x1f248>
d002c78c:	00a0a282 	adceq	sl, r0, r2, lsl #5
d002c790:	aaaaaa02 	bge	cead6fa0 <_start-0x1549070>
d002c794:	0202a0ea 	andeq	sl, r2, #234	; 0xea
d002c798:	02a2a822 	adceq	sl, r2, #2228224	; 0x220000
d002c79c:	aaaaaa22 	bge	cead702c <_start-0x1548fe4>
d002c7a0:	aaaaaaaa 	bge	cead7250 <_start-0x1548dc0>
d002c7a4:	0000aaaa 	andeq	sl, r0, sl, lsr #21
d002c7a8:	00000000 	andeq	r0, r0, r0
d002c7ac:	aa020000 	bge	d00ac7b4 <bss_end+0x771e4>
d002c7b0:	aaaaaaaa 	bge	cead7260 <_start-0x1548db0>
d002c7b4:	000000ae 	andeq	r0, r0, lr, lsr #1
	...
d002c7c4:	ffdf0500 	undefined instruction 0xffdf0500
d002c7c8:	ffffffff 	undefined instruction 0xffffffff
d002c7cc:	0000fcff 	strdeq	pc, [r0], -pc
d002c7d0:	00000c00 	andeq	r0, r0, r0, lsl #24
d002c7d4:	00000000 	andeq	r0, r0, r0
d002c7d8:	01000000 	tsteq	r0, r0
d002c7dc:	fcffffdf 	ldc2l	15, cr15, [pc], #892	; 0x37c
d002c7e0:	00000000 	andeq	r0, r0, r0
d002c7e4:	0000c004 	andeq	ip, r0, r4
d002c7e8:	04040000 	streq	r0, [r4]
d002c7ec:	00000000 	andeq	r0, r0, r0
d002c7f0:	00000044 	andeq	r0, r0, r4, asr #32
d002c7f4:	00000000 	andeq	r0, r0, r0
d002c7f8:	ffdf0100 	undefined instruction 0xffdf0100
d002c7fc:	ffffffff 	undefined instruction 0xffffffff
	...
d002c80c:	8a080000 	bhi	d022c814 <bss_end+0x1f7244>
d002c810:	bbbbbbaa 	bllt	cef1b6c0 <_start-0x1104950>
d002c814:	ffbfbbbb 	undefined instruction 0xffbfbbbb
d002c818:	800088ba 	strhhi	r8, [r0], -sl
d002c81c:	8a8a088a 	bhi	ce2aea4c <_start-0x1d715c4>
d002c820:	88aa0a8a 	stmiahi	sl!, {r1, r3, r7, r9, fp}
d002c824:	aa028880 	bge	d00cea2c <bss_end+0x9945c>
d002c828:	a8baabba 	ldmge	sl!, {r1, r3, r4, r5, r7, r8, r9, fp, sp, pc}
d002c82c:	288a8888 	stmcs	sl, {r3, r7, fp, pc}
d002c830:	8a88a888 	bhi	ce256a58 <_start-0x1dc95b8>
d002c834:	8aaaaaaa 	bhi	cead72e4 <_start-0x1548d2c>
d002c838:	aaaa8a8a 	bge	ceacf268 <_start-0x1550da8>
d002c83c:	00000080 	andeq	r0, r0, r0, lsl #1
d002c840:	08080000 	stmdaeq	r8, {}
d002c844:	abaaaa8a 	blge	cead7274 <_start-0x1548d9c>
d002c848:	00bbabab 	adcseq	sl, fp, fp, lsr #23
	...
d002c858:	57010000 	strpl	r0, [r1, -r0]
d002c85c:	ffffffff 	undefined instruction 0xffffffff
d002c860:	ffffffff 	undefined instruction 0xffffffff
d002c864:	17000000 	strne	r0, [r0, -r0]
d002c868:	00010100 	andeq	r0, r1, r0, lsl #2
d002c86c:	00000000 	andeq	r0, r0, r0
d002c870:	ff750300 	undefined instruction 0xff750300
d002c874:	0000ffff 	strdeq	pc, [r0], -pc
d002c878:	10100000 	andsne	r0, r0, r0
d002c87c:	10000000 	andne	r0, r0, r0
d002c880:	00001010 	andeq	r1, r0, r0, lsl r0
d002c884:	00101100 	andseq	r1, r0, r0, lsl #2
d002c888:	00000000 	andeq	r0, r0, r0
d002c88c:	07000000 	streq	r0, [r0, -r0]
d002c890:	ffffffff 	undefined instruction 0xffffffff
d002c894:	0000ffff 	strdeq	pc, [r0], -pc
	...
d002c8a4:	aaaa2a00 	bge	ceab70ac <_start-0x1568f64>
d002c8a8:	eeeeeaee 	vfms.f32	s29, s29, s29
d002c8ac:	a8eeeeee 	stmiage	lr!, {r1, r2, r3, r5, r6, r7, r9, sl, fp, sp, lr, pc}^
d002c8b0:	82220000 	eorhi	r0, r2, #0
d002c8b4:	0202aa20 	andeq	sl, r2, #131072	; 0x20000
d002c8b8:	000082aa 	andeq	r8, r0, sl, lsr #5
d002c8bc:	aaaaaa22 	bge	cead714c <_start-0x1548ec4>
d002c8c0:	0000a0aa 	andeq	sl, r0, sl, lsr #1
d002c8c4:	a8280a20 	stmdage	r8!, {r5, r9, fp}
d002c8c8:	aaaa2aa2 	bge	ceab7358 <_start-0x1568cb8>
d002c8cc:	2a2aaaaa 	bcs	d0ad737c <bss_end+0xaa1dac>
d002c8d0:	0000aaaa 	andeq	sl, r0, sl, lsr #21
d002c8d4:	00000000 	andeq	r0, r0, r0
d002c8d8:	aa2a0000 	bge	d0aac8e0 <bss_end+0xa77310>
d002c8dc:	aaaaaaaa 	bge	cead738c <_start-0x1548c84>
d002c8e0:	000000aa 	andeq	r0, r0, sl, lsr #1
	...
d002c8f0:	ffffdf05 	undefined instruction 0xffffdf05
d002c8f4:	ffffffff 	undefined instruction 0xffffffff
d002c8f8:	00d0ffff 	ldrsheq	pc, [r0], #255	; 0xff
d002c8fc:	00c00100 	sbceq	r0, r0, r0, lsl #2
d002c900:	00000005 	andeq	r0, r0, r5
d002c904:	05000000 	streq	r0, [r0]
d002c908:	ffdfddc5 	undefined instruction 0xffdfddc5
d002c90c:	00000080 	andeq	r0, r0, r0, lsl #1
d002c910:	00800100 	addeq	r0, r0, r0, lsl #2
d002c914:	40000000 	andmi	r0, r0, r0
	...
d002c924:	fffd1d00 	undefined instruction 0xfffd1d00
d002c928:	ffffffff 	undefined instruction 0xffffffff
d002c92c:	00000080 	andeq	r0, r0, r0, lsl #1
d002c930:	00800000 	addeq	r0, r0, r0
d002c934:	00800080 	addeq	r0, r0, r0, lsl #1
d002c938:	aa880000 	bge	ce22c940 <_start-0x1df36d0>
d002c93c:	bbbbbbab 	bllt	cef1b7f0 <_start-0x1104820>
d002c940:	fbfbfbfb 	blx	cff2b936 <_start-0xf46da>
d002c944:	0080eaff 	strdeq	lr, [r0], pc
d002c948:	8aa8e088 	bhi	cea64b70 <_start-0x15bb4a0>
d002c94c:	8088a8aa 	addhi	sl, r8, sl, lsr #17
d002c950:	aa8a0088 	bge	ce2acb78 <_start-0x1d73498>
d002c954:	88aaaaaa 	stmiahi	sl!, {r1, r3, r5, r7, r9, fp, sp, pc}
d002c958:	a2888280 	addge	r8, r8, #8
d002c95c:	8888a88b 	stmhi	r8, {r0, r1, r3, r7, fp, sp, pc}
d002c960:	88a8aaaa 	stmiahi	r8!, {r1, r3, r5, r7, r9, fp, sp, pc}
d002c964:	a8aa8888 	stmiage	sl!, {r3, r7, fp, pc}
d002c968:	00000080 	andeq	r0, r0, r0, lsl #1
d002c96c:	88800000 	stmhi	r0, {}
d002c970:	abaaaaaa 	blge	cead7420 <_start-0x1548bf0>
d002c974:	00bbabab 	adcseq	sl, fp, fp, lsr #23
	...
d002c984:	ff170000 	undefined instruction 0xff170000
d002c988:	ffffffff 	undefined instruction 0xffffffff
d002c98c:	ffffffff 	undefined instruction 0xffffffff
d002c990:	000000fd 	strdeq	r0, [r0], -sp
d002c994:	00001070 	andeq	r1, r0, r0, ror r0
d002c998:	00001000 	andeq	r1, r0, r0
d002c99c:	57151101 	ldrpl	r1, [r5, -r1, lsl #2]
d002c9a0:	0040ffff 	strdeq	pc, [r0], #-255	; 0xffffff01
d002c9a4:	07001000 	streq	r1, [r0, -r0]
d002c9a8:	00000000 	andeq	r0, r0, r0
d002c9ac:	00000001 	andeq	r0, r0, r1
d002c9b0:	00100100 	andseq	r0, r0, r0, lsl #2
d002c9b4:	00000000 	andeq	r0, r0, r0
d002c9b8:	7f010000 	svcvc	0x00010000
d002c9bc:	ffffffff 	undefined instruction 0xffffffff
d002c9c0:	0000ffff 	strdeq	pc, [r0], -pc
	...
d002c9d0:	aeaeaa02 	vfmage.f32	s20, s28, s4
d002c9d4:	eeeeeeee 	cdp	14, 14, cr14, cr14, cr14, {7}
d002c9d8:	eeeeeeee 	cdp	14, 14, cr14, cr14, cr14, {7}
d002c9dc:	282200a0 	stmdacs	r2!, {r5, r7}
d002c9e0:	02aaaa0a 	adceq	sl, sl, #40960	; 0xa000
d002c9e4:	000020aa 	andeq	r2, r0, sl, lsr #1
d002c9e8:	aaaaaaa2 	bge	cead7478 <_start-0x1548b98>
d002c9ec:	0220a0aa 	eoreq	sl, r0, #170	; 0xaa
d002c9f0:	82228aa8 	eorhi	r8, r2, #688128	; 0xa8000
d002c9f4:	aaaa2282 	bge	ceab5404 <_start-0x156ac0c>
d002c9f8:	aa2aa2aa 	bge	d0ad54a8 <bss_end+0xa9fed8>
d002c9fc:	0000aaaa 	andeq	sl, r0, sl, lsr #21
d002ca00:	00000000 	andeq	r0, r0, r0
d002ca04:	aaaa0200 	bge	ceaad20c <_start-0x1572e04>
d002ca08:	aaaaaaaa 	bge	cead74b8 <_start-0x1548b58>
d002ca0c:	000000aa 	andeq	r0, r0, sl, lsr #1
	...
d002ca1c:	ffffff5f 	undefined instruction 0xffffff5f
d002ca20:	ffffffff 	undefined instruction 0xffffffff
d002ca24:	c0ffffff 	ldrshtgt	pc, [pc, #255]	; d002cb2b <gImage_pic+0xa15f>
d002ca28:	000e0000 	andeq	r0, lr, r0
d002ca2c:	04050054 	streq	r0, [r5], #-84	; 0x54
d002ca30:	c0000000 	andgt	r0, r0, r0
d002ca34:	dfdddf05 	svcle	0x00dddf05
d002ca38:	040000c0 	streq	r0, [r0], #-192	; 0xc0
d002ca3c:	00400740 	subeq	r0, r0, r0, asr #14
d002ca40:	00040000 	andeq	r0, r4, r0
	...
d002ca50:	ffffdf05 	undefined instruction 0xffffdf05
d002ca54:	ffffffff 	undefined instruction 0xffffffff
	...
d002ca64:	ab8a0800 	blge	ce2aea6c <_start-0x1d715a4>
d002ca68:	bbbbbbbb 	bllt	cef1b95c <_start-0x11046b4>
d002ca6c:	ffbfbfbb 	undefined instruction 0xffbfbfbb
d002ca70:	88a8ffff 	stmiahi	r8!, {r0, r1, r2, r3, r4, r5, r6, r7, r8, r9, sl, fp, ip, sp, lr, pc}
d002ca74:	2a88ab8a 	bcs	ce2578a4 <_start-0x1dc876c>
d002ca78:	08a0aaaa 	stmiaeq	r0!, {r1, r3, r5, r7, r9, fp, sp, pc}
d002ca7c:	aaa88a02 	bge	cea4f28c <_start-0x15d0d84>
d002ca80:	88abaaaa 	stmiahi	fp!, {r1, r3, r5, r7, r9, fp, sp, pc}
d002ca84:	28828a80 	stmcs	r2, {r7, r9, fp, pc}
d002ca88:	8a88888e 	bhi	ce24ecc8 <_start-0x1dd1348>
d002ca8c:	8aaaaa8a 	bhi	cead74bc <_start-0x1548b54>
d002ca90:	a88a8888 	stmge	sl, {r3, r7, fp, pc}
d002ca94:	00000000 	andeq	r0, r0, r0
d002ca98:	8a080000 	bhi	d022caa0 <bss_end+0x1f74d0>
d002ca9c:	bbbaaaaa 	bllt	ceed754c <_start-0x1148ac4>
d002caa0:	00bababa 	ldrhteq	fp, [sl], sl
	...
d002cab0:	ff7f0100 	undefined instruction 0xff7f0100
d002cab4:	ffffffff 	undefined instruction 0xffffffff
d002cab8:	ffffffff 	undefined instruction 0xffffffff
d002cabc:	0100f0ff 	strdeq	pc, [r0, -pc]
d002cac0:	0100e051 	qaddeq	lr, r1, r0
d002cac4:	10000050 	andne	r0, r0, r0, asr r0
d002cac8:	57151000 	ldrpl	r1, [r5, -r0]
d002cacc:	00c057f7 	strdeq	r5, [r0], #119	; 0x77
d002cad0:	1d001101 	stfnes	f1, [r0, #-4]
d002cad4:	00010000 	andeq	r0, r1, r0
d002cad8:	00000000 	andeq	r0, r0, r0
d002cadc:	00100100 	andseq	r0, r0, r0, lsl #2
d002cae0:	00000000 	andeq	r0, r0, r0
d002cae4:	ff170000 	undefined instruction 0xff170000
d002cae8:	ffffffff 	undefined instruction 0xffffffff
d002caec:	0000ffff 	strdeq	pc, [r0], -pc
	...
d002cafc:	eeeaaa2a 	vfma.f32	s21, s20, s21
d002cb00:	eeeeeeee 	cdp	14, 14, cr14, cr14, cr14, {7}
d002cb04:	eeeeeeee 	cdp	14, 14, cr14, cr14, cr14, {7}
d002cb08:	aa2aa0ea 	bge	d0ad4eb8 <bss_end+0xa9f8e8>
d002cb0c:	00080028 	andeq	r0, r8, r8, lsr #32
d002cb10:	a2a00208 	adcge	r0, r0, #-2147483648	; 0x80000000
d002cb14:	aaaaaaa8 	bge	cead75bc <_start-0x1548a54>
d002cb18:	0802a8aa 	stmdaeq	r2, {r1, r3, r5, r7, fp, sp, pc}
d002cb1c:	a22a2288 	eorge	r2, sl, #-2147483640	; 0x80000008
d002cb20:	aaaa2222 	bge	ceab53b0 <_start-0x156ac60>
d002cb24:	2aa2aaaa 	bcs	ce8d75d4 <_start-0x1748a3c>
d002cb28:	0000a8aa 	andeq	sl, r0, sl, lsr #17
d002cb2c:	00000000 	andeq	r0, r0, r0
d002cb30:	aaaaaa00 	bge	cead7338 <_start-0x1548cd8>
d002cb34:	aaaaaaaa 	bge	cead75e4 <_start-0x1548a2c>
d002cb38:	000000aa 	andeq	r0, r0, sl, lsr #1
	...
d002cb44:	05000000 	streq	r0, [r0]
d002cb48:	ffffffff 	undefined instruction 0xffffffff
d002cb4c:	ffffffff 	undefined instruction 0xffffffff
d002cb50:	fdffffff 	ldc2l	15, cr15, [pc, #1020]!	; 0x3fc
d002cb54:	0fdc0400 	svceq	0x00dc0400
d002cb58:	000000c0 	andeq	r0, r0, r0, asr #1
d002cb5c:	00000000 	andeq	r0, r0, r0
d002cb60:	d5dd5500 	ldrble	r5, [sp, #1280]	; 0x500
d002cb64:	000000c0 	andeq	r0, r0, r0, asr #1
d002cb68:	00001c00 	andeq	r1, r0, r0, lsl #24
	...
d002cb7c:	ffffff5d 	undefined instruction 0xffffff5d
d002cb80:	fffffdff 	undefined instruction 0xfffffdff
	...
d002cb90:	bbaa8800 	bllt	ceaceb98 <_start-0x1551478>
d002cb94:	fbbbbbbb 	blx	cef1ba8a <_start-0x1104586>
d002cb98:	fffbfbfb 	undefined instruction 0xfffbfbfb
d002cb9c:	a8fbfffb 	ldmge	fp!, {r0, r1, r3, r4, r5, r6, r7, r8, r9, sl, fp, ip, sp, lr, pc}^
d002cba0:	ea8baaaa 	b	ce317650 <_start-0x1d089c0>
d002cba4:	a8888880 	stmge	r8, {r7, fp, pc}
d002cba8:	8aaa88a8 	bhi	ceacee50 <_start-0x15511c0>
d002cbac:	a8aaaaaa 	stmiage	sl!, {r1, r3, r5, r7, r9, fp, sp, pc}
d002cbb0:	882820a0 	stmdahi	r8!, {r5, r7, sp}
d002cbb4:	888888ba 	stmhi	r8, {r1, r3, r4, r5, r7, fp, pc}
d002cbb8:	a888a888 	stmge	r8, {r3, r7, fp, sp, pc}
d002cbbc:	a8aa8888 	stmiage	sl!, {r3, r7, fp, pc}
d002cbc0:	80000000 	andhi	r0, r0, r0
d002cbc4:	aa888000 	bge	ce24cbcc <_start-0x1dd3444>
d002cbc8:	abababab 	blge	ceb17a7c <_start-0x1508594>
d002cbcc:	00aaaaaa 	adceq	sl, sl, sl, lsr #21
	...
d002cbdc:	ffff1700 	undefined instruction 0xffff1700
d002cbe0:	ffffffff 	undefined instruction 0xffffffff
d002cbe4:	ffffffff 	undefined instruction 0xffffffff
d002cbe8:	17d0ffff 	undefined instruction 0x17d0ffff
d002cbec:	f7ff07fc 	undefined instruction 0xf7ff07fc
d002cbf0:	01017555 	tsteq	r1, r5, asr r5
d002cbf4:	55011001 	strpl	r1, [r1, #-1]
d002cbf8:	10c00155 	sbcne	r0, r0, r5, asr r1
d002cbfc:	7f000000 	svcvc	0x00000000
	...
d002cc10:	ff7f0100 	undefined instruction 0xff7f0100
d002cc14:	ffffffff 	undefined instruction 0xffffffff
d002cc18:	0000ffff 	strdeq	pc, [r0], -pc
	...
d002cc24:	02000000 	andeq	r0, r0, #0
d002cc28:	eeaeaeaa 	cdp	14, 10, cr10, cr14, cr10, {5}
d002cc2c:	eeeeeeee 	cdp	14, 14, cr14, cr14, cr14, {7}
d002cc30:	eeeeeeee 	cdp	14, 14, cr14, cr14, cr14, {7}
d002cc34:	aaaaeaee 	bge	ceae77f4 <_start-0x153881c>
d002cc38:	eeaeaaae 	vfma.f32	s20, s29, s29
d002cc3c:	aaaa2aea 	bge	ceab77ec <_start-0x1568824>
d002cc40:	aaaaaaaa 	bge	cead76f0 <_start-0x1548920>
d002cc44:	2a00a02a 	bcs	d0054cf4 <bss_end+0x1f724>
d002cc48:	a2aa2282 	adcge	r2, sl, #536870920	; 0x20000008
d002cc4c:	a2aaa282 	adcge	sl, sl, #536870920	; 0x20000008
d002cc50:	a2aaa2a2 	adcge	sl, sl, #536870922	; 0x2000000a
d002cc54:	0000a0aa 	andeq	sl, r0, sl, lsr #1
d002cc58:	00000000 	andeq	r0, r0, r0
d002cc5c:	aaaaaa2a 	bge	cead750c <_start-0x1548b04>
d002cc60:	aaaaaaaa 	bge	cead7710 <_start-0x1548900>
d002cc64:	000000aa 	andeq	r0, r0, sl, lsr #1
	...
d002cc70:	5f000000 	svcpl	0x00000000
d002cc74:	ffffffff 	undefined instruction 0xffffffff
d002cc78:	ffffffff 	undefined instruction 0xffffffff
d002cc7c:	ffffffff 	undefined instruction 0xffffffff
d002cc80:	0ffddffd 	svceq	0x00fddffd
d002cc84:	004005fc 	strdeq	r0, [r0], #-92	; 0xffffffa4
d002cc88:	00440400 	subeq	r0, r4, r0, lsl #8
d002cc8c:	05400401 	strbeq	r0, [r0, #-1025]	; 0x401
d002cc90:	00040000 	andeq	r0, r4, r0
d002cc94:	00c07c00 	sbceq	r7, r0, r0, lsl #24
	...
d002cca4:	05000000 	streq	r0, [r0]
d002cca8:	ffffffff 	undefined instruction 0xffffffff
d002ccac:	ddfdffff 	ldclle	15, cr15, [sp, #1020]!	; 0x3fc
	...
d002ccbc:	bbab8a08 	bllt	ceb0f4e4 <_start-0x1510b2c>
d002ccc0:	bbbbbbbb 	bllt	cef1bbb4 <_start-0x110445c>
d002ccc4:	ffffffbf 	undefined instruction 0xffffffbf
d002ccc8:	faffffff 	blx	d002cccc <gImage_pic+0xa300>
d002cccc:	a88fbaab 	stmge	pc, {r0, r1, r3, r5, r7, r9, fp, ip, sp, pc}
d002ccd0:	8a000008 	bhi	d002ccf8 <gImage_pic+0xa32c>
d002ccd4:	aaaaaa8a 	bge	cead7704 <_start-0x154890c>
d002ccd8:	a88aa8aa 	stmge	sl, {r1, r3, r5, r7, fp, sp, pc}
d002ccdc:	88a8080a 	stmiahi	r8!, {r1, r3, fp}
d002cce0:	8888aaaa 	stmhi	r8, {r1, r3, r5, r7, r9, fp, sp, pc}
d002cce4:	88888aa8 	stmhi	r8, {r3, r5, r7, r9, fp, pc}
d002cce8:	888a8888 	stmhi	sl, {r3, r7, fp, pc}
d002ccec:	00000000 	andeq	r0, r0, r0
d002ccf0:	aa8a0800 	bge	ce2aecf8 <_start-0x1d71318>
d002ccf4:	aabbbabb 	bge	cef1b7e8 <_start-0x1104828>
d002ccf8:	00aaaaba 	strheq	sl, [sl], sl
	...
d002cd08:	ffff7f15 	undefined instruction 0xffff7f15
d002cd0c:	ffffffff 	undefined instruction 0xffffffff
d002cd10:	ffffffff 	undefined instruction 0xffffffff
d002cd14:	ffffffff 	undefined instruction 0xffffffff
d002cd18:	00e40ff0 	strdeq	r0, [r4], #240	; 0xf0
d002cd1c:	01000000 	tsteq	r0, r0
d002cd20:	10015011 	andne	r5, r1, r1, lsl r0
d002cd24:	00000110 	andeq	r0, r0, r0, lsl r1
d002cd28:	f4010010 	vst4.8	{d0-d3}, [r1, :64], r0
	...
d002cd3c:	ffff1700 	undefined instruction 0xffff1700
d002cd40:	ffffffff 	undefined instruction 0xffffffff
d002cd44:	00007fff 	strdeq	r7, [r0], -pc
	...
d002cd50:	2a000000 	bcs	d002cd58 <gImage_pic+0xa38c>
d002cd54:	eeeeeaaa 	vfma.f32	s29, s29, s21
d002cd58:	eeeeeeee 	cdp	14, 14, cr14, cr14, cr14, {7}
d002cd5c:	eeeeeeee 	cdp	14, 14, cr14, cr14, cr14, {7}
d002cd60:	aaeaeeee 	bge	cfae8920 <_start-0x5376f0>
d002cd64:	aaaae80a 	bge	ceae6d94 <_start-0x153927c>
d002cd68:	aaa20000 	bge	ce8acd70 <_start-0x17732a0>
d002cd6c:	a8aaa2a0 	stmiage	sl!, {r5, r7, r9, sp, pc}
d002cd70:	aa22a82a 	bge	d08d6e20 <bss_end+0x8a1850>
d002cd74:	aaaa2288 	bge	ceab579c <_start-0x156a874>
d002cd78:	2a2a2222 	bcs	d0ab5608 <bss_end+0xa80038>
d002cd7c:	2222a22a 	eorcs	sl, r2, #-1610612734	; 0xa0000002
d002cd80:	0000a02a 	andeq	sl, r0, sl, lsr #32
d002cd84:	00000000 	andeq	r0, r0, r0
d002cd88:	aaaaaaaa 	bge	cead7838 <_start-0x15487d8>
d002cd8c:	aaaaaaaa 	bge	cead783c <_start-0x15487d4>
d002cd90:	000000aa 	andeq	r0, r0, sl, lsr #1
	...
d002cd9c:	ff150000 	undefined instruction 0xff150000
d002cda0:	ffffffff 	undefined instruction 0xffffffff
d002cda4:	ffffffff 	undefined instruction 0xffffffff
d002cda8:	ffffffff 	undefined instruction 0xffffffff
d002cdac:	0ffcffff 	svceq	0x00fcffff
d002cdb0:	00004cdc 	ldrdeq	r4, [r0], -ip
d002cdb4:	80550000 	subshi	r0, r5, r0
d002cdb8:	40000000 	andmi	r0, r0, r0
d002cdbc:	00000000 	andeq	r0, r0, r0
d002cdc0:	0040f801 	subeq	pc, r0, r1, lsl #16
	...
d002cdd0:	5d000000 	stcpl	0, cr0, [r0]
d002cdd4:	ffffffff 	undefined instruction 0xffffffff
d002cdd8:	ddfdffff 	ldclle	15, cr15, [sp, #1020]!	; 0x3fc
d002cddc:	00000000 	andeq	r0, r0, r0
d002cde0:	00800000 	addeq	r0, r0, r0
d002cde4:	00000000 	andeq	r0, r0, r0
d002cde8:	bbbbab88 	bllt	cef17c10 <_start-0x1108400>
d002cdec:	fbfbbbbb 	blx	cff1bce2 <_start-0x10432e>
d002cdf0:	fffbfbfb 	undefined instruction 0xfffbfbfb
d002cdf4:	ffffffff 	undefined instruction 0xffffffff
d002cdf8:	ababfaff 	blge	ceb2b9fc <_start-0x14f4614>
d002cdfc:	0000a08a 	andeq	sl, r0, sl, lsl #1
d002ce00:	00a8aa88 	adceq	sl, r8, r8, lsl #21
d002ce04:	aaa88388 	bge	cea4dc2c <_start-0x15d23e4>
d002ce08:	8a888828 	bhi	ce24eeb0 <_start-0x1dd1160>
d002ce0c:	88882aaa 	stmhi	r8, {r1, r3, r5, r7, r9, fp, sp}
d002ce10:	a8888888 	stmge	r8, {r3, r7, fp, pc}
d002ce14:	808a8888 	addhi	r8, sl, r8, lsl #17
d002ce18:	00800000 	addeq	r0, r0, r0
d002ce1c:	abaa8880 	blge	ceacf024 <_start-0x1550fec>
d002ce20:	abbbbbab 	blge	cef1bcd4 <_start-0x110433c>
d002ce24:	00aaaaaa 	adceq	sl, sl, sl, lsr #21
	...
d002ce34:	ffffff57 	undefined instruction 0xffffff57
d002ce38:	ffffffff 	undefined instruction 0xffffffff
d002ce3c:	ffffffff 	undefined instruction 0xffffffff
d002ce40:	ffffffff 	undefined instruction 0xffffffff
d002ce44:	7fc303fc 	svcvc	0x00c303fc
d002ce48:	000000ff 	strdeq	r0, [r0], -pc
d002ce4c:	00005011 	andeq	r5, r0, r1, lsl r0
d002ce50:	40004507 	andmi	r4, r0, r7, lsl #10
d002ce54:	f1070000 	undefined instruction 0xf1070000
d002ce58:	00000000 	andeq	r0, r0, r0
d002ce5c:	00100000 	andseq	r0, r0, r0
d002ce60:	00000100 	andeq	r0, r0, r0, lsl #2
d002ce64:	00000000 	andeq	r0, r0, r0
d002ce68:	ffff7f01 	undefined instruction 0xffff7f01
d002ce6c:	ffffffff 	undefined instruction 0xffffffff
d002ce70:	0000f7ff 	strdeq	pc, [r0], -pc
	...
d002ce7c:	aa020000 	bge	d00ace84 <bss_end+0x778b4>
d002ce80:	eeeeaeae 	cdp	14, 14, cr10, cr14, cr14, {5}
d002ce84:	eeeeeeee 	cdp	14, 14, cr14, cr14, cr14, {7}
d002ce88:	efeeefee 	svc	0x00eeefee
d002ce8c:	eeeeefef 	cdp	15, 14, cr14, cr14, cr15, {7}
d002ce90:	aeeaaa82 	vfmage.f32	s21, s21, s4
d002ce94:	aa0a00e8 	bge	d02ad23c <bss_end+0x277c6c>
d002ce98:	0e0200aa 	cdpeq	0, 0, cr0, cr2, cr10, {5}
d002ce9c:	228288aa 	addcs	r8, r2, #11141120	; 0xaa0000
d002cea0:	a2a82a20 	adcge	r2, r8, #131072	; 0x20000
d002cea4:	02a222a2 	adceq	r2, r2, #536870922	; 0x2000000a
d002cea8:	2222a222 	eorcs	sl, r2, #536870914	; 0x20000002
d002ceac:	000080aa 	andeq	r8, r0, sl, lsr #1
d002ceb0:	02000000 	andeq	r0, r0, #0
d002ceb4:	aeaaaaaa 	vfmage.f32	s20, s21, s21
d002ceb8:	aaaaaaae 	bge	cead7978 <_start-0x1548698>
d002cebc:	000000aa 	andeq	r0, r0, sl, lsr #1
	...
d002cec8:	ff5f0000 	undefined instruction 0xff5f0000
d002cecc:	ffffffff 	undefined instruction 0xffffffff
d002ced0:	ffffffff 	undefined instruction 0xffffffff
d002ced4:	ffffffff 	undefined instruction 0xffffffff
d002ced8:	05fcffff 	ldrbeq	pc, [ip, #4095]!	; 0xfff
d002cedc:	1c5d0040 	mrrcne	0, 4, r0, sp, cr0
d002cee0:	40040000 	andmi	r0, r4, r0
d002cee4:	401d0000 	andsmi	r0, sp, r0
d002cee8:	00000000 	andeq	r0, r0, r0
d002ceec:	0000f405 	andeq	pc, r0, r5, lsl #8
	...
d002cefc:	ff010000 	undefined instruction 0xff010000
d002cf00:	ffffffdf 	undefined instruction 0xffffffdf
d002cf04:	dddfffff 	ldclle	15, cr15, [pc, #1020]	; 0x3fc
	...
d002cf10:	08000000 	stmdaeq	r0, {}
d002cf14:	bbbbab8a 	bllt	cef17d44 <_start-0x11082cc>
d002cf18:	bfbbbbbb 	svclt	0x00bbbbbb
d002cf1c:	ffffbfbb 	undefined instruction 0xffffbfbb
d002cf20:	ffffffff 	undefined instruction 0xffffffff
d002cf24:	80aafaff 	strdhi	pc, [sl], pc
d002cf28:	0080aa8a 	addeq	sl, r0, sl, lsl #21
d002cf2c:	80a8aa0a 	adchi	sl, r8, sl, lsl #20
d002cf30:	aaaaba88 	bge	ceadb958 <_start-0x15446b8>
d002cf34:	8a888a22 	bhi	ce24f7c4 <_start-0x1dd084c>
d002cf38:	88888aea 	stmhi	r8, {r1, r3, r5, r6, r7, r9, fp, pc}
d002cf3c:	8888888a 	stmhi	r8, {r1, r3, r7, fp, pc}
d002cf40:	88888888 	stmhi	r8, {r3, r7, fp, pc}
d002cf44:	08000000 	stmdaeq	r0, {}
d002cf48:	aaaa8a88 	bge	ceacf970 <_start-0x15506a0>
d002cf4c:	bbbbbbab 	bllt	cef1be00 <_start-0x1104210>
d002cf50:	00aaaaaa 	adceq	sl, sl, sl, lsr #21
	...
d002cf5c:	01000000 	tsteq	r0, r0
d002cf60:	ffffff7f 	undefined instruction 0xffffff7f
d002cf64:	ffffffff 	undefined instruction 0xffffffff
d002cf68:	ffffffff 	undefined instruction 0xffffffff
d002cf6c:	ffffffff 	undefined instruction 0xffffffff
d002cf70:	010010fc 	strdeq	r1, [r0, -ip]
d002cf74:	00000050 	andeq	r0, r0, r0, asr r0
d002cf78:	00001010 	andeq	r1, r0, r0, lsl r0
d002cf7c:	4001603d 	andmi	r6, r1, sp, lsr r0
d002cf80:	f0150000 	undefined instruction 0xf0150000
d002cf84:	00000010 	andeq	r0, r0, r0, lsl r0
	...
d002cf94:	ffffff07 	undefined instruction 0xffffff07
d002cf98:	ffffffff 	undefined instruction 0xffffffff
d002cf9c:	0000f7ff 	strdeq	pc, [r0], -pc
	...
d002cfa8:	aa2a0000 	bge	d0aacfb0 <bss_end+0xa779e0>
d002cfac:	eeeeeeaa 	cdp	14, 14, cr14, cr14, cr10, {5}
d002cfb0:	eeeeeeee 	cdp	14, 14, cr14, cr14, cr14, {7}
d002cfb4:	eeeeeeee 	cdp	14, 14, cr14, cr14, cr14, {7}
d002cfb8:	eeeefeee 	cdp	14, 14, cr15, cr14, cr14, {7}
d002cfbc:	aa2200a8 	bge	d08ad264 <bss_end+0x877c94>
d002cfc0:	2a0200a0 	bcs	d00ad248 <bss_end+0x77c78>
d002cfc4:	6a2200a8 	bvs	d08ad26c <bss_end+0x877c9c>
d002cfc8:	002082aa 	eoreq	r8, r0, sl, lsr #5
d002cfcc:	2ae82a02 	bcs	cfa377dc <_start-0x5e8834>
d002cfd0:	208220a2 	addcs	r2, r2, r2, lsr #1
d002cfd4:	2a222022 	bcs	d08b5064 <bss_end+0x87fa94>
d002cfd8:	000000a0 	andeq	r0, r0, r0, lsr #1
d002cfdc:	aa220000 	bge	d08acfe4 <bss_end+0x877a14>
d002cfe0:	eaaaaaaa 	b	cead7a90 <_start-0x1548580>
d002cfe4:	aaaaeaaa 	bge	ceae7a94 <_start-0x153857c>
d002cfe8:	000000aa 	andeq	r0, r0, sl, lsr #1
	...
d002cff4:	ffff0500 	undefined instruction 0xffff0500
d002cff8:	ffffffff 	undefined instruction 0xffffffff
d002cffc:	ffffffff 	undefined instruction 0xffffffff
d002d000:	ffffffff 	undefined instruction 0xffffffff
d002d004:	c0fcffff 	ldrshtgt	pc, [ip], #255	; 0xff
d002d008:	00580000 	subseq	r0, r8, r0
d002d00c:	40010000 	andmi	r0, r1, r0
d002d010:	c0fd0000 	rscsgt	r0, sp, r0
d002d014:	00004000 	andeq	r4, r0, r0
d002d018:	0000f805 	andeq	pc, r0, r5, lsl #16
	...
d002d028:	fd5f0000 	ldc2l	0, cr0, [pc]
d002d02c:	fffffffd 	undefined instruction 0xfffffffd
d002d030:	ddddfdff 	ldclle	13, cr15, [sp, #1020]	; 0x3fc
d002d034:	00008000 	andeq	r8, r0, r0
d002d038:	80000000 	andhi	r0, r0, r0
d002d03c:	80008000 	andhi	r8, r0, r0
d002d040:	bbbbbbaa 	bllt	cef1bef0 <_start-0x1104120>
d002d044:	fbbbfbbb 	blx	cef2bf3a <_start-0x10f40d6>
d002d048:	fbfbfbfb 	blx	cff2c03e <_start-0xf3fd2>
d002d04c:	ffffffff 	undefined instruction 0xffffffff
d002d050:	8088feff 	strdhi	pc, [r8], pc
d002d054:	a08b8088 	addge	r8, fp, r8, lsl #1
d002d058:	88a88800 	stmiahi	r8!, {fp, pc}
d002d05c:	80a8fa88 	adchi	pc, r8, r8, lsl #21
d002d060:	aa8880a8 	bge	ce24d308 <_start-0x1dd2d08>
d002d064:	888888a8 	stmhi	r8, {r3, r5, r7, fp, pc}
d002d068:	88888888 	stmhi	r8, {r3, r7, fp, pc}
d002d06c:	80808888 	addhi	r8, r0, r8, lsl #17
d002d070:	88000000 	stmdahi	r0, {}
d002d074:	aabaabaa 	bge	ceed7f24 <_start-0x11480ec>
d002d078:	bbbbbbab 	bllt	cef1bf2c <_start-0x11040e4>
d002d07c:	00aaaaaa 	adceq	sl, sl, sl, lsr #21
	...
d002d088:	17000000 	strne	r0, [r0, -r0]
d002d08c:	ffffffff 	undefined instruction 0xffffffff
d002d090:	ffffffff 	undefined instruction 0xffffffff
d002d094:	ffffffff 	undefined instruction 0xffffffff
d002d098:	ffffffff 	undefined instruction 0xffffffff
d002d09c:	000000ff 	strdeq	r0, [r0], -pc
d002d0a0:	00f00700 	rscseq	r0, r0, r0, lsl #14
d002d0a4:	01001001 	tsteq	r0, r1
d002d0a8:	000050ff 	strdeq	r5, [r0], -pc
d002d0ac:	f4470100 	vst4.8	{d16,d18,d20,d22}, [r7], r0
	...
d002d0bc:	57010000 	strpl	r0, [r1, -r0]
d002d0c0:	ffffffff 	undefined instruction 0xffffffff
d002d0c4:	ffffffff 	undefined instruction 0xffffffff
d002d0c8:	0000d7f7 	strdeq	sp, [r0], -r7
	...
d002d0d4:	aeaa0200 	cdpge	2, 10, cr0, cr10, cr0, {0}
d002d0d8:	eeeeeeae 	cdp	14, 14, cr14, cr14, cr14, {5}
d002d0dc:	eeeeeeee 	cdp	14, 14, cr14, cr14, cr14, {7}
d002d0e0:	eeeeeeee 	cdp	14, 14, cr14, cr14, cr14, {7}
d002d0e4:	eeefefef 	cdp	15, 14, cr14, cr15, cr15, {7}
d002d0e8:	a20200a2 	andge	r0, r2, #162	; 0xa2
d002d0ec:	8a00e80e 	bhi	d006712c <bss_end+0x31b5c>
d002d0f0:	ea2000aa 	b	d082d3a0 <bss_end+0x7f7dd0>
d002d0f4:	00022aaa 	andeq	r2, r2, sl, lsr #21
d002d0f8:	aaaaaa2a 	bge	cead79a8 <_start-0x1548668>
d002d0fc:	02220222 	eoreq	r0, r2, #536870914	; 0x20000002
d002d100:	a2a2a222 	adcge	sl, r2, #536870914	; 0x20000002
d002d104:	00000000 	andeq	r0, r0, r0
d002d108:	aaaa0200 	bge	ceaad910 <_start-0x1572700>
d002d10c:	aeaaaaaa 	vfmage.f32	s20, s21, s21
d002d110:	aaaaeaae 	bge	ceae7bd0 <_start-0x1538440>
d002d114:	000000aa 	andeq	r0, r0, sl, lsr #1
	...
d002d120:	ffff5f00 	undefined instruction 0xffff5f00
d002d124:	ffffffff 	undefined instruction 0xffffffff
d002d128:	ffffffff 	undefined instruction 0xffffffff
d002d12c:	ffffffff 	undefined instruction 0xffffffff
d002d130:	00ffffff 	ldrshteq	pc, [pc, #255]	; d002d237 <gImage_pic+0xa86b>
d002d134:	0f000000 	svceq	0x00000000
d002d138:	000000fc 	strdeq	r0, [r0], -ip
d002d13c:	c0fd0100 	rscsgt	r0, sp, r0, lsl #2
d002d140:	00000000 	andeq	r0, r0, r0
d002d144:	0000d005 	andeq	sp, r0, r5
	...
d002d154:	ffffff01 	undefined instruction 0xffffff01
d002d158:	ffffffff 	undefined instruction 0xffffffff
d002d15c:	ddddfdff 	ldclle	13, cr15, [sp, #1020]	; 0x3fc
	...
d002d168:	8a000000 	bhi	d002d170 <gImage_pic+0xa7a4>
d002d16c:	bbbbbbab 	bllt	cef1c020 <_start-0x1103ff0>
d002d170:	bbbbbbbb 	bllt	cef1c064 <_start-0x1103fac>
d002d174:	ffffffbf 	undefined instruction 0xffffffbf
d002d178:	ffffffff 	undefined instruction 0xffffffff
d002d17c:	88a8feff 	stmiahi	r8!, {r0, r1, r2, r3, r4, r5, r6, r7, r9, sl, fp, ip, sp, lr, pc}
d002d180:	fa8f8808 	blx	ce40f1a8 <_start-0x1c10e68>
d002d184:	80aa0a80 	adchi	r0, sl, r0, lsl #21
d002d188:	80aaba89 	adchi	fp, sl, r9, lsl #21
d002d18c:	ab8a888a 	blge	ce2cf3bc <_start-0x1d50c54>
d002d190:	8888a8aa 	stmhi	r8, {r1, r3, r5, r7, fp, sp, pc}
d002d194:	88888888 	stmhi	r8, {r3, r7, fp, pc}
d002d198:	00008888 	andeq	r8, r0, r8, lsl #17
d002d19c:	8a080000 	bhi	d022d1a4 <bss_end+0x1f7bd4>
d002d1a0:	aababbba 	bge	ceedc090 <_start-0x1143f80>
d002d1a4:	babbbbba 	blt	cef1c094 <_start-0x1103f7c>
d002d1a8:	00aaaaaa 	adceq	sl, sl, sl, lsr #21
	...
d002d1b4:	7f010000 	svcvc	0x00010000
d002d1b8:	ffffffff 	undefined instruction 0xffffffff
d002d1bc:	ffffffff 	undefined instruction 0xffffffff
d002d1c0:	ffffffff 	undefined instruction 0xffffffff
d002d1c4:	ffffffff 	undefined instruction 0xffffffff
d002d1c8:	000040ff 	strdeq	r4, [r0], -pc
d002d1cc:	00ff1f00 	rscseq	r1, pc, r0, lsl #30
d002d1d0:	01000000 	tsteq	r0, r0
d002d1d4:	004015fd 	strdeq	r1, [r0], #-93	; 0xffffffa3
d002d1d8:	d0070100 	andle	r0, r7, r0, lsl #2
	...
d002d1e8:	ff010000 	undefined instruction 0xff010000
d002d1ec:	ffffffff 	undefined instruction 0xffffffff
d002d1f0:	ffffffff 	undefined instruction 0xffffffff
d002d1f4:	000075ff 	strdeq	r7, [r0], -pc
	...
d002d200:	aaaa0a00 	bge	ceaafa08 <_start-0x1570608>
d002d204:	eeeeeeee 	cdp	14, 14, cr14, cr14, cr14, {7}
d002d208:	eeeeeeee 	cdp	14, 14, cr14, cr14, cr14, {7}
d002d20c:	eeeeeeee 	cdp	14, 14, cr14, cr14, cr14, {7}
d002d210:	eeeeeeee 	cdp	14, 14, cr14, cr14, cr14, {7}
d002d214:	a02a2aaa 	eorge	r2, sl, sl, lsr #21
d002d218:	00a0eeae 	adceq	lr, r0, lr, lsr #29
d002d21c:	ea22a0aa 	b	d08d54cc <bss_end+0x89fefc>
d002d220:	8020a0aa 	eorhi	sl, r0, sl, lsr #1
d002d224:	22a8aa2a 	adccs	sl, r8, #172032	; 0x2a000
d002d228:	202202a0 	eorcs	r0, r2, r0, lsr #5
d002d22c:	0020202a 	eoreq	r2, r0, sl, lsr #32
d002d230:	00000000 	andeq	r0, r0, r0
d002d234:	aaea2a00 	bge	cfab7a3c <_start-0x5685d4>
d002d238:	aaaaaaea 	bge	cead7de8 <_start-0x1548228>
d002d23c:	aaaaeaaa 	bge	ceae7cec <_start-0x1538324>
d002d240:	000000aa 	andeq	r0, r0, sl, lsr #1
	...
d002d24c:	ffffff01 	undefined instruction 0xffffff01
d002d250:	ffffffff 	undefined instruction 0xffffffff
d002d254:	ffffffff 	undefined instruction 0xffffffff
d002d258:	ffffffff 	undefined instruction 0xffffffff
d002d25c:	c0ffffff 	ldrshtgt	pc, [pc, #255]	; d002d363 <gImage_pic+0xa997>
d002d260:	7f000000 	svcvc	0x00000000
d002d264:	0400c0ff 	streq	ip, [r0], #-255	; 0xff
d002d268:	7f7c0000 	svcvc	0x007c0000
d002d26c:	000040f0 	strdeq	r4, [r0], r0
d002d270:	0000d007 	andeq	sp, r0, r7
	...
d002d280:	ffffff05 	undefined instruction 0xffffff05
d002d284:	fffffffd 	undefined instruction 0xfffffffd
d002d288:	ddddfdff 	ldclle	13, cr15, [sp, #1020]	; 0x3fc
d002d28c:	00800000 	addeq	r0, r0, r0
d002d290:	00000000 	andeq	r0, r0, r0
d002d294:	8a800080 	bhi	ce02d49c <_start-0x1ff2b74>
d002d298:	bbbbbbab 	bllt	cef1c14c <_start-0x1103ec4>
d002d29c:	fffbbbbb 	undefined instruction 0xfffbbbbb
d002d2a0:	ffffffff 	undefined instruction 0xffffffff
d002d2a4:	ffffffff 	undefined instruction 0xffffffff
d002d2a8:	aaaaffff 	bge	ceaed2ac <_start-0x1532d64>
d002d2ac:	fbffaaaa 	blx	d0017d5e <_start-0x82b2>
d002d2b0:	888808e8 	stmhi	r8, {r3, r5, r6, r7, fp}
d002d2b4:	aabbaa8a 	bge	cef17ce4 <_start-0x110832c>
d002d2b8:	8aaa8880 	bhi	ceacf4c0 <_start-0x1550b50>
d002d2bc:	88888aa0 	stmhi	r8, {r5, r7, r9, fp, pc}
d002d2c0:	80888888 	addhi	r8, r8, r8, lsl #17
d002d2c4:	00808080 	addeq	r8, r0, r0, lsl #1
d002d2c8:	8b880000 	blhi	ce22d2d0 <_start-0x1df2d40>
d002d2cc:	aabbbbba 	bge	cef1c1bc <_start-0x1103e54>
d002d2d0:	bbababab 	bllt	ceb18184 <_start-0x1507e8c>
d002d2d4:	00aaaaaa 	adceq	sl, sl, sl, lsr #21
	...
d002d2e0:	ff070000 	undefined instruction 0xff070000
d002d2e4:	ffffffff 	undefined instruction 0xffffffff
d002d2e8:	ffffffff 	undefined instruction 0xffffffff
d002d2ec:	ffffffff 	undefined instruction 0xffffffff
d002d2f0:	ffffffff 	undefined instruction 0xffffffff
d002d2f4:	1111f1ff 	ldrshne	pc, [r1, -pc]
d002d2f8:	fcffff17 	ldc2l	15, cr15, [pc], #92	; 0x5c
d002d2fc:	01000000 	tsteq	r0, r0
d002d300:	00ffff51 	rscseq	pc, pc, r1, asr pc
d002d304:	505f1100 	subspl	r1, pc, r0, lsl #2
	...
d002d314:	ff170000 	undefined instruction 0xff170000
d002d318:	ffffffff 	undefined instruction 0xffffffff
d002d31c:	ffffffff 	undefined instruction 0xffffffff
d002d320:	000077f7 	strdeq	r7, [r0], -r7
	...
d002d32c:	aeaa2a00 	vfmage.f32	s4, s20, s0
d002d330:	eeeeeeee 	cdp	14, 14, cr14, cr14, cr14, {7}
d002d334:	efeeeeee 	svc	0x00eeeeee
d002d338:	efefefee 	svc	0x00efefee
d002d33c:	efefefef 	svc	0x00efefef
d002d340:	aeaaaaea 	vfmsge.f32	s20, s21, s21
d002d344:	00eaeeee 	rsceq	lr, sl, lr, ror #29
d002d348:	aaaaa20a 	bge	cead5b78 <_start-0x154a498>
d002d34c:	02a8aeee 	adceq	sl, r8, #3808	; 0xee0
d002d350:	2aa2aaaa 	bcs	ce8d7e00 <_start-0x1748210>
d002d354:	a22222a2 	eorge	r2, r2, #536870922	; 0x2000000a
	...
d002d360:	aaea2a02 	bge	cfab7b70 <_start-0x5684a0>
d002d364:	aaaaaaae 	bge	cead7e24 <_start-0x15481ec>
d002d368:	aaaaaaaa 	bge	cead7e18 <_start-0x15481f8>
d002d36c:	000000aa 	andeq	r0, r0, sl, lsr #1
	...
d002d378:	ffffff0d 	undefined instruction 0xffffff0d
d002d37c:	ffffffff 	undefined instruction 0xffffffff
d002d380:	ffffffff 	undefined instruction 0xffffffff
d002d384:	ffffffff 	undefined instruction 0xffffffff
d002d388:	fcffffff 	ldc2l	15, cr15, [pc], #1020	; 0x3fc
d002d38c:	ff5f4444 	undefined instruction 0xff5f4444
d002d390:	0000feff 	strdeq	pc, [r0], -pc
d002d394:	ff070000 	undefined instruction 0xff070000
d002d398:	4400c4ff 	strmi	ip, [r0], #-1279	; 0x4ff
d002d39c:	00000044 	andeq	r0, r0, r4, asr #32
	...
d002d3ac:	ffdfff0f 	undefined instruction 0xffdfff0f
d002d3b0:	ffffffff 	undefined instruction 0xffffffff
d002d3b4:	ddddffff 	ldclle	15, cr15, [sp, #1020]	; 0x3fc
	...
d002d3c0:	aa080000 	bge	d022d3c8 <bss_end+0x1f7df8>
d002d3c4:	bbbbbbbb 	bllt	cef1c2b8 <_start-0x1103d58>
d002d3c8:	ffffbfbb 	undefined instruction 0xffffbfbb
d002d3cc:	ffffffff 	undefined instruction 0xffffffff
d002d3d0:	ffffffff 	undefined instruction 0xffffffff
d002d3d4:	aafeffff 	bge	cffed3d8 <_start-0x32c38>
d002d3d8:	ffffbfaa 	undefined instruction 0xffffbfaa
d002d3dc:	8a8888fe 	bhi	ce24f7dc <_start-0x1dd0834>
d002d3e0:	bbbbabaa 	bllt	cef18290 <_start-0x1107d80>
d002d3e4:	a8aa8aaa 	stmiage	sl!, {r1, r3, r5, r7, r9, fp, pc}
d002d3e8:	88888a00 	stmhi	r8, {r9, fp, pc}
d002d3ec:	00008888 	andeq	r8, r0, r8, lsl #17
d002d3f0:	00000000 	andeq	r0, r0, r0
d002d3f4:	ab080000 	blge	d022d3fc <bss_end+0x1f7e2c>
d002d3f8:	babbabba 	blt	cef182e8 <_start-0x1107d28>
d002d3fc:	aaaabaaa 	bge	ceadbeac <_start-0x1544164>
d002d400:	00aaaaaa 	adceq	sl, sl, sl, lsr #21
	...
d002d40c:	ff170000 	undefined instruction 0xff170000
d002d410:	ffffffff 	undefined instruction 0xffffffff
d002d414:	ffffffff 	undefined instruction 0xffffffff
d002d418:	ffffffff 	undefined instruction 0xffffffff
d002d41c:	ffffffff 	undefined instruction 0xffffffff
d002d420:	5ff5ffff 	svcpl	0x00f5ffff
d002d424:	ffffffff 	undefined instruction 0xffffffff
d002d428:	11100000 	tstne	r0, r0
d002d42c:	f5ffff1f 	undefined instruction 0xf5ffff1f
d002d430:	00501501 	subseq	r1, r0, r1, lsl #10
d002d434:	00000001 	andeq	r0, r0, r1
	...
d002d440:	ff1f0000 	undefined instruction 0xff1f0000
d002d444:	ffffffff 	undefined instruction 0xffffffff
d002d448:	ffffffff 	undefined instruction 0xffffffff
d002d44c:	00005575 	andeq	r5, r0, r5, ror r5
	...
d002d458:	eaaaaa00 	b	cead7c60 <_start-0x15483b0>
d002d45c:	eeeeeeea 	cdp	14, 14, cr14, cr14, cr10, {7}
d002d460:	eeeeeeee 	cdp	14, 14, cr14, cr14, cr14, {7}
d002d464:	eeeeeeee 	cdp	14, 14, cr14, cr14, cr14, {7}
d002d468:	feeeeeee 	cdp2	14, 14, cr14, cr14, cr14, {7}
d002d46c:	eeaeeaee 	vfms.f32	s28, s29, s29
d002d470:	a8eeeeee 	stmiage	lr!, {r1, r2, r3, r5, r6, r7, r9, sl, fp, sp, lr, pc}^
d002d474:	aaaa2a00 	bge	ceab7c7c <_start-0x1568394>
d002d478:	aaeaeaea 	bge	cfae8028 <_start-0x537fe8>
d002d47c:	2a00a0aa 	bcs	d005572c <bss_end+0x2015c>
d002d480:	00a02aaa 	adceq	r2, r0, sl, lsr #21
	...
d002d48c:	aaaaaa02 	bge	cead7c9c <_start-0x1548374>
d002d490:	aaaaeaaa 	bge	ceae7f40 <_start-0x15380d0>
d002d494:	aaaaaaaa 	bge	cead7f44 <_start-0x15480cc>
d002d498:	000000aa 	andeq	r0, r0, sl, lsr #1
	...
d002d4a4:	ffffff5f 	undefined instruction 0xffffff5f
d002d4a8:	ffffffff 	undefined instruction 0xffffffff
d002d4ac:	ffffffff 	undefined instruction 0xffffffff
d002d4b0:	ffffffff 	undefined instruction 0xffffffff
d002d4b4:	ffffffff 	undefined instruction 0xffffffff
d002d4b8:	ffffffff 	undefined instruction 0xffffffff
d002d4bc:	00c0ffff 	strdeq	pc, [r0], #255	; 0xff
d002d4c0:	ff5f0000 	undefined instruction 0xff5f0000
d002d4c4:	54c0fdff 	strbpl	pc, [r0], #3583	; 0xdff
	...
d002d4d8:	ffdffd5f 	undefined instruction 0xffdffd5f
d002d4dc:	ddfdffff 	ldclle	15, cr15, [sp, #1020]!	; 0x3fc
d002d4e0:	ddddfddf 	ldclle	13, cr15, [sp, #892]	; 0x37c
d002d4e4:	80000000 	andhi	r0, r0, r0
d002d4e8:	00000000 	andeq	r0, r0, r0
d002d4ec:	ab880000 	blge	ce22d4f4 <_start-0x1df2b1c>
d002d4f0:	bbbbbbbb 	bllt	cef1c3e4 <_start-0x1103c2c>
d002d4f4:	fffbffbb 	undefined instruction 0xfffbffbb
d002d4f8:	fffffffb 	undefined instruction 0xfffffffb
d002d4fc:	ffffffff 	undefined instruction 0xffffffff
d002d500:	ffffffff 	undefined instruction 0xffffffff
d002d504:	ffffffff 	undefined instruction 0xffffffff
d002d508:	aa88aafb 	bge	ce2580fc <_start-0x1dc7f14>
d002d50c:	bbbbaaaa 	bllt	cef17fbc <_start-0x1108054>
d002d510:	88aaaabb 	stmiahi	sl!, {r0, r1, r3, r4, r5, r7, r9, fp, sp, pc}
d002d514:	88888880 	stmhi	r8, {r7, fp, pc}
d002d518:	80008080 	andhi	r8, r0, r0, lsl #1
d002d51c:	00000000 	andeq	r0, r0, r0
d002d520:	ab880000 	blge	ce22d528 <_start-0x1df2ae8>
d002d524:	baabaaaa 	blt	ceb17fd4 <_start-0x150803c>
d002d528:	abaaaaab 	blge	cead7fdc <_start-0x1548034>
d002d52c:	00aaaaaa 	adceq	sl, sl, sl, lsr #21
	...
d002d538:	ff5f0100 	undefined instruction 0xff5f0100
d002d53c:	ffffffff 	undefined instruction 0xffffffff
d002d540:	ffffffff 	undefined instruction 0xffffffff
d002d544:	ffffffff 	undefined instruction 0xffffffff
d002d548:	ffffffff 	undefined instruction 0xffffffff
d002d54c:	ffffffff 	undefined instruction 0xffffffff
d002d550:	ffffffff 	undefined instruction 0xffffffff
d002d554:	110000f5 	strdne	r0, [r0, -r5]
d002d558:	ffffff57 	undefined instruction 0xffffff57
d002d55c:	004055f5 	strdeq	r5, [r0], #-85	; 0xffffffab
	...
d002d56c:	ff5f0000 	undefined instruction 0xff5f0000
d002d570:	fffffff7 	undefined instruction 0xfffffff7
d002d574:	fffff7ff 	undefined instruction 0xfffff7ff
d002d578:	0000f7f7 	strdeq	pc, [r0], -r7
	...
d002d584:	aeaeaa02 	vfmage.f32	s20, s28, s4
d002d588:	eeeeeeae 	cdp	14, 14, cr14, cr14, cr14, {5}
d002d58c:	eeeeeeee 	cdp	14, 14, cr14, cr14, cr14, {7}
d002d590:	efefeeee 	svc	0x00efeeee
d002d594:	efefefef 	svc	0x00efefef
d002d598:	eeeeeeef 	cdp	14, 14, cr14, cr14, cr15, {7}
d002d59c:	eaeeeeee 	b	cfbe915c <_start-0x436eb4>
d002d5a0:	aaaaaaa2 	bge	cead8030 <_start-0x1547fe0>
d002d5a4:	aaeeaeaa 	bge	cfbd9054 <_start-0x446fbc>
d002d5a8:	0000aaaa 	andeq	sl, r0, sl, lsr #21
	...
d002d5b8:	aaaaaa02 	bge	cead7dc8 <_start-0x1548248>
d002d5bc:	aaaaeeaa 	bge	ceae906c <_start-0x1536fa4>
d002d5c0:	aaaaaaaa 	bge	cead8070 <_start-0x1547fa0>
d002d5c4:	000000aa 	andeq	r0, r0, sl, lsr #1
	...
d002d5d0:	ffffff7f 	undefined instruction 0xffffff7f
d002d5d4:	ffffffff 	undefined instruction 0xffffffff
d002d5d8:	ffffffff 	undefined instruction 0xffffffff
d002d5dc:	ffffffff 	undefined instruction 0xffffffff
d002d5e0:	ffffffff 	undefined instruction 0xffffffff
d002d5e4:	ffffffff 	undefined instruction 0xffffffff
d002d5e8:	40fdffff 	ldrshtmi	pc, [sp], #255	; 0xff
d002d5ec:	5f450000 	svcpl	0x00450000
d002d5f0:	fdffffff 	ldc2l	15, cr15, [pc, #1020]!	; 0x3fc
d002d5f4:	000000d4 	ldrdeq	r0, [r0], -r4
	...
d002d604:	ffdddd5d 	undefined instruction 0xffdddd5d
d002d608:	dddfdfff 	ldclle	15, cr13, [pc, #1020]	; 0x3fc
d002d60c:	ddddffdd 	ldclle	15, cr15, [sp, #884]	; 0x374
	...
d002d618:	ab0a0000 	blge	d02ad620 <bss_end+0x278050>
d002d61c:	bbbbbbbb 	bllt	cef1c510 <_start-0x1103b00>
d002d620:	ffbfffbf 	undefined instruction 0xffbfffbf
d002d624:	ffffffff 	undefined instruction 0xffffffff
d002d628:	ffffffff 	undefined instruction 0xffffffff
d002d62c:	ffffffff 	undefined instruction 0xffffffff
d002d630:	ffffffff 	undefined instruction 0xffffffff
d002d634:	8aaabaff 	bhi	ceadc238 <_start-0x1543dd8>
d002d638:	abaaaaaa 	blge	cead80e8 <_start-0x1547f28>
d002d63c:	aababbbb 	bge	ceedc530 <_start-0x1143ae0>
d002d640:	00008088 	andeq	r8, r0, r8, lsl #1
	...
d002d64c:	aa8a0000 	bge	ce2ad654 <_start-0x1d729bc>
d002d650:	bbabaaaa 	bllt	ceb18100 <_start-0x1507f10>
d002d654:	aaaaaaaa 	bge	cead8104 <_start-0x1547f0c>
d002d658:	00aaaaaa 	adceq	sl, sl, sl, lsr #21
	...
d002d664:	ff7f0100 	undefined instruction 0xff7f0100
d002d668:	ffffffff 	undefined instruction 0xffffffff
d002d66c:	ffffffff 	undefined instruction 0xffffffff
d002d670:	ffffffff 	undefined instruction 0xffffffff
d002d674:	ffffffff 	undefined instruction 0xffffffff
d002d678:	ffffffff 	undefined instruction 0xffffffff
d002d67c:	ffffffff 	undefined instruction 0xffffffff
d002d680:	151075ff 	ldrne	r7, [r0, #-1535]	; 0x5ff
d002d684:	ff7f5555 	undefined instruction 0xff7f5555
d002d688:	00f5ffff 	ldrshteq	pc, [r5], #255	; 0xff
	...
d002d698:	ff7f0100 	undefined instruction 0xff7f0100
d002d69c:	ffffffff 	undefined instruction 0xffffffff
d002d6a0:	fff7ffff 	undefined instruction 0xfff7ffff
d002d6a4:	000075ff 	strdeq	r7, [r0], -pc
	...
d002d6b0:	eaaaaa2a 	b	cead7f60 <_start-0x15480b0>
d002d6b4:	eeeeeaee 	vfms.f32	s29, s29, s29
d002d6b8:	eeeeeeee 	cdp	14, 14, cr14, cr14, cr14, {7}
d002d6bc:	eeeeeeee 	cdp	14, 14, cr14, cr14, cr14, {7}
d002d6c0:	fefefefe 	mrc2	14, 7, pc, cr14, cr14, {7}
d002d6c4:	eeeeeefe 	mcr	14, 7, lr, cr14, cr14, {7}
d002d6c8:	aaeeeeee 	bge	cfbe9288 <_start-0x436d88>
d002d6cc:	aaaaaaaa 	bge	cead817c <_start-0x1547e94>
d002d6d0:	eaaaaaaa 	b	cead8180 <_start-0x1547e90>
d002d6d4:	00a8aaaa 	adceq	sl, r8, sl, lsr #21
	...
d002d6e4:	aaaaaa2a 	bge	cead7f94 <_start-0x154807c>
d002d6e8:	aaaaaaaa 	bge	cead8198 <_start-0x1547e78>
d002d6ec:	aaaaaaaa 	bge	cead819c <_start-0x1547e74>
d002d6f0:	000000aa 	andeq	r0, r0, sl, lsr #1
d002d6f4:	00000000 	andeq	r0, r0, r0
d002d6f8:	01000000 	tsteq	r0, r0
d002d6fc:	ffffffff 	undefined instruction 0xffffffff
d002d700:	ffffffff 	undefined instruction 0xffffffff
d002d704:	ffffffff 	undefined instruction 0xffffffff
d002d708:	ffffffff 	undefined instruction 0xffffffff
d002d70c:	ffffffff 	undefined instruction 0xffffffff
d002d710:	ffffffff 	undefined instruction 0xffffffff
d002d714:	ddfdffff 	ldclle	15, cr15, [sp, #1020]!	; 0x3fc
d002d718:	ddd5dddd 	ldclle	13, cr13, [r5, #884]	; 0x374
d002d71c:	ffffffdd 	undefined instruction 0xffffffdd
d002d720:	0000c0fd 	strdeq	ip, [r0], -sp
	...
d002d72c:	01000000 	tsteq	r0, r0
d002d730:	dfdddddd 	svcle	0x00dddddd
d002d734:	ddddfdff 	ldclle	13, cr15, [sp, #1020]	; 0x3fc
d002d738:	ddfddddd 	ldclle	13, cr13, [sp, #884]!	; 0x374
	...
d002d744:	ab8a0000 	blge	ce2ad74c <_start-0x1d728c4>
d002d748:	bbbbbbbb 	bllt	cef1c63c <_start-0x11039d4>
d002d74c:	fbfffbfb 	blx	d002c742 <gImage_pic+0x9d76>
d002d750:	ffffffff 	undefined instruction 0xffffffff
d002d754:	ffffffff 	undefined instruction 0xffffffff
d002d758:	ffffffff 	undefined instruction 0xffffffff
d002d75c:	fbffffff 	blx	d002d762 <gImage_pic+0xad96>
d002d760:	aaaaaafb 	bge	cead8354 <_start-0x1547cbc>
d002d764:	aaaaaaaa 	bge	cead8214 <_start-0x1547dfc>
d002d768:	aabbbbab 	bge	cef1c61c <_start-0x11039f4>
d002d76c:	008088a8 	addeq	r8, r0, r8, lsr #17
	...
d002d778:	aa8a8880 	bge	ce2cf980 <_start-0x1d50690>
d002d77c:	abaaaaaa 	blge	cead822c <_start-0x1547de4>
d002d780:	aaaaaaaa 	bge	cead8230 <_start-0x1547de0>
d002d784:	00aaaaaa 	adceq	sl, sl, sl, lsr #21
	...
d002d790:	ffff0100 	undefined instruction 0xffff0100
d002d794:	ffffffff 	undefined instruction 0xffffffff
d002d798:	ffffffff 	undefined instruction 0xffffffff
d002d79c:	ffffffff 	undefined instruction 0xffffffff
d002d7a0:	ffffffff 	undefined instruction 0xffffffff
d002d7a4:	ffffffff 	undefined instruction 0xffffffff
d002d7a8:	ffffffff 	undefined instruction 0xffffffff
d002d7ac:	fffffff7 	undefined instruction 0xfffffff7
d002d7b0:	77f7f7ff 	undefined instruction 0x77f7f7ff
d002d7b4:	51ffffff 	ldrshpl	pc, [pc, #255]	; d002d8bb <gImage_pic+0xaeef>
	...
d002d7c4:	ff770100 	undefined instruction 0xff770100
d002d7c8:	fffffff7 	undefined instruction 0xfffffff7
d002d7cc:	77f7ffff 	undefined instruction 0x77f7ffff
d002d7d0:	0000f7ff 	strdeq	pc, [r0], -pc
	...
d002d7dc:	aeaaaa2a 	vfmage.f32	s20, s20, s21
d002d7e0:	eeeeeeee 	cdp	14, 14, cr14, cr14, cr14, {7}
d002d7e4:	efeeeeee 	svc	0x00eeeeee
d002d7e8:	efefefee 	svc	0x00efefee
d002d7ec:	efefefef 	svc	0x00efefef
d002d7f0:	eeeeefef 	cdp	15, 14, cr14, cr14, cr15, {7}
d002d7f4:	aaeeeeee 	bge	cfbe93b4 <_start-0x436c5c>
d002d7f8:	aaaaaaaa 	bge	cead82a8 <_start-0x1547d68>
d002d7fc:	aeaaaaaa 	vfmage.f32	s20, s21, s21
d002d800:	a2aaaaaa 	adcge	sl, sl, #696320	; 0xaa000
	...
d002d80c:	02000000 	andeq	r0, r0, #0
d002d810:	aaaaaa2a 	bge	cead80c0 <_start-0x1547f50>
d002d814:	aaaaaaaa 	bge	cead82c4 <_start-0x1547d4c>
d002d818:	aaaaaaaa 	bge	cead82c8 <_start-0x1547d48>
d002d81c:	000000aa 	andeq	r0, r0, sl, lsr #1
d002d820:	00000000 	andeq	r0, r0, r0
d002d824:	05000000 	streq	r0, [r0]
d002d828:	ffffffff 	undefined instruction 0xffffffff
d002d82c:	ffffffff 	undefined instruction 0xffffffff
d002d830:	ffffffff 	undefined instruction 0xffffffff
d002d834:	ffffffff 	undefined instruction 0xffffffff
d002d838:	ffffffff 	undefined instruction 0xffffffff
d002d83c:	ffffffff 	undefined instruction 0xffffffff
d002d840:	dfddffff 	svcle	0x00ddffff
d002d844:	ddddffff 	ldclle	15, cr15, [sp, #1020]	; 0x3fc
d002d848:	ffffdddd 	undefined instruction 0xffffdddd
d002d84c:	0000ddff 	strdeq	sp, [r0], -pc
	...
d002d858:	05000000 	streq	r0, [r0]
d002d85c:	dfdddddf 	svcle	0x00dddddf
d002d860:	dddfffff 	ldclle	15, cr15, [pc, #1020]	; 0x3fc
d002d864:	dddddddd 	ldclle	13, cr13, [sp, #884]	; 0x374
	...
d002d870:	baaa0800 	blt	ceaaf878 <_start-0x1570798>
d002d874:	bfbbbbbb 	svclt	0x00bbbbbb
d002d878:	ffffffbf 	undefined instruction 0xffffffbf
d002d87c:	ffffffff 	undefined instruction 0xffffffff
d002d880:	ffffffff 	undefined instruction 0xffffffff
d002d884:	ffffffff 	undefined instruction 0xffffffff
d002d888:	ffffffff 	undefined instruction 0xffffffff
d002d88c:	aaaaaafa 	bge	cead847c <_start-0x1547b94>
d002d890:	aaaaaaaa 	bge	cead8340 <_start-0x1547cd0>
d002d894:	babbabaa 	blt	cef18744 <_start-0x11078cc>
d002d898:	0088a8aa 	addeq	sl, r8, sl, lsr #17
	...
d002d8a4:	aaaa8800 	bge	ceacf8ac <_start-0x1550764>
d002d8a8:	abaaaaaa 	blge	cead8358 <_start-0x1547cb8>
d002d8ac:	aaaaaaba 	bge	cead839c <_start-0x1547c74>
d002d8b0:	00aaaaaa 	adceq	sl, sl, sl, lsr #21
	...
d002d8bc:	ffff1700 	undefined instruction 0xffff1700
d002d8c0:	ffffffff 	undefined instruction 0xffffffff
d002d8c4:	ffffffff 	undefined instruction 0xffffffff
d002d8c8:	ffffffff 	undefined instruction 0xffffffff
d002d8cc:	ffffffff 	undefined instruction 0xffffffff
d002d8d0:	ffffffff 	undefined instruction 0xffffffff
d002d8d4:	ffffffff 	undefined instruction 0xffffffff
d002d8d8:	ffffffff 	undefined instruction 0xffffffff
d002d8dc:	75575575 	ldrbvc	r5, [r7, #-1397]	; 0x575
d002d8e0:	f5ffff7f 	undefined instruction 0xf5ffff7f
d002d8e4:	00000050 	andeq	r0, r0, r0, asr r0
	...
d002d8f0:	ffff1700 	undefined instruction 0xffff1700
d002d8f4:	ffff77ff 	undefined instruction 0xffff77ff
d002d8f8:	75ffffff 	ldrbvc	pc, [pc, #4095]!	; d002e8ff <gImage_pic+0xbf33>
d002d8fc:	0000777f 	andeq	r7, r0, pc, ror r7
	...
d002d908:	aaaaaaaa 	bge	cead83b8 <_start-0x1547c58>
d002d90c:	eeeeeeee 	cdp	14, 14, cr14, cr14, cr14, {7}
d002d910:	eeeeeeee 	cdp	14, 14, cr14, cr14, cr14, {7}
d002d914:	feeeeeee 	cdp2	14, 14, cr14, cr14, cr14, {7}
d002d918:	feeefefe 	mcr2	14, 7, pc, cr14, cr14, {7}
d002d91c:	eeeeeeee 	cdp	14, 14, cr14, cr14, cr14, {7}
d002d920:	aaeaeeee 	bge	cfae94e0 <_start-0x536b30>
d002d924:	aaaaaaaa 	bge	cead83d4 <_start-0x1547c3c>
d002d928:	aaaaaaaa 	bge	cead83d8 <_start-0x1547c38>
d002d92c:	aaaaaaaa 	bge	cead83dc <_start-0x1547c34>
d002d930:	00000020 	andeq	r0, r0, r0, lsr #32
d002d934:	00000000 	andeq	r0, r0, r0
d002d938:	02000000 	andeq	r0, r0, #0
d002d93c:	aaaaaaaa 	bge	cead83ec <_start-0x1547c24>
d002d940:	aaaaaaaa 	bge	cead83f0 <_start-0x1547c20>
d002d944:	aaaaaaaa 	bge	cead83f4 <_start-0x1547c1c>
d002d948:	000000aa 	andeq	r0, r0, sl, lsr #1
d002d94c:	00000000 	andeq	r0, r0, r0
d002d950:	1f000000 	svcne	0x00000000
d002d954:	fffffffd 	undefined instruction 0xfffffffd
d002d958:	ffffffff 	undefined instruction 0xffffffff
d002d95c:	ffffffff 	undefined instruction 0xffffffff
d002d960:	ffffffff 	undefined instruction 0xffffffff
d002d964:	ffffffff 	undefined instruction 0xffffffff
d002d968:	ffffffff 	undefined instruction 0xffffffff
d002d96c:	fdddffff 	ldc2l	15, cr15, [sp, #1020]	; 0x3fc
d002d970:	00c4dddd 	ldrdeq	sp, [r4], #221	; 0xdd
d002d974:	ffdddd45 	undefined instruction 0xffdddd45
d002d978:	00d4fdff 	ldrsheq	pc, [r4], #223	; 0xdf
	...
d002d984:	5d000000 	stcpl	0, cr0, [r0]
d002d988:	d5dddddd 	ldrble	sp, [sp, #3549]	; 0xddd
d002d98c:	fdfdffff 	ldc2l	15, cr15, [sp, #1020]!	; 0x3fc
d002d990:	dddddddd 	ldclle	13, cr13, [sp, #884]	; 0x374
	...
d002d99c:	aaab8800 	bge	ceb0f9a4 <_start-0x151066c>
d002d9a0:	fbbbbbab 	blx	cef1c856 <_start-0x11037ba>
d002d9a4:	fffbfbfb 	undefined instruction 0xfffbfbfb
d002d9a8:	fffffffb 	undefined instruction 0xfffffffb
d002d9ac:	ffffffff 	undefined instruction 0xffffffff
d002d9b0:	ffffffff 	undefined instruction 0xffffffff
d002d9b4:	fbffffff 	blx	d002d9ba <gImage_pic+0xafee>
d002d9b8:	aaaaaafa 	bge	cead85a8 <_start-0x1547a68>
d002d9bc:	aaaaaaaa 	bge	cead846c <_start-0x1547ba4>
d002d9c0:	bbbbaaaa 	bllt	cef18470 <_start-0x1107ba0>
d002d9c4:	8088aaaa 	addhi	sl, r8, sl, lsr #21
d002d9c8:	00008000 	andeq	r8, r0, r0
d002d9cc:	80000000 	andhi	r0, r0, r0
d002d9d0:	aaaa8a88 	bge	cead03f8 <_start-0x154fc18>
d002d9d4:	aaaaaaaa 	bge	cead8484 <_start-0x1547b8c>
d002d9d8:	aaaaaaab 	bge	cead848c <_start-0x1547b84>
d002d9dc:	00aaaaaa 	adceq	sl, sl, sl, lsr #21
	...
d002d9e8:	ffff5f00 	undefined instruction 0xffff5f00
d002d9ec:	ffffffff 	undefined instruction 0xffffffff
d002d9f0:	ffffffff 	undefined instruction 0xffffffff
d002d9f4:	ffffffff 	undefined instruction 0xffffffff
d002d9f8:	ffffffff 	undefined instruction 0xffffffff
d002d9fc:	ffffffff 	undefined instruction 0xffffffff
d002da00:	ffffffff 	undefined instruction 0xffffffff
d002da04:	55f5fff7 	ldrbpl	pc, [r5, #4087]!	; 0xff7
d002da08:	57010051 	smlsdpl	r1, r1, r0, r0
d002da0c:	ffffff57 	undefined instruction 0xffffff57
d002da10:	000000f5 	strdeq	r0, [r0], -r5
	...
d002da1c:	ffff7705 	undefined instruction 0xffff7705
d002da20:	ff7f55f7 	undefined instruction 0xff7f55f7
d002da24:	f7f7ffff 	undefined instruction 0xf7f7ffff
d002da28:	00007757 	andeq	r7, r0, r7, asr r7
d002da2c:	00000000 	andeq	r0, r0, r0
d002da30:	02000000 	andeq	r0, r0, #0
d002da34:	aeaaaaaa 	vfmage.f32	s20, s21, s21
d002da38:	eeeeeeee 	cdp	14, 14, cr14, cr14, cr14, {7}
d002da3c:	efefeeee 	svc	0x00efeeee
d002da40:	efefefef 	svc	0x00efefef
d002da44:	efefefef 	svc	0x00efefef
d002da48:	eeefefef 	cdp	15, 14, cr14, cr15, cr15, {7}
d002da4c:	aaeaeeee 	bge	cfae960c <_start-0x536a04>
d002da50:	aaaaaaaa 	bge	cead8500 <_start-0x1547b10>
d002da54:	aaaaaaaa 	bge	cead8504 <_start-0x1547b0c>
d002da58:	aaaaaeaa 	bge	cead9508 <_start-0x1546b08>
d002da5c:	000000aa 	andeq	r0, r0, sl, lsr #1
d002da60:	00000000 	andeq	r0, r0, r0
d002da64:	aa020000 	bge	d00ada6c <bss_end+0x7849c>
d002da68:	aaaaaaaa 	bge	cead8518 <_start-0x1547af8>
d002da6c:	aaaaaaaa 	bge	cead851c <_start-0x1547af4>
d002da70:	aaaaaaaa 	bge	cead8520 <_start-0x1547af0>
d002da74:	000000aa 	andeq	r0, r0, sl, lsr #1
d002da78:	00000000 	andeq	r0, r0, r0
d002da7c:	5f000000 	svcpl	0x00000000
d002da80:	ffffffff 	undefined instruction 0xffffffff
d002da84:	ffffffff 	undefined instruction 0xffffffff
d002da88:	ffffffff 	undefined instruction 0xffffffff
d002da8c:	ffffffff 	undefined instruction 0xffffffff
d002da90:	ffffffff 	undefined instruction 0xffffffff
d002da94:	ffffffff 	undefined instruction 0xffffffff
d002da98:	fddfffff 	ldc2l	15, cr15, [pc, #1020]	; 0x3fc
d002da9c:	000044d4 	ldrdeq	r4, [r0], -r4
d002daa0:	dfdd0500 	svcle	0x00dd0500
d002daa4:	40ddffff 	ldrshmi	pc, [sp], #255	; 0xff
	...
d002dab0:	df5d0000 	svcle	0x005d0000
d002dab4:	dddddddf 	ldclle	13, cr13, [sp, #892]	; 0x37c
d002dab8:	dfffff5f 	svcle	0x00ffff5f
d002dabc:	dddddddd 	ldclle	13, cr13, [sp, #884]	; 0x374
	...
d002dac8:	aaaa0a00 	bge	ceab02d0 <_start-0x156fd40>
d002dacc:	bbbbbbbb 	bllt	cef1c9c0 <_start-0x1103650>
d002dad0:	ffbfbbbf 	undefined instruction 0xffbfbbbf
d002dad4:	ffffffbf 	undefined instruction 0xffffffbf
d002dad8:	ffffffff 	undefined instruction 0xffffffff
d002dadc:	ffffffff 	undefined instruction 0xffffffff
d002dae0:	ffffffff 	undefined instruction 0xffffffff
d002dae4:	aaaaaaba 	bge	cead85d4 <_start-0x1547a3c>
d002dae8:	aaaaaaaa 	bge	cead8598 <_start-0x1547a78>
d002daec:	bbaaaaaa 	bllt	cead859c <_start-0x1547a74>
d002daf0:	88aaaaba 	stmiahi	sl!, {r1, r3, r4, r5, r7, r9, fp, sp, pc}
d002daf4:	00000000 	andeq	r0, r0, r0
d002daf8:	88080000 	stmdahi	r8, {}
d002dafc:	aaaaaa8a 	bge	cead852c <_start-0x1547ae4>
d002db00:	aaaaaaaa 	bge	cead85b0 <_start-0x1547a60>
d002db04:	aaaabaab 	bge	ceadc5b8 <_start-0x1543a58>
d002db08:	00aaaaaa 	adceq	sl, sl, sl, lsr #21
	...
d002db14:	ffff7f01 	undefined instruction 0xffff7f01
d002db18:	ffffffff 	undefined instruction 0xffffffff
d002db1c:	ffffffff 	undefined instruction 0xffffffff
d002db20:	ffffffff 	undefined instruction 0xffffffff
d002db24:	ffffffff 	undefined instruction 0xffffffff
d002db28:	ffffffff 	undefined instruction 0xffffffff
d002db2c:	ffffffff 	undefined instruction 0xffffffff
d002db30:	1155fff7 	ldrshne	pc, [r5, #-247]	; 0xffffff09
d002db34:	11001010 	tstne	r0, r0, lsl r0
d002db38:	ffff5755 	undefined instruction 0xffff5755
d002db3c:	000051fd 	strdeq	r5, [r0], -sp
d002db40:	00000000 	andeq	r0, r0, r0
d002db44:	01000000 	tsteq	r0, r0
d002db48:	ffffff77 	undefined instruction 0xffffff77
d002db4c:	ff5755f5 	undefined instruction 0xff5755f5
d002db50:	7fffffff 	svcvc	0x00ffffff
d002db54:	00007575 	andeq	r7, r0, r5, ror r5
d002db58:	00000000 	andeq	r0, r0, r0
d002db5c:	0a000000 	beq	d002db64 <gImage_pic+0xb198>
d002db60:	eeaaaaaa 	vfma.f32	s20, s21, s21
d002db64:	eeeeeeee 	cdp	14, 14, cr14, cr14, cr14, {7}
d002db68:	eeeeeeee 	cdp	14, 14, cr14, cr14, cr14, {7}
d002db6c:	fefeeefe 	mrc2	14, 7, lr, cr14, cr14, {7}
d002db70:	eefefefe 	mrc	14, 7, pc, cr14, cr14, {7}
d002db74:	eefeeefe 	mrc	14, 7, lr, cr14, cr14, {7}
d002db78:	aaeaeeee 	bge	cfae9738 <_start-0x5368d8>
d002db7c:	aaaaaaaa 	bge	cead862c <_start-0x15479e4>
d002db80:	aaaaaaaa 	bge	cead8630 <_start-0x15479e0>
d002db84:	aaaaaaaa 	bge	cead8634 <_start-0x15479dc>
d002db88:	0000a0aa 	andeq	sl, r0, sl, lsr #1
d002db8c:	00000000 	andeq	r0, r0, r0
d002db90:	aaaa0000 	bge	ceaadb98 <_start-0x1572478>
d002db94:	aaaaaaaa 	bge	cead8644 <_start-0x15479cc>
d002db98:	aaaaaaaa 	bge	cead8648 <_start-0x15479c8>
d002db9c:	aaaaaaaa 	bge	cead864c <_start-0x15479c4>
d002dba0:	000000aa 	andeq	r0, r0, sl, lsr #1
d002dba4:	00000000 	andeq	r0, r0, r0
d002dba8:	ff000000 	undefined instruction 0xff000000
d002dbac:	ffffffff 	undefined instruction 0xffffffff
d002dbb0:	ffffffff 	undefined instruction 0xffffffff
d002dbb4:	ffffffff 	undefined instruction 0xffffffff
d002dbb8:	ffffffff 	undefined instruction 0xffffffff
d002dbbc:	ffffffff 	undefined instruction 0xffffffff
d002dbc0:	ffffffff 	undefined instruction 0xffffffff
d002dbc4:	fdddffff 	ldc2l	15, cr15, [sp, #1020]	; 0x3fc
d002dbc8:	0000c4dd 	ldrdeq	ip, [r0], -sp
d002dbcc:	d5550000 	ldrble	r0, [r5]
d002dbd0:	d4fdffff 	ldrbtle	pc, [sp], #4095	; 0xfff
	...
d002dbdc:	dddd1500 	cfldr64le	mvdx1, [sp]
d002dbe0:	d4dddddd 	ldrble	sp, [sp], #3549	; 0xddd
d002dbe4:	ddffff45 	ldclle	15, cr15, [pc, #276]!	; 0x114
d002dbe8:	dddddddd 	ldclle	13, cr13, [sp, #884]	; 0x374
d002dbec:	00000000 	andeq	r0, r0, r0
d002dbf0:	00800000 	addeq	r0, r0, r0
d002dbf4:	abaa8a00 	blge	cead03fc <_start-0x154fc14>
d002dbf8:	bbbbbbbb 	bllt	cef1caec <_start-0x1103524>
d002dbfc:	fffffbfb 	undefined instruction 0xfffffbfb
d002dc00:	ffffffff 	undefined instruction 0xffffffff
d002dc04:	ffffffff 	undefined instruction 0xffffffff
d002dc08:	ffffffff 	undefined instruction 0xffffffff
d002dc0c:	fbffffff 	blx	d002dc12 <gImage_pic+0xb246>
d002dc10:	aaaaaafa 	bge	cead8800 <_start-0x1547810>
d002dc14:	aaaaaaaa 	bge	cead86c4 <_start-0x154794c>
d002dc18:	abaaaaaa 	blge	cead86c8 <_start-0x1547948>
d002dc1c:	a8aaaaab 	stmiage	sl!, {r0, r1, r3, r5, r7, r9, fp, sp, pc}
d002dc20:	80808080 	addhi	r8, r0, r0, lsl #1
d002dc24:	8a888080 	bhi	ce24de2c <_start-0x1dd21e4>
d002dc28:	aaaaaaaa 	bge	cead86d8 <_start-0x1547938>
d002dc2c:	aaaaaaaa 	bge	cead86dc <_start-0x1547934>
d002dc30:	aaaabbaa 	bge	ceadcae0 <_start-0x1543530>
d002dc34:	00aaaaaa 	adceq	sl, sl, sl, lsr #21
	...
d002dc40:	ffff7f01 	undefined instruction 0xffff7f01
d002dc44:	ffffffff 	undefined instruction 0xffffffff
d002dc48:	ffffffff 	undefined instruction 0xffffffff
d002dc4c:	ffffffff 	undefined instruction 0xffffffff
d002dc50:	ffffffff 	undefined instruction 0xffffffff
d002dc54:	ffffffff 	undefined instruction 0xffffffff
d002dc58:	ffffffff 	undefined instruction 0xffffffff
d002dc5c:	f5fffff7 	undefined instruction 0xf5fffff7
d002dc60:	00515101 	subseq	r5, r1, r1, lsl #2
d002dc64:	ff7f5515 	undefined instruction 0xff7f5515
d002dc68:	000055f7 	strdeq	r5, [r0], -r7
d002dc6c:	00000000 	andeq	r0, r0, r0
d002dc70:	77010000 	strvc	r0, [r1, -r0]
d002dc74:	f7ffffff 	undefined instruction 0xf7ffffff
d002dc78:	7f5155f7 	svcvc	0x005155f7
d002dc7c:	f7f7ffff 	undefined instruction 0xf7f7ffff
d002dc80:	000057f7 	strdeq	r5, [r0], -r7
d002dc84:	00000000 	andeq	r0, r0, r0
d002dc88:	2a000000 	bcs	d002dc90 <gImage_pic+0xb2c4>
d002dc8c:	eeaeaaaa 	vfma.f32	s20, s29, s21
d002dc90:	eeeeeeee 	cdp	14, 14, cr14, cr14, cr14, {7}
d002dc94:	efefefee 	svc	0x00efefee
d002dc98:	efefefef 	svc	0x00efefef
d002dc9c:	efefefef 	svc	0x00efefef
d002dca0:	efefefef 	svc	0x00efefef
d002dca4:	aaeeeeee 	bge	cfbe9864 <_start-0x4367ac>
d002dca8:	aaaaaaaa 	bge	cead8758 <_start-0x15478b8>
d002dcac:	aaaaaaaa 	bge	cead875c <_start-0x15478b4>
d002dcb0:	aaaaaaaa 	bge	cead8760 <_start-0x15478b0>
d002dcb4:	0000a2aa 	andeq	sl, r0, sl, lsr #5
d002dcb8:	02000000 	andeq	r0, r0, #0
d002dcbc:	aaaaaa22 	bge	cead854c <_start-0x1547ac4>
d002dcc0:	aaaaaaaa 	bge	cead8770 <_start-0x15478a0>
d002dcc4:	aeaaaaaa 	vfmage.f32	s20, s21, s21
d002dcc8:	aaaaaaaa 	bge	cead8778 <_start-0x1547898>
d002dccc:	000000aa 	andeq	r0, r0, sl, lsr #1
d002dcd0:	00000000 	andeq	r0, r0, r0
d002dcd4:	ff050000 	undefined instruction 0xff050000
d002dcd8:	ffffffff 	undefined instruction 0xffffffff
d002dcdc:	ffffffff 	undefined instruction 0xffffffff
d002dce0:	ffffffff 	undefined instruction 0xffffffff
d002dce4:	ffffffff 	undefined instruction 0xffffffff
d002dce8:	ffffffff 	undefined instruction 0xffffffff
d002dcec:	ffffffff 	undefined instruction 0xffffffff
d002dcf0:	dfddffff 	svcle	0x00ddffff
d002dcf4:	5545dcff 	strbpl	sp, [r5, #-3327]	; 0xcff
d002dcf8:	45044044 	strmi	r4, [r4, #-68]	; 0x44
d002dcfc:	d4dddf5d 	ldrble	sp, [sp], #3933	; 0xf5d
	...
d002dd08:	dfdfdd5d 	svcle	0x00dfdd5d
d002dd0c:	d5dddddd 	ldrble	sp, [sp, #3549]	; 0xddd
d002dd10:	fdff5f45 	ldc2l	15, cr5, [pc, #276]!	; 0x114
d002dd14:	dddddddd 	ldclle	13, cr13, [sp, #884]	; 0x374
	...
d002dd20:	abaa8a00 	blge	cead0528 <_start-0x154fae8>
d002dd24:	bfbbbbbb 	svclt	0x00bbbbbb
d002dd28:	ffffbfbb 	undefined instruction 0xffffbfbb
d002dd2c:	ffffffff 	undefined instruction 0xffffffff
d002dd30:	ffffffff 	undefined instruction 0xffffffff
d002dd34:	ffffffff 	undefined instruction 0xffffffff
d002dd38:	ffffffff 	undefined instruction 0xffffffff
d002dd3c:	baaaaafb 	blt	cead8930 <_start-0x15476e0>
d002dd40:	aaaaaaaa 	bge	cead87f0 <_start-0x1547820>
d002dd44:	aaaaaaaa 	bge	cead87f4 <_start-0x154781c>
d002dd48:	a8aaaaaa 	stmiage	sl!, {r1, r3, r5, r7, r9, fp, sp, pc}
d002dd4c:	88880888 	stmhi	r8, {r3, r7, fp}
d002dd50:	aaaa8888 	bge	ceacff78 <_start-0x1550098>
d002dd54:	aaaaaaaa 	bge	cead8804 <_start-0x154780c>
d002dd58:	aaaaaaaa 	bge	cead8808 <_start-0x1547808>
d002dd5c:	aaaaabaa 	bge	cead8c0c <_start-0x1547404>
d002dd60:	00aaaaaa 	adceq	sl, sl, sl, lsr #21
	...
d002dd6c:	ffffff05 	undefined instruction 0xffffff05
d002dd70:	ffffffff 	undefined instruction 0xffffffff
d002dd74:	ffffffff 	undefined instruction 0xffffffff
d002dd78:	ffffffff 	undefined instruction 0xffffffff
d002dd7c:	ffffffff 	undefined instruction 0xffffffff
d002dd80:	ffffffff 	undefined instruction 0xffffffff
d002dd84:	ffffffff 	undefined instruction 0xffffffff
d002dd88:	fdff7ff5 	ldc2l	15, cr7, [pc, #980]!	; 0x3d4
d002dd8c:	51557555 	cmppl	r5, r5, asr r5
d002dd90:	7f551101 	svcvc	0x00551101
d002dd94:	000055ff 	strdeq	r5, [r0], -pc
d002dd98:	00000000 	andeq	r0, r0, r0
d002dd9c:	ff7f1501 	undefined instruction 0xff7f1501
d002dda0:	f7ffffff 	undefined instruction 0xf7ffffff
d002dda4:	5f515575 	svcpl	0x00515575
d002dda8:	75ffffff 	ldrbvc	pc, [pc, #4095]!	; d002edaf <gImage_pic+0xc3e3>
d002ddac:	0000557f 	andeq	r5, r0, pc, ror r5
d002ddb0:	00000000 	andeq	r0, r0, r0
d002ddb4:	2a000000 	bcs	d002ddbc <gImage_pic+0xb3f0>
d002ddb8:	aaaaaaaa 	bge	cead8868 <_start-0x15477a8>
d002ddbc:	eeeeeeea 	cdp	14, 14, cr14, cr14, cr10, {7}
d002ddc0:	fefeeeee 	cdp2	14, 15, cr14, cr14, cr14, {7}
d002ddc4:	fefefefe 	mrc2	14, 7, pc, cr14, cr14, {7}
d002ddc8:	fefefefe 	mrc2	14, 7, pc, cr14, cr14, {7}
d002ddcc:	eeeefefe 	mcr	14, 7, pc, cr14, cr14, {7}
d002ddd0:	aaeeeeee 	bge	cfbe9990 <_start-0x436680>
d002ddd4:	aaaaaaaa 	bge	cead8884 <_start-0x154778c>
d002ddd8:	aaaaaaaa 	bge	cead8888 <_start-0x1547788>
d002dddc:	aaaaaaaa 	bge	cead888c <_start-0x1547784>
d002dde0:	0020aaaa 	eoreq	sl, r0, sl, lsr #21
d002dde4:	aa2a2000 	bge	d0ab5dec <bss_end+0xa8081c>
d002dde8:	aaaaaaaa 	bge	cead8898 <_start-0x1547778>
d002ddec:	aaaaaaaa 	bge	cead889c <_start-0x1547774>
d002ddf0:	aaaaaaaa 	bge	cead88a0 <_start-0x1547770>
d002ddf4:	aaaaaaaa 	bge	cead88a4 <_start-0x154776c>
d002ddf8:	000000aa 	andeq	r0, r0, sl, lsr #1
d002ddfc:	00000000 	andeq	r0, r0, r0
d002de00:	fd050000 	stc2	0, cr0, [r5]
d002de04:	ffffffff 	undefined instruction 0xffffffff
d002de08:	ffffffff 	undefined instruction 0xffffffff
d002de0c:	ffffffff 	undefined instruction 0xffffffff
d002de10:	ffffffff 	undefined instruction 0xffffffff
d002de14:	ffffffff 	undefined instruction 0xffffffff
d002de18:	ffffffff 	undefined instruction 0xffffffff
d002de1c:	ddfdffff 	ldclle	15, cr15, [sp, #1020]!	; 0x3fc
d002de20:	ddddfdff 	ldclle	13, cr15, [sp, #1020]	; 0x3fc
d002de24:	000044d5 	ldrdeq	r4, [r0], -r5
d002de28:	d4dddd55 	ldrble	sp, [sp], #3413	; 0xd55
d002de2c:	00000040 	andeq	r0, r0, r0, asr #32
d002de30:	dd550000 	ldclle	0, cr0, [r5]
d002de34:	fdfddddd 	ldc2l	13, cr13, [sp, #884]!	; 0x374
d002de38:	d4ddddfd 	ldrble	sp, [sp], #3581	; 0xdfd
d002de3c:	fdff5544 	ldc2l	5, cr5, [pc, #272]!	; 0x110
d002de40:	dddddddd 	ldclle	13, cr13, [sp, #884]	; 0x374
d002de44:	00008000 	andeq	r8, r0, r0
d002de48:	00008000 	andeq	r8, r0, r0
d002de4c:	abaa8a00 	blge	cead0654 <_start-0x154f9bc>
d002de50:	bbbbbbab 	bllt	cef1cd04 <_start-0x110330c>
d002de54:	fffffbfb 	undefined instruction 0xfffffbfb
d002de58:	ffffffff 	undefined instruction 0xffffffff
d002de5c:	ffffffff 	undefined instruction 0xffffffff
d002de60:	ffffffff 	undefined instruction 0xffffffff
d002de64:	ffffffff 	undefined instruction 0xffffffff
d002de68:	abaaaafb 	blge	cead8a5c <_start-0x15475b4>
d002de6c:	aaaaaaaa 	bge	cead891c <_start-0x15476f4>
d002de70:	aaaaaaaa 	bge	cead8920 <_start-0x15476f0>
d002de74:	aaaaaaaa 	bge	cead8924 <_start-0x15476ec>
d002de78:	aa888888 	bge	ce2500a0 <_start-0x1dcff70>
d002de7c:	aaaaaaaa 	bge	cead892c <_start-0x15476e4>
d002de80:	aaaaaaaa 	bge	cead8930 <_start-0x15476e0>
d002de84:	aaaaaaaa 	bge	cead8934 <_start-0x15476dc>
d002de88:	aabaabaa 	bge	ceed8d38 <_start-0x11472d8>
d002de8c:	00aaaaaa 	adceq	sl, sl, sl, lsr #21
	...
d002de98:	ffffff17 	undefined instruction 0xffffff17
d002de9c:	ffffffff 	undefined instruction 0xffffffff
d002dea0:	ffffffff 	undefined instruction 0xffffffff
d002dea4:	ffffffff 	undefined instruction 0xffffffff
d002dea8:	ffffffff 	undefined instruction 0xffffffff
d002deac:	ffffffff 	undefined instruction 0xffffffff
d002deb0:	ffffffff 	undefined instruction 0xffffffff
d002deb4:	ffff57ff 	undefined instruction 0xffff57ff
d002deb8:	5577ffff 	ldrbpl	pc, [r7, #-4095]!	; 0xfff
d002debc:	57551101 	ldrbpl	r1, [r5, -r1, lsl #2]
d002dec0:	00515555 	subseq	r5, r1, r5, asr r5
d002dec4:	55110100 	ldrpl	r0, [r1, #-256]	; 0x100
d002dec8:	fff77757 	undefined instruction 0xfff77757
d002decc:	f7ffffff 	undefined instruction 0xf7ffffff
d002ded0:	17515555 	undefined instruction 0x17515555
d002ded4:	f7f7ffff 	undefined instruction 0xf7f7ffff
d002ded8:	00005757 	andeq	r5, r0, r7, asr r7
d002dedc:	00000000 	andeq	r0, r0, r0
d002dee0:	2a000000 	bcs	d002dee8 <gImage_pic+0xb51c>
d002dee4:	aeaaaaaa 	vfmage.f32	s20, s21, s21
d002dee8:	eeeeeeee 	cdp	14, 14, cr14, cr14, cr14, {7}
d002deec:	efefefee 	svc	0x00efefee
d002def0:	ffefefef 	undefined instruction 0xffefefef
d002def4:	efefefef 	svc	0x00efefef
d002def8:	eeefefef 	cdp	15, 14, cr14, cr15, cr15, {7}
d002defc:	aaeeeeee 	bge	cfbe9abc <_start-0x436554>
d002df00:	aaaaaaaa 	bge	cead89b0 <_start-0x1547660>
d002df04:	aaaaaaaa 	bge	cead89b4 <_start-0x154765c>
d002df08:	aaaaaaaa 	bge	cead89b8 <_start-0x1547658>
d002df0c:	aaaaaaaa 	bge	cead89bc <_start-0x1547654>
d002df10:	aaaaaaaa 	bge	cead89c0 <_start-0x1547650>
d002df14:	aaaaaaaa 	bge	cead89c4 <_start-0x154764c>
d002df18:	aaaaaaaa 	bge	cead89c8 <_start-0x1547648>
d002df1c:	aaaaaaaa 	bge	cead89cc <_start-0x1547644>
d002df20:	aaaaaaae 	bge	cead89e0 <_start-0x1547630>
d002df24:	000000aa 	andeq	r0, r0, sl, lsr #1
d002df28:	00000000 	andeq	r0, r0, r0
d002df2c:	ff050000 	undefined instruction 0xff050000
d002df30:	ffffffdf 	undefined instruction 0xffffffdf
d002df34:	ffffffff 	undefined instruction 0xffffffff
d002df38:	ffffffff 	undefined instruction 0xffffffff
d002df3c:	ffffffff 	undefined instruction 0xffffffff
d002df40:	ffffffff 	undefined instruction 0xffffffff
d002df44:	ffffffff 	undefined instruction 0xffffffff
d002df48:	ddfdffff 	ldclle	15, cr15, [sp, #1020]!	; 0x3fc
d002df4c:	ddffffdf 	ldclle	15, cr15, [pc, #892]!	; 0x37c
d002df50:	0040dddd 	ldrdeq	sp, [r0], #-221	; 0xffffff23
d002df54:	dddd5d05 	ldclle	13, cr5, [sp, #20]
d002df58:	454444d5 	strbmi	r4, [r4, #-1237]	; 0x4d5
d002df5c:	dddddd55 	ldclle	13, cr13, [sp, #340]	; 0x154
d002df60:	ffffdfdd 	undefined instruction 0xffffdfdd
d002df64:	55ddddff 	ldrbpl	sp, [sp, #3583]	; 0xdff
d002df68:	ffdf0544 	undefined instruction 0xffdf0544
d002df6c:	dddddddd 	ldclle	13, cr13, [sp, #884]	; 0x374
	...
d002df78:	aaaaaa08 	bge	cead87a0 <_start-0x1547870>
d002df7c:	bbbbbbbb 	bllt	cef1ce70 <_start-0x11031a0>
d002df80:	ffffbfbf 	undefined instruction 0xffffbfbf
d002df84:	ffffffff 	undefined instruction 0xffffffff
d002df88:	ffffffff 	undefined instruction 0xffffffff
d002df8c:	ffffffff 	undefined instruction 0xffffffff
d002df90:	ffffffff 	undefined instruction 0xffffffff
d002df94:	aaaaaaff 	bge	cead8b98 <_start-0x1547478>
d002df98:	aaaabaaa 	bge	ceadca48 <_start-0x15435c8>
d002df9c:	aaaaaaaa 	bge	cead8a4c <_start-0x15475c4>
d002dfa0:	aaaaaaaa 	bge	cead8a50 <_start-0x15475c0>
d002dfa4:	aaaaaaaa 	bge	cead8a54 <_start-0x15475bc>
d002dfa8:	aaaaaaaa 	bge	cead8a58 <_start-0x15475b8>
d002dfac:	aaaaaaaa 	bge	cead8a5c <_start-0x15475b4>
d002dfb0:	aaaaaaaa 	bge	cead8a60 <_start-0x15475b0>
d002dfb4:	aabbaaaa 	bge	cef18a64 <_start-0x11075ac>
d002dfb8:	00aaaaaa 	adceq	sl, sl, sl, lsr #21
	...
d002dfc4:	ffffff17 	undefined instruction 0xffffff17
d002dfc8:	ffffffff 	undefined instruction 0xffffffff
d002dfcc:	ffffffff 	undefined instruction 0xffffffff
d002dfd0:	ffffffff 	undefined instruction 0xffffffff
d002dfd4:	ffffffff 	undefined instruction 0xffffffff
d002dfd8:	ffffffff 	undefined instruction 0xffffffff
d002dfdc:	ffffffff 	undefined instruction 0xffffffff
d002dfe0:	ff5755ff 	undefined instruction 0xff5755ff
d002dfe4:	75ffffff 	ldrbvc	pc, [pc, #4095]!	; d002efeb <gImage_pic+0xc61f>
d002dfe8:	55111050 	ldrpl	r1, [r1, #-80]	; 0x50
d002dfec:	55555555 	ldrbpl	r5, [r5, #-1365]	; 0x555
d002dff0:	55555555 	ldrbpl	r5, [r5, #-1365]	; 0x555
d002dff4:	ff7f7755 	undefined instruction 0xff7f7755
d002dff8:	ffffffff 	undefined instruction 0xffffffff
d002dffc:	11515575 	cmpne	r1, r5, ror r5
d002e000:	75ffff7f 	ldrbvc	pc, [pc, #3967]!	; d002ef87 <gImage_pic+0xc5bb>
d002e004:	00007555 	andeq	r7, r0, r5, asr r5
d002e008:	00000000 	andeq	r0, r0, r0
d002e00c:	aa000000 	bge	d002e014 <gImage_pic+0xb648>
d002e010:	eaaaaaaa 	b	cead8ac0 <_start-0x1547550>
d002e014:	eeeeeeea 	cdp	14, 14, cr14, cr14, cr10, {7}
d002e018:	fefeeeee 	cdp2	14, 15, cr14, cr14, cr14, {7}
d002e01c:	fefeeefe 	mrc2	14, 7, lr, cr14, cr14, {7}
d002e020:	fefefefe 	mrc2	14, 7, pc, cr14, cr14, {7}
d002e024:	eefefefe 	mrc	14, 7, pc, cr14, cr14, {7}
d002e028:	eaeeeeee 	b	cfbe9be8 <_start-0x436428>
d002e02c:	aaaaaaaa 	bge	cead8adc <_start-0x1547534>
d002e030:	aaaaaaaa 	bge	cead8ae0 <_start-0x1547530>
d002e034:	aaaaaaaa 	bge	cead8ae4 <_start-0x154752c>
d002e038:	aaaaaaaa 	bge	cead8ae8 <_start-0x1547528>
d002e03c:	aaaaaaaa 	bge	cead8aec <_start-0x1547524>
d002e040:	aaaaaaaa 	bge	cead8af0 <_start-0x1547520>
d002e044:	aaaaaaaa 	bge	cead8af4 <_start-0x154751c>
d002e048:	aaaaaaaa 	bge	cead8af8 <_start-0x1547518>
d002e04c:	aaaaaaaa 	bge	cead8afc <_start-0x1547514>
d002e050:	000000aa 	andeq	r0, r0, sl, lsr #1
d002e054:	00000000 	andeq	r0, r0, r0
d002e058:	dd1d0000 	ldcle	0, cr0, [sp]
d002e05c:	ffffffff 	undefined instruction 0xffffffff
d002e060:	ffffffff 	undefined instruction 0xffffffff
d002e064:	ffffffff 	undefined instruction 0xffffffff
d002e068:	ffffffff 	undefined instruction 0xffffffff
d002e06c:	ffffffff 	undefined instruction 0xffffffff
d002e070:	ffffffff 	undefined instruction 0xffffffff
d002e074:	d5fdffff 	ldrble	pc, [sp, #4095]!	; 0xfff
d002e078:	ffffddd5 	undefined instruction 0xffffddd5
d002e07c:	40d4dddd 	ldrsbmi	sp, [r4], #221	; 0xdd
d002e080:	dddd5500 	cfldr64le	mvdx5, [sp]
d002e084:	d5d5dddd 	ldrble	sp, [r5, #3549]	; 0xddd
d002e088:	ddddddd5 	ldclle	13, cr13, [sp, #852]	; 0x354
d002e08c:	ffffdddd 	undefined instruction 0xffffdddd
d002e090:	d4ddfdfd 	ldrble	pc, [sp], #3581	; 0xdfd
d002e094:	ff5d0044 	undefined instruction 0xff5d0044
d002e098:	ddd5ddfd 	ldclle	13, cr13, [r5, #1012]	; 0x3f4
d002e09c:	00800000 	addeq	r0, r0, r0
d002e0a0:	00800000 	addeq	r0, r0, r0
d002e0a4:	abaaaa88 	blge	cead8acc <_start-0x1547544>
d002e0a8:	bbbbbbbb 	bllt	cef1cf9c <_start-0x1103074>
d002e0ac:	fffbfbfb 	undefined instruction 0xfffbfbfb
d002e0b0:	ffffffff 	undefined instruction 0xffffffff
d002e0b4:	ffffffff 	undefined instruction 0xffffffff
d002e0b8:	ffffffff 	undefined instruction 0xffffffff
d002e0bc:	ffffffff 	undefined instruction 0xffffffff
d002e0c0:	aaaabafb 	bge	ceadccb4 <_start-0x154335c>
d002e0c4:	aaaaabaa 	bge	cead8f74 <_start-0x154709c>
d002e0c8:	aaaaaaaa 	bge	cead8b78 <_start-0x1547498>
d002e0cc:	aaaaaaaa 	bge	cead8b7c <_start-0x1547494>
d002e0d0:	aaaaaaaa 	bge	cead8b80 <_start-0x1547490>
d002e0d4:	aaaaaaaa 	bge	cead8b84 <_start-0x154748c>
d002e0d8:	aaababaa 	bge	ceb18f88 <_start-0x1507088>
d002e0dc:	aaaaaaaa 	bge	cead8b8c <_start-0x1547484>
d002e0e0:	aaabaaa8 	bge	ceb18b88 <_start-0x1507488>
d002e0e4:	00aaaaaa 	adceq	sl, sl, sl, lsr #21
	...
d002e0f0:	ffffff57 	undefined instruction 0xffffff57
d002e0f4:	ffffffff 	undefined instruction 0xffffffff
d002e0f8:	ffffffff 	undefined instruction 0xffffffff
d002e0fc:	ffffffff 	undefined instruction 0xffffffff
d002e100:	ffffffff 	undefined instruction 0xffffffff
d002e104:	ffffffff 	undefined instruction 0xffffffff
d002e108:	ffffffff 	undefined instruction 0xffffffff
d002e10c:	5755d5ff 	smmlsrpl	r5, pc, r5, sp
d002e110:	ffffffff 	undefined instruction 0xffffffff
d002e114:	550151f5 	strpl	r5, [r1, #-501]	; 0x1f5
d002e118:	57575557 	undefined instruction 0x57575557
d002e11c:	57555557 	undefined instruction 0x57555557
d002e120:	fff77757 	undefined instruction 0xfff77757
d002e124:	ffffffff 	undefined instruction 0xffffffff
d002e128:	005155f7 	ldrsheq	r5, [r1], #-87	; 0xffffffa9
d002e12c:	f7ffff17 	undefined instruction 0xf7ffff17
d002e130:	00005555 	andeq	r5, r0, r5, asr r5
d002e134:	00000000 	andeq	r0, r0, r0
d002e138:	aa020000 	bge	d00ae140 <bss_end+0x78b70>
d002e13c:	eeaeaaaa 	vfma.f32	s20, s29, s21
d002e140:	eeeeeeee 	cdp	14, 14, cr14, cr14, cr14, {7}
d002e144:	efefefee 	svc	0x00efefee
d002e148:	efefefef 	svc	0x00efefef
d002e14c:	efffefef 	svc	0x00ffefef
d002e150:	efefefef 	svc	0x00efefef
d002e154:	eaeeeeee 	b	cfbe9d14 <_start-0x4362fc>
d002e158:	aaaaaaaa 	bge	cead8c08 <_start-0x1547408>
d002e15c:	aaaaaaaa 	bge	cead8c0c <_start-0x1547404>
d002e160:	aaaaaaaa 	bge	cead8c10 <_start-0x1547400>
d002e164:	aaaaaaaa 	bge	cead8c14 <_start-0x15473fc>
d002e168:	aaaaaaaa 	bge	cead8c18 <_start-0x15473f8>
d002e16c:	aaaaaaaa 	bge	cead8c1c <_start-0x15473f4>
d002e170:	aaaaaaaa 	bge	cead8c20 <_start-0x15473f0>
d002e174:	aaaaaaaa 	bge	cead8c24 <_start-0x15473ec>
d002e178:	aaaaeaaa 	bge	ceae8c28 <_start-0x15373e8>
d002e17c:	000000aa 	andeq	r0, r0, sl, lsr #1
d002e180:	00000000 	andeq	r0, r0, r0
d002e184:	df5d0000 	svcle	0x005d0000
d002e188:	ffffffff 	undefined instruction 0xffffffff
d002e18c:	ffffffff 	undefined instruction 0xffffffff
d002e190:	ffffffff 	undefined instruction 0xffffffff
d002e194:	ffffffff 	undefined instruction 0xffffffff
d002e198:	ffffffff 	undefined instruction 0xffffffff
d002e19c:	ffffffff 	undefined instruction 0xffffffff
d002e1a0:	ddffffff 	ldclle	15, cr15, [pc, #1020]!	; 0x3fc
d002e1a4:	ffdf5d55 	undefined instruction 0xffdf5d55
d002e1a8:	40ddffff 	ldrshmi	pc, [sp], #255	; 0xff
d002e1ac:	dddd0500 	cfldr64le	mvdx0, [sp]
d002e1b0:	dddddddd 	ldclle	13, cr13, [sp, #884]	; 0x374
d002e1b4:	dddddddd 	ldclle	13, cr13, [sp, #884]	; 0x374
d002e1b8:	ffffdfdf 	undefined instruction 0xffffdfdf
d002e1bc:	d4ddddff 	ldrble	sp, [sp], #3583	; 0xdff
d002e1c0:	df050044 	svcle	0x00050044
d002e1c4:	44ddddff 	ldrbmi	sp, [sp], #3583	; 0xdff
	...
d002e1d0:	abaaaa0a 	blge	cead8a00 <_start-0x1547610>
d002e1d4:	bfbbbbbb 	svclt	0x00bbbbbb
d002e1d8:	bfbbbbbb 	svclt	0x00bbbbbb
d002e1dc:	ffffffff 	undefined instruction 0xffffffff
d002e1e0:	ffffffff 	undefined instruction 0xffffffff
d002e1e4:	ffffffff 	undefined instruction 0xffffffff
d002e1e8:	ffffffff 	undefined instruction 0xffffffff
d002e1ec:	aaaabaff 	bge	ceadcdf0 <_start-0x1543220>
d002e1f0:	aaaaaaaa 	bge	cead8ca0 <_start-0x1547370>
d002e1f4:	8aaaaaaa 	bhi	cead8ca4 <_start-0x154736c>
d002e1f8:	aaaaaaaa 	bge	cead8ca8 <_start-0x1547368>
d002e1fc:	aaaaaaaa 	bge	cead8cac <_start-0x1547364>
d002e200:	aaaaaaaa 	bge	cead8cb0 <_start-0x1547360>
d002e204:	aaaaaaaa 	bge	cead8cb4 <_start-0x154735c>
d002e208:	aaaaaaaa 	bge	cead8cb8 <_start-0x1547358>
d002e20c:	baaa8aaa 	blt	cead0cbc <_start-0x154f354>
d002e210:	00aaaaaa 	adceq	sl, sl, sl, lsr #21
d002e214:	00000000 	andeq	r0, r0, r0
d002e218:	01000000 	tsteq	r0, r0
d002e21c:	ffff7f55 	undefined instruction 0xffff7f55
d002e220:	ffffffff 	undefined instruction 0xffffffff
d002e224:	ffffffff 	undefined instruction 0xffffffff
d002e228:	ffffffff 	undefined instruction 0xffffffff
d002e22c:	ffffffff 	undefined instruction 0xffffffff
d002e230:	ffffffff 	undefined instruction 0xffffffff
d002e234:	ffffffff 	undefined instruction 0xffffffff
d002e238:	5555f5ff 	ldrbpl	pc, [r5, #-1535]	; 0x5ff
d002e23c:	ffffff7f 	undefined instruction 0xffffff7f
d002e240:	150010f5 	strne	r1, [r0, #-245]	; 0xf5
d002e244:	77757575 	undefined instruction 0x77757575
d002e248:	77757577 	undefined instruction 0x77757577
d002e24c:	ffff7f7f 	undefined instruction 0xffff7f7f
d002e250:	ffffffff 	undefined instruction 0xffffffff
d002e254:	001155f5 	ldrsheq	r5, [r1], -r5
d002e258:	f5ff7f01 	undefined instruction 0xf5ff7f01
d002e25c:	00005555 	andeq	r5, r0, r5, asr r5
d002e260:	00000000 	andeq	r0, r0, r0
d002e264:	aa020000 	bge	d00ae26c <bss_end+0x78c9c>
d002e268:	eeeaaaaa 	vfma.f32	s21, s21, s21
d002e26c:	eeeeeeea 	cdp	14, 14, cr14, cr14, cr10, {7}
d002e270:	eeeeeeee 	cdp	14, 14, cr14, cr14, cr14, {7}
d002e274:	feeeeeee 	cdp2	14, 14, cr14, cr14, cr14, {7}
d002e278:	fefefefe 	mrc2	14, 7, pc, cr14, cr14, {7}
d002e27c:	feeefefe 	mcr2	14, 7, pc, cr14, cr14, {7}
d002e280:	eaeeeeee 	b	cfbe9e40 <_start-0x4361d0>
d002e284:	aaaaaaaa 	bge	cead8d34 <_start-0x15472dc>
d002e288:	aaaaaaaa 	bge	cead8d38 <_start-0x15472d8>
d002e28c:	aaaaaaaa 	bge	cead8d3c <_start-0x15472d4>
d002e290:	aaaaaaaa 	bge	cead8d40 <_start-0x15472d0>
d002e294:	aaaaaaaa 	bge	cead8d44 <_start-0x15472cc>
d002e298:	aaaaaaaa 	bge	cead8d48 <_start-0x15472c8>
d002e29c:	aaaaaaaa 	bge	cead8d4c <_start-0x15472c4>
d002e2a0:	aaaaaaaa 	bge	cead8d50 <_start-0x15472c0>
d002e2a4:	aaaaaaaa 	bge	cead8d54 <_start-0x15472bc>
d002e2a8:	000000aa 	andeq	r0, r0, sl, lsr #1
d002e2ac:	00000000 	andeq	r0, r0, r0
d002e2b0:	dd5d0000 	ldclle	0, cr0, [sp]
d002e2b4:	ffffffff 	undefined instruction 0xffffffff
d002e2b8:	ffffffff 	undefined instruction 0xffffffff
d002e2bc:	ffffffff 	undefined instruction 0xffffffff
d002e2c0:	ffffffff 	undefined instruction 0xffffffff
d002e2c4:	ffffffff 	undefined instruction 0xffffffff
d002e2c8:	ffffffff 	undefined instruction 0xffffffff
d002e2cc:	ddffffff 	ldclle	15, cr15, [pc, #1020]!	; 0x3fc
d002e2d0:	ffddd5d5 	undefined instruction 0xffddd5d5
d002e2d4:	40d4ffff 	ldrshmi	pc, [r4], #255	; 0xff
d002e2d8:	dddd0500 	cfldr64le	mvdx0, [sp]
d002e2dc:	dddddddd 	ldclle	13, cr13, [sp, #884]	; 0x374
d002e2e0:	dddddddd 	ldclle	13, cr13, [sp, #884]	; 0x374
d002e2e4:	fffffddd 	undefined instruction 0xfffffddd
d002e2e8:	d4ddfdff 	ldrble	pc, [sp], #3583	; 0xdff
d002e2ec:	5d000040 	stcpl	0, cr0, [r0, #-256]	; 0xffffff00
d002e2f0:	d4ddddff 	ldrble	sp, [sp], #3583	; 0xdff
d002e2f4:	80000000 	andhi	r0, r0, r0
d002e2f8:	00000000 	andeq	r0, r0, r0
d002e2fc:	abaaaa8a 	blge	cead8d2c <_start-0x15472e4>
d002e300:	bbbbbbbb 	bllt	cef1d1f4 <_start-0x1102e1c>
d002e304:	fffbfbbb 	undefined instruction 0xfffbfbbb
d002e308:	ffffffff 	undefined instruction 0xffffffff
d002e30c:	ffffffff 	undefined instruction 0xffffffff
d002e310:	ffffffff 	undefined instruction 0xffffffff
d002e314:	ffffffff 	undefined instruction 0xffffffff
d002e318:	aaaabbfb 	bge	ceadd30c <_start-0x1542d04>
d002e31c:	bbabaaaa 	bllt	ceb18dcc <_start-0x1507244>
d002e320:	88aaaabb 	stmiahi	sl!, {r0, r1, r3, r4, r5, r7, r9, fp, sp, pc}
d002e324:	aaaaaaaa 	bge	cead8dd4 <_start-0x154723c>
d002e328:	aaaaaaaa 	bge	cead8dd8 <_start-0x1547238>
d002e32c:	aaaaaaaa 	bge	cead8ddc <_start-0x1547234>
d002e330:	abababaa 	blge	ceb191e0 <_start-0x1506e30>
d002e334:	aaaaaaaa 	bge	cead8de4 <_start-0x154722c>
d002e338:	bbaa88a8 	bllt	cead05e0 <_start-0x154fa30>
d002e33c:	00aaaaaa 	adceq	sl, sl, sl, lsr #21
d002e340:	00000000 	andeq	r0, r0, r0
d002e344:	01000000 	tsteq	r0, r0
d002e348:	ffff7757 	undefined instruction 0xffff7757
d002e34c:	ffffffff 	undefined instruction 0xffffffff
d002e350:	ffffffff 	undefined instruction 0xffffffff
d002e354:	ffffffff 	undefined instruction 0xffffffff
d002e358:	ffffffff 	undefined instruction 0xffffffff
d002e35c:	ffffffff 	undefined instruction 0xffffffff
d002e360:	ffffffff 	undefined instruction 0xffffffff
d002e364:	5755f7ff 	smmlsrpl	r5, pc, r7, pc
d002e368:	ffffffff 	undefined instruction 0xffffffff
d002e36c:	010000f5 	strdeq	r0, [r0, -r5]
d002e370:	f7f77777 	undefined instruction 0xf7f77777
d002e374:	f7f7f7f7 	undefined instruction 0xf7f7f7f7
d002e378:	fffff7f7 	undefined instruction 0xfffff7f7
d002e37c:	ffffffff 	undefined instruction 0xffffffff
d002e380:	005155f7 	ldrsheq	r5, [r1], #-87	; 0xffffffa9
d002e384:	f7ff1700 	undefined instruction 0xf7ff1700
d002e388:	00005555 	andeq	r5, r0, r5, asr r5
d002e38c:	00000000 	andeq	r0, r0, r0
d002e390:	aa0a0000 	bge	d02ae398 <bss_end+0x278dc8>
d002e394:	eeaeaaaa 	vfma.f32	s20, s29, s21
d002e398:	eeaeeeae 	cdp	14, 10, cr14, cr14, cr14, {5}
d002e39c:	efefeeee 	svc	0x00efeeee
d002e3a0:	efefefef 	svc	0x00efefef
d002e3a4:	ffefefef 	undefined instruction 0xffefefef
d002e3a8:	efefefef 	svc	0x00efefef
d002e3ac:	eaeeeeef 	b	cfbe9f70 <_start-0x4360a0>
d002e3b0:	aaaaaaaa 	bge	cead8e60 <_start-0x15471b0>
d002e3b4:	aaaaaeaa 	bge	cead9e64 <_start-0x15461ac>
d002e3b8:	aaaaa2aa 	bge	cead6e68 <_start-0x15491a8>
d002e3bc:	aaaaaaaa 	bge	cead8e6c <_start-0x15471a4>
d002e3c0:	aaaaaaaa 	bge	cead8e70 <_start-0x15471a0>
d002e3c4:	aaaaaaaa 	bge	cead8e74 <_start-0x154719c>
d002e3c8:	aaaaaaaa 	bge	cead8e78 <_start-0x1547198>
d002e3cc:	aaaaaaaa 	bge	cead8e7c <_start-0x1547194>
d002e3d0:	aaaaaeaa 	bge	cead9e80 <_start-0x1546190>
d002e3d4:	000000aa 	andeq	r0, r0, sl, lsr #1
d002e3d8:	00000000 	andeq	r0, r0, r0
d002e3dc:	df5d0500 	svcle	0x005d0500
d002e3e0:	ffffffff 	undefined instruction 0xffffffff
d002e3e4:	ffffffff 	undefined instruction 0xffffffff
d002e3e8:	ffffffff 	undefined instruction 0xffffffff
d002e3ec:	ffffffff 	undefined instruction 0xffffffff
d002e3f0:	ffffffff 	undefined instruction 0xffffffff
d002e3f4:	ffffffff 	undefined instruction 0xffffffff
d002e3f8:	fdffffff 	ldc2l	15, cr15, [pc, #1020]!	; 0x3fc
d002e3fc:	ffdfdddd 	undefined instruction 0xffdfdddd
d002e400:	00d4ffff 	ldrsheq	pc, [r4], #255	; 0xff
d002e404:	dd5d0500 	cfldr64le	mvdx0, [sp]
d002e408:	dddddddd 	ldclle	13, cr13, [sp, #884]	; 0x374
d002e40c:	dddddddd 	ldclle	13, cr13, [sp, #884]	; 0x374
d002e410:	ffffdfdf 	undefined instruction 0xffffdfdf
d002e414:	ddddffff 	ldclle	15, cr15, [sp, #1020]	; 0x3fc
d002e418:	05000044 	streq	r0, [r0, #-68]	; 0x44
d002e41c:	5dddfdff 	ldclpl	13, cr15, [sp, #1020]	; 0x3fc
	...
d002e428:	bbaaaa8a 	bllt	cead8e58 <_start-0x15471b8>
d002e42c:	bbbbbbbb 	bllt	cef1d320 <_start-0x1102cf0>
d002e430:	ffffbfbb 	undefined instruction 0xffffbfbb
d002e434:	ffffffff 	undefined instruction 0xffffffff
d002e438:	ffffffff 	undefined instruction 0xffffffff
d002e43c:	ffffffff 	undefined instruction 0xffffffff
d002e440:	ffffffff 	undefined instruction 0xffffffff
d002e444:	aaaabbff 	bge	ceadd448 <_start-0x1542bc8>
d002e448:	abbaaaaa 	blge	ceed8ef8 <_start-0x1147118>
d002e44c:	88aaaabb 	stmiahi	sl!, {r0, r1, r3, r4, r5, r7, r9, fp, sp, pc}
d002e450:	aaaaaa8a 	bge	cead8e80 <_start-0x1547190>
d002e454:	aaaaaaaa 	bge	cead8f04 <_start-0x154710c>
d002e458:	aaaaaaaa 	bge	cead8f08 <_start-0x1547108>
d002e45c:	babbaaaa 	blt	cef18f0c <_start-0x1107104>
d002e460:	aaaaaaaa 	bge	cead8f10 <_start-0x1547100>
d002e464:	abaa88aa 	blge	cead0714 <_start-0x154f8fc>
d002e468:	00aaaaba 	strheq	sl, [sl], sl
d002e46c:	00000000 	andeq	r0, r0, r0
d002e470:	05000000 	streq	r0, [r0]
d002e474:	ffff7f57 	undefined instruction 0xffff7f57
d002e478:	ffffffff 	undefined instruction 0xffffffff
d002e47c:	ffffffff 	undefined instruction 0xffffffff
d002e480:	ffffffff 	undefined instruction 0xffffffff
d002e484:	ffffffff 	undefined instruction 0xffffffff
d002e488:	ffffffff 	undefined instruction 0xffffffff
d002e48c:	ffffffff 	undefined instruction 0xffffffff
d002e490:	7fffffff 	svcvc	0x00ffffff
d002e494:	ffffffff 	undefined instruction 0xffffffff
d002e498:	010000f5 	strdeq	r0, [r0, -r5]
d002e49c:	7f7fff7f 	svcvc	0x007fff7f
d002e4a0:	ffff7fff 	undefined instruction 0xffff7fff
d002e4a4:	ffffffff 	undefined instruction 0xffffffff
d002e4a8:	ffffffff 	undefined instruction 0xffffffff
d002e4ac:	105175ff 	ldrshne	r7, [r1], #-95	; 0xffffffa1
d002e4b0:	ff7f1500 	undefined instruction 0xff7f1500
d002e4b4:	00005575 	andeq	r5, r0, r5, ror r5
d002e4b8:	00000000 	andeq	r0, r0, r0
d002e4bc:	aa2a0000 	bge	d0aae4c4 <bss_end+0xa78ef4>
d002e4c0:	aaeaaaaa 	bge	cfad8f70 <_start-0x5470a0>
d002e4c4:	eeeeeaee 	vfms.f32	s29, s29, s29
d002e4c8:	eeeeeeee 	cdp	14, 14, cr14, cr14, cr14, {7}
d002e4cc:	fefefeee 	cdp2	14, 15, cr15, cr14, cr14, {7}
d002e4d0:	fefefefe 	mrc2	14, 7, pc, cr14, cr14, {7}
d002e4d4:	eefefefe 	mrc	14, 7, pc, cr14, cr14, {7}
d002e4d8:	eaeeeeee 	b	cfbea098 <_start-0x435f78>
d002e4dc:	aaaaaaaa 	bge	cead8f8c <_start-0x1547084>
d002e4e0:	aaaaaaaa 	bge	cead8f90 <_start-0x1547080>
d002e4e4:	aaaaa2aa 	bge	cead6f94 <_start-0x154907c>
d002e4e8:	aaaaaaaa 	bge	cead8f98 <_start-0x1547078>
d002e4ec:	aaaaaaaa 	bge	cead8f9c <_start-0x1547074>
d002e4f0:	aaaaaaaa 	bge	cead8fa0 <_start-0x1547070>
d002e4f4:	aaaaaaaa 	bge	cead8fa4 <_start-0x154706c>
d002e4f8:	aaaaaaaa 	bge	cead8fa8 <_start-0x1547068>
d002e4fc:	aaeaaa2a 	bge	cfad8dac <_start-0x547264>
d002e500:	000000aa 	andeq	r0, r0, sl, lsr #1
d002e504:	00000000 	andeq	r0, r0, r0
d002e508:	dfdd0500 	svcle	0x00dd0500
d002e50c:	ffffffff 	undefined instruction 0xffffffff
d002e510:	ffffffff 	undefined instruction 0xffffffff
d002e514:	ffffffff 	undefined instruction 0xffffffff
d002e518:	ffffffff 	undefined instruction 0xffffffff
d002e51c:	ffffffff 	undefined instruction 0xffffffff
d002e520:	ffffffff 	undefined instruction 0xffffffff
d002e524:	ffffffff 	undefined instruction 0xffffffff
d002e528:	fdffddfd 	ldc2l	13, cr13, [pc, #1012]!	; 0x3f4
d002e52c:	00fcffdd 	ldrsbteq	pc, [ip], #253	; 0xfd
d002e530:	dd5d0000 	ldclle	0, cr0, [sp]
d002e534:	dddddddd 	ldclle	13, cr13, [sp, #884]	; 0x374
d002e538:	dddddddd 	ldclle	13, cr13, [sp, #884]	; 0x374
d002e53c:	fffffdfd 	undefined instruction 0xfffffdfd
d002e540:	ddddffff 	ldclle	15, cr15, [sp, #1020]	; 0x3fc
d002e544:	010000c4 	smlabteq	r0, r4, r0, r0
d002e548:	d5ddffdf 	ldrble	pc, [sp, #4063]	; 0xfdf
	...
d002e554:	bbabaaaa 	bllt	ceb19004 <_start-0x150700c>
d002e558:	bbbbabab 	bllt	cef1940c <_start-0x1106c04>
d002e55c:	fbfbfbbb 	blx	cff2d452 <_start-0xf2bbe>
d002e560:	fffffbff 	undefined instruction 0xfffffbff
d002e564:	ffffffff 	undefined instruction 0xffffffff
d002e568:	ffffffff 	undefined instruction 0xffffffff
d002e56c:	ffffffff 	undefined instruction 0xffffffff
d002e570:	aaabfbff 	bge	ceb2d574 <_start-0x14f2a9c>
d002e574:	aaaaaaaa 	bge	cead9024 <_start-0x1546fec>
d002e578:	8888aaab 	stmhi	r8, {r0, r1, r3, r5, r7, r9, fp, sp, pc}
d002e57c:	aaaaaa8a 	bge	cead8fac <_start-0x1547064>
d002e580:	aaaaaaaa 	bge	cead9030 <_start-0x1546fe0>
d002e584:	aaaaaaaa 	bge	cead9034 <_start-0x1546fdc>
d002e588:	abababaa 	blge	ceb19438 <_start-0x1506bd8>
d002e58c:	aaaaaaaa 	bge	cead903c <_start-0x1546fd4>
d002e590:	ab8a88aa 	blge	ce2d0840 <_start-0x1d4f7d0>
d002e594:	00aaaaba 	strheq	sl, [sl], sl
d002e598:	00000000 	andeq	r0, r0, r0
d002e59c:	15000000 	strne	r0, [r0]
d002e5a0:	ffffff57 	undefined instruction 0xffffff57
d002e5a4:	ffffffff 	undefined instruction 0xffffffff
d002e5a8:	ffffffff 	undefined instruction 0xffffffff
d002e5ac:	ffffffff 	undefined instruction 0xffffffff
d002e5b0:	ffffffff 	undefined instruction 0xffffffff
d002e5b4:	ffffffff 	undefined instruction 0xffffffff
d002e5b8:	ffffffff 	undefined instruction 0xffffffff
d002e5bc:	ffffffff 	undefined instruction 0xffffffff
d002e5c0:	7f55f7ff 	svcvc	0x0055f7ff
d002e5c4:	010000f5 	strdeq	r0, [r0, -r5]
d002e5c8:	f7f7ff7f 	undefined instruction 0xf7f7ff7f
d002e5cc:	fffff7f7 	undefined instruction 0xfffff7f7
d002e5d0:	ffffffff 	undefined instruction 0xffffffff
d002e5d4:	ffffffff 	undefined instruction 0xffffffff
d002e5d8:	0051f7ff 	ldrsheq	pc, [r1], #-127	; 0xffffff81
d002e5dc:	ff770100 	undefined instruction 0xff770100
d002e5e0:	000055f7 	strdeq	r5, [r0], -r7
d002e5e4:	00000000 	andeq	r0, r0, r0
d002e5e8:	aa2a0000 	bge	d0aae5f0 <bss_end+0xa79020>
d002e5ec:	aeaaaeaa 	cdpge	14, 10, cr10, cr10, cr10, {5}
d002e5f0:	eeeeaeae 	cdp	14, 14, cr10, cr14, cr14, {5}
d002e5f4:	eeeeeeee 	cdp	14, 14, cr14, cr14, cr14, {7}
d002e5f8:	efefefef 	svc	0x00efefef
d002e5fc:	efefefff 	svc	0x00efefff
d002e600:	efefefef 	svc	0x00efefef
d002e604:	eeeeefef 	cdp	15, 14, cr14, cr14, cr15, {7}
d002e608:	aaaaaaaa 	bge	cead90b8 <_start-0x1546f58>
d002e60c:	aaaaaaaa 	bge	cead90bc <_start-0x1546f54>
d002e610:	aaaaa2aa 	bge	cead70c0 <_start-0x1548f50>
d002e614:	aaaaaaaa 	bge	cead90c4 <_start-0x1546f4c>
d002e618:	aaaaaaaa 	bge	cead90c8 <_start-0x1546f48>
d002e61c:	aaaaaaaa 	bge	cead90cc <_start-0x1546f44>
d002e620:	aaaaaaaa 	bge	cead90d0 <_start-0x1546f40>
d002e624:	aaaaaaaa 	bge	cead90d4 <_start-0x1546f3c>
d002e628:	aaaeaaa2 	bge	cebd90b8 <_start-0x1446f58>
d002e62c:	000000aa 	andeq	r0, r0, sl, lsr #1
d002e630:	00000000 	andeq	r0, r0, r0
d002e634:	dfdd0500 	svcle	0x00dd0500
d002e638:	ffffffff 	undefined instruction 0xffffffff
d002e63c:	ffffffff 	undefined instruction 0xffffffff
d002e640:	ffffffff 	undefined instruction 0xffffffff
d002e644:	ffffffff 	undefined instruction 0xffffffff
d002e648:	ffffffff 	undefined instruction 0xffffffff
d002e64c:	ffffffff 	undefined instruction 0xffffffff
d002e650:	ffffffff 	undefined instruction 0xffffffff
d002e654:	ddffffff 	ldclle	15, cr15, [pc, #1020]!	; 0x3fc
d002e658:	00fc5fd5 	ldrsbteq	r5, [ip], #245	; 0xf5
d002e65c:	dd5f0000 	ldclle	0, cr0, [pc]
d002e660:	dddddddd 	ldclle	13, cr13, [sp, #884]	; 0x374
d002e664:	dfdfdfdf 	svcle	0x00dfdfdf
d002e668:	ffffffdf 	undefined instruction 0xffffffdf
d002e66c:	dddfffff 	ldclle	15, cr15, [pc, #1020]	; 0x3fc
d002e670:	000040d4 	ldrdeq	r4, [r0], -r4
d002e674:	d5ddff5d 	ldrble	pc, [sp, #3933]	; 0xf5d
d002e678:	00000000 	andeq	r0, r0, r0
d002e67c:	08000000 	stmdaeq	r0, {}
d002e680:	baaaaaaa 	blt	cead9130 <_start-0x1546ee0>
d002e684:	bbbbbbaa 	bllt	cef1d534 <_start-0x1102adc>
d002e688:	ffffbfbf 	undefined instruction 0xffffbfbf
d002e68c:	ffffbfff 	undefined instruction 0xffffbfff
d002e690:	ffffffff 	undefined instruction 0xffffffff
d002e694:	ffffffff 	undefined instruction 0xffffffff
d002e698:	ffffffff 	undefined instruction 0xffffffff
d002e69c:	babbfbff 	blt	cef2d6a0 <_start-0x10f2970>
d002e6a0:	aaaaaaaa 	bge	cead9150 <_start-0x1546ec0>
d002e6a4:	88a8baab 	stmiahi	r8!, {r0, r1, r3, r5, r7, r9, fp, ip, sp, pc}
d002e6a8:	aaaaaa8a 	bge	cead90d8 <_start-0x1546f38>
d002e6ac:	aaaaaaaa 	bge	cead915c <_start-0x1546eb4>
d002e6b0:	aaaaaaaa 	bge	cead9160 <_start-0x1546eb0>
d002e6b4:	aaaaaaaa 	bge	cead9164 <_start-0x1546eac>
d002e6b8:	aaaaaaaa 	bge	cead9168 <_start-0x1546ea8>
d002e6bc:	aa8888aa 	bge	ce25096c <_start-0x1dcf6a4>
d002e6c0:	00aaaabb 	strheq	sl, [sl], fp
d002e6c4:	00000000 	andeq	r0, r0, r0
d002e6c8:	15000000 	strne	r0, [r0]
d002e6cc:	ffffff77 	undefined instruction 0xffffff77
d002e6d0:	ffffffff 	undefined instruction 0xffffffff
d002e6d4:	ffffffff 	undefined instruction 0xffffffff
d002e6d8:	ffffffff 	undefined instruction 0xffffffff
d002e6dc:	ffffffff 	undefined instruction 0xffffffff
d002e6e0:	ffffffff 	undefined instruction 0xffffffff
d002e6e4:	ffffffff 	undefined instruction 0xffffffff
d002e6e8:	ffffffff 	undefined instruction 0xffffffff
d002e6ec:	5f55ffff 	svcpl	0x0055ffff
d002e6f0:	010000fd 	strdeq	r0, [r0, -sp]
d002e6f4:	ffffff7f 	undefined instruction 0xffffff7f
d002e6f8:	ffffffff 	undefined instruction 0xffffffff
d002e6fc:	ffffffff 	undefined instruction 0xffffffff
d002e700:	ffffffff 	undefined instruction 0xffffffff
d002e704:	5055f7ff 	ldrshpl	pc, [r5], #-127	; 0xffffff81
d002e708:	ff170000 	undefined instruction 0xff170000
d002e70c:	000055ff 	strdeq	r5, [r0], -pc
d002e710:	00000000 	andeq	r0, r0, r0
d002e714:	aaaa0000 	bge	ceaae71c <_start-0x15718f4>
d002e718:	aaaaaaaa 	bge	cead91c8 <_start-0x1546e48>
d002e71c:	eeeeeaea 	vfms.f32	s29, s29, s21
d002e720:	eeeeeeee 	cdp	14, 14, cr14, cr14, cr14, {7}
d002e724:	feeeeeee 	cdp2	14, 14, cr14, cr14, cr14, {7}
d002e728:	fefefefe 	mrc2	14, 7, pc, cr14, cr14, {7}
d002e72c:	eefefefe 	mrc	14, 7, pc, cr14, cr14, {7}
d002e730:	eeeeeeee 	cdp	14, 14, cr14, cr14, cr14, {7}
d002e734:	aaaaaaea 	bge	cead92e4 <_start-0x1546d2c>
d002e738:	eaaaaaaa 	b	cead91e8 <_start-0x1546e28>
d002e73c:	aaaaaaaa 	bge	cead91ec <_start-0x1546e24>
d002e740:	aaaaaaaa 	bge	cead91f0 <_start-0x1546e20>
d002e744:	aaaaaaaa 	bge	cead91f4 <_start-0x1546e1c>
d002e748:	aaaaaaaa 	bge	cead91f8 <_start-0x1546e18>
d002e74c:	aaaaaaaa 	bge	cead91fc <_start-0x1546e14>
d002e750:	aaaaaaaa 	bge	cead9200 <_start-0x1546e10>
d002e754:	aaaa2aa0 	bge	ceab91dc <_start-0x1566e34>
d002e758:	000000aa 	andeq	r0, r0, sl, lsr #1
d002e75c:	00000000 	andeq	r0, r0, r0
d002e760:	dddd1500 	cfldr64le	mvdx1, [sp]
d002e764:	fffffffd 	undefined instruction 0xfffffffd
d002e768:	ffffffff 	undefined instruction 0xffffffff
d002e76c:	ffffffff 	undefined instruction 0xffffffff
d002e770:	ffffffff 	undefined instruction 0xffffffff
d002e774:	ffffffff 	undefined instruction 0xffffffff
d002e778:	ffffffff 	undefined instruction 0xffffffff
d002e77c:	ffffffff 	undefined instruction 0xffffffff
d002e780:	fdffffff 	ldc2l	15, cr15, [pc, #1020]!	; 0x3fc
d002e784:	40fddddd 	ldrsbtmi	sp, [sp], #221	; 0xdd
d002e788:	fd5d0000 	ldc2l	0, cr0, [sp]
d002e78c:	ddddddfd 	ldclle	13, cr13, [sp, #1012]	; 0x3f4
d002e790:	dddddddd 	ldclle	13, cr13, [sp, #884]	; 0x374
d002e794:	fdfdfdfd 	ldc2l	13, cr15, [sp, #1012]!	; 0x3f4
d002e798:	ddddfdfd 	ldclle	13, cr15, [sp, #1012]	; 0x3f4
d002e79c:	000044dd 	ldrdeq	r4, [r0], -sp
d002e7a0:	d4fddf05 	ldrbtle	sp, [sp], #3845	; 0xf05
d002e7a4:	80008000 	andhi	r8, r0, r0
d002e7a8:	80000000 	andhi	r0, r0, r0
d002e7ac:	aaaaaaaa 	bge	cead925c <_start-0x1546db4>
d002e7b0:	bbbbbbab 	bllt	cef1d664 <_start-0x11029ac>
d002e7b4:	fbfbfbbb 	blx	cff2d6aa <_start-0xf2966>
d002e7b8:	fffffffb 	undefined instruction 0xfffffffb
d002e7bc:	ffffffff 	undefined instruction 0xffffffff
d002e7c0:	ffffffff 	undefined instruction 0xffffffff
d002e7c4:	ffffffff 	undefined instruction 0xffffffff
d002e7c8:	abbbfbff 	blge	cef2d7cc <_start-0x10f2844>
d002e7cc:	aaaaaaab 	bge	cead9280 <_start-0x1546d90>
d002e7d0:	a8aabaaa 	stmiage	sl!, {r1, r3, r5, r7, r9, fp, ip, sp, pc}
d002e7d4:	aaaaaa8a 	bge	cead9204 <_start-0x1546e0c>
d002e7d8:	aaaaaaaa 	bge	cead9288 <_start-0x1546d88>
d002e7dc:	aaaaaaaa 	bge	cead928c <_start-0x1546d84>
d002e7e0:	aaaaaaaa 	bge	cead9290 <_start-0x1546d80>
d002e7e4:	aaaaaaaa 	bge	cead9294 <_start-0x1546d7c>
d002e7e8:	8a88a8aa 	bhi	ce258a98 <_start-0x1dc7578>
d002e7ec:	00aabaab 	adceq	fp, sl, fp, lsr #21
d002e7f0:	00000000 	andeq	r0, r0, r0
d002e7f4:	57000000 	strpl	r0, [r0, -r0]
d002e7f8:	fff7f7f7 	undefined instruction 0xfff7f7f7
d002e7fc:	ffffffff 	undefined instruction 0xffffffff
d002e800:	ffffffff 	undefined instruction 0xffffffff
d002e804:	ffffffff 	undefined instruction 0xffffffff
d002e808:	ffffffff 	undefined instruction 0xffffffff
d002e80c:	ffffffff 	undefined instruction 0xffffffff
d002e810:	ffffffff 	undefined instruction 0xffffffff
d002e814:	ffffffff 	undefined instruction 0xffffffff
d002e818:	77f7ffff 	undefined instruction 0x77f7ffff
d002e81c:	010051ff 	strdeq	r5, [r0, -pc]
d002e820:	ffffff7f 	undefined instruction 0xffffff7f
d002e824:	ffffffff 	undefined instruction 0xffffffff
d002e828:	ffffffff 	undefined instruction 0xffffffff
d002e82c:	ffffffff 	undefined instruction 0xffffffff
d002e830:	55f5f7ff 	ldrbpl	pc, [r5, #2047]!	; 0x7ff
d002e834:	ff010000 	undefined instruction 0xff010000
d002e838:	000055ff 	strdeq	r5, [r0], -pc
d002e83c:	00000000 	andeq	r0, r0, r0
d002e840:	aaaa0200 	bge	ceaaf048 <_start-0x1570fc8>
d002e844:	aaaeaaaa 	bge	cebd92f4 <_start-0x1446d1c>
d002e848:	eeeeeeae 	cdp	14, 14, cr14, cr14, cr14, {5}
d002e84c:	efeeeeee 	svc	0x00eeeeee
d002e850:	efefeeef 	svc	0x00efeeef
d002e854:	efefefef 	svc	0x00efefef
d002e858:	efefefef 	svc	0x00efefef
d002e85c:	eeefeeef 	cdp	14, 14, cr14, cr15, cr15, {7}
d002e860:	aaaaaaee 	bge	cead9420 <_start-0x1546bf0>
d002e864:	aaaaaaaa 	bge	cead9314 <_start-0x1546cfc>
d002e868:	aaaaaaaa 	bge	cead9318 <_start-0x1546cf8>
d002e86c:	aaaaaaaa 	bge	cead931c <_start-0x1546cf4>
d002e870:	aaaaaaaa 	bge	cead9320 <_start-0x1546cf0>
d002e874:	aaaaaaaa 	bge	cead9324 <_start-0x1546cec>
d002e878:	aaaaaaaa 	bge	cead9328 <_start-0x1546ce8>
d002e87c:	aaaaaaaa 	bge	cead932c <_start-0x1546ce4>
d002e880:	aaaa2aa2 	bge	ceab9310 <_start-0x1566d00>
d002e884:	000000aa 	andeq	r0, r0, sl, lsr #1
d002e888:	00000000 	andeq	r0, r0, r0
d002e88c:	dddd5d00 	ldclle	13, cr5, [sp]
d002e890:	ffffffdf 	undefined instruction 0xffffffdf
d002e894:	ffffffff 	undefined instruction 0xffffffff
d002e898:	ffffffff 	undefined instruction 0xffffffff
d002e89c:	ffffffff 	undefined instruction 0xffffffff
d002e8a0:	ffffffff 	undefined instruction 0xffffffff
d002e8a4:	ffffffff 	undefined instruction 0xffffffff
d002e8a8:	ffffffff 	undefined instruction 0xffffffff
d002e8ac:	ffffffff 	undefined instruction 0xffffffff
d002e8b0:	d4ffdddd 	ldrbtle	sp, [pc], #3549	; d002e8b8 <gImage_pic+0xbeec>
d002e8b4:	ff5f0040 	undefined instruction 0xff5f0040
d002e8b8:	dfdfdfff 	svcle	0x00dfdfff
d002e8bc:	dfdddfdf 	svcle	0x00dddfdf
d002e8c0:	dfdfdfdf 	svcle	0x00dfdfdf
d002e8c4:	dddddddd 	ldclle	13, cr13, [sp, #884]	; 0x374
d002e8c8:	0040d5dd 	ldrdeq	sp, [r0], #-93	; 0xffffffa3
d002e8cc:	ddffdf01 	ldclle	15, cr13, [pc, #4]!
d002e8d0:	00000000 	andeq	r0, r0, r0
d002e8d4:	0a000000 	beq	d002e8dc <gImage_pic+0xbf10>
d002e8d8:	abaaaaaa 	blge	cead9388 <_start-0x1546c88>
d002e8dc:	bbbbbbbb 	bllt	cef1d7d0 <_start-0x1102840>
d002e8e0:	bbbbbfbb 	bllt	cef1e7d4 <_start-0x110183c>
d002e8e4:	ffffffbf 	undefined instruction 0xffffffbf
d002e8e8:	ffffffff 	undefined instruction 0xffffffff
d002e8ec:	ffffffff 	undefined instruction 0xffffffff
d002e8f0:	ffffffff 	undefined instruction 0xffffffff
d002e8f4:	babbffff 	blt	cef2e8f8 <_start-0x10f1718>
d002e8f8:	aaaaaaba 	bge	cead93e8 <_start-0x1546c28>
d002e8fc:	aaaaaaaa 	bge	cead93ac <_start-0x1546c64>
d002e900:	aaaaaaaa 	bge	cead93b0 <_start-0x1546c60>
d002e904:	aaaaaaaa 	bge	cead93b4 <_start-0x1546c5c>
d002e908:	aaaaaaaa 	bge	cead93b8 <_start-0x1546c58>
d002e90c:	aaaaaaaa 	bge	cead93bc <_start-0x1546c54>
d002e910:	aaaaaaaa 	bge	cead93c0 <_start-0x1546c50>
d002e914:	8a88aaaa 	bhi	ce2593c4 <_start-0x1dc6c4c>
d002e918:	00aabaaa 	adceq	fp, sl, sl, lsr #21
d002e91c:	00000000 	andeq	r0, r0, r0
d002e920:	57010000 	strpl	r0, [r1, -r0]
d002e924:	ffff7f75 	undefined instruction 0xffff7f75
d002e928:	ffffffff 	undefined instruction 0xffffffff
d002e92c:	ffffffff 	undefined instruction 0xffffffff
d002e930:	ffffffff 	undefined instruction 0xffffffff
d002e934:	ffffffff 	undefined instruction 0xffffffff
d002e938:	ffffffff 	undefined instruction 0xffffffff
d002e93c:	ffffffff 	undefined instruction 0xffffffff
d002e940:	ffffffff 	undefined instruction 0xffffffff
d002e944:	ffffffff 	undefined instruction 0xffffffff
d002e948:	1155f5ff 	ldrshne	pc, [r5, #-95]	; 0xffffffa1
d002e94c:	ffffff7f 	undefined instruction 0xffffff7f
d002e950:	ffffffff 	undefined instruction 0xffffffff
d002e954:	ffffffff 	undefined instruction 0xffffffff
d002e958:	ffffffff 	undefined instruction 0xffffffff
d002e95c:	55557577 	ldrbpl	r7, [r5, #-1399]	; 0x577
d002e960:	7f010051 	svcvc	0x00010051
d002e964:	0000f5ff 	strdeq	pc, [r0], -pc
d002e968:	00000000 	andeq	r0, r0, r0
d002e96c:	aaaa0200 	bge	ceaaf174 <_start-0x1570e9c>
d002e970:	aaeaaaaa 	bge	cfad9420 <_start-0x546bf0>
d002e974:	eeeeeaea 	vfms.f32	s29, s29, s21
d002e978:	eeeeeeee 	cdp	14, 14, cr14, cr14, cr14, {7}
d002e97c:	eeeeeeee 	cdp	14, 14, cr14, cr14, cr14, {7}
d002e980:	fefeeefe 	mrc2	14, 7, lr, cr14, cr14, {7}
d002e984:	eeeeeefe 	mcr	14, 7, lr, cr14, cr14, {7}
d002e988:	eeeeeeee 	cdp	14, 14, cr14, cr14, cr14, {7}
d002e98c:	aaaaaaea 	bge	cead953c <_start-0x1546ad4>
d002e990:	aaaaaaaa 	bge	cead9440 <_start-0x1546bd0>
d002e994:	aaaaaaaa 	bge	cead9444 <_start-0x1546bcc>
d002e998:	aaaaaaaa 	bge	cead9448 <_start-0x1546bc8>
d002e99c:	aaaaaaaa 	bge	cead944c <_start-0x1546bc4>
d002e9a0:	aaaaaaaa 	bge	cead9450 <_start-0x1546bc0>
d002e9a4:	aaaaaaaa 	bge	cead9454 <_start-0x1546bbc>
d002e9a8:	aaaaaaaa 	bge	cead9458 <_start-0x1546bb8>
d002e9ac:	aaaa22aa 	bge	ceab745c <_start-0x1568bb4>
d002e9b0:	000000aa 	andeq	r0, r0, sl, lsr #1
d002e9b4:	00000000 	andeq	r0, r0, r0
d002e9b8:	dddd5500 	cfldr64le	mvdx5, [sp]
d002e9bc:	ffffffff 	undefined instruction 0xffffffff
d002e9c0:	ffffffff 	undefined instruction 0xffffffff
d002e9c4:	ffffffff 	undefined instruction 0xffffffff
d002e9c8:	ffffffff 	undefined instruction 0xffffffff
d002e9cc:	ffffffff 	undefined instruction 0xffffffff
d002e9d0:	ffffffff 	undefined instruction 0xffffffff
d002e9d4:	ffffffff 	undefined instruction 0xffffffff
d002e9d8:	fdffffff 	ldc2l	15, cr15, [pc, #1020]!	; 0x3fc
d002e9dc:	ddddfddd 	ldclle	13, cr15, [sp, #884]	; 0x374
d002e9e0:	ffdf45dc 	undefined instruction 0xffdf45dc
d002e9e4:	fdddfdfd 	ldc2l	13, cr15, [sp, #1012]	; 0x3f4
d002e9e8:	dddddddd 	ldclle	13, cr13, [sp, #884]	; 0x374
d002e9ec:	dddddddd 	ldclle	13, cr13, [sp, #884]	; 0x374
d002e9f0:	dddddddd 	ldclle	13, cr13, [sp, #884]	; 0x374
d002e9f4:	0044d4d5 	ldrdeq	sp, [r4], #-69	; 0xffffffbb
d002e9f8:	ddff5d00 	ldclle	13, cr5, [pc]
d002e9fc:	00000000 	andeq	r0, r0, r0
d002ea00:	8a000000 	bhi	d002ea08 <gImage_pic+0xc03c>
d002ea04:	bbaaaaaa 	bllt	cead94b4 <_start-0x1546b5c>
d002ea08:	bbbbbbbb 	bllt	cef1d8fc <_start-0x1102714>
d002ea0c:	bbbbfbbb 	bllt	cef2d900 <_start-0x10f2710>
d002ea10:	fffffbff 	undefined instruction 0xfffffbff
d002ea14:	ffffffff 	undefined instruction 0xffffffff
d002ea18:	ffffffff 	undefined instruction 0xffffffff
d002ea1c:	fbffffff 	blx	d002ea22 <gImage_pic+0xc056>
d002ea20:	bbfbffff 	bllt	cff2ea24 <_start-0xf15ec>
d002ea24:	aaaaaaab 	bge	cead94d8 <_start-0x1546b38>
d002ea28:	aaaaaaaa 	bge	cead94d8 <_start-0x1546b38>
d002ea2c:	aaaaaaaa 	bge	cead94dc <_start-0x1546b34>
d002ea30:	aaaaaaaa 	bge	cead94e0 <_start-0x1546b30>
d002ea34:	aaaaaaaa 	bge	cead94e4 <_start-0x1546b2c>
d002ea38:	aaaaaaaa 	bge	cead94e8 <_start-0x1546b28>
d002ea3c:	aaaaaaaa 	bge	cead94ec <_start-0x1546b24>
d002ea40:	88a8aaaa 	stmiahi	r8!, {r1, r3, r5, r7, r9, fp, sp, pc}
d002ea44:	00aaabaa 	adceq	sl, sl, sl, lsr #23
d002ea48:	00000000 	andeq	r0, r0, r0
d002ea4c:	57010000 	strpl	r0, [r1, -r0]
d002ea50:	ffffff57 	undefined instruction 0xffffff57
d002ea54:	ffffffff 	undefined instruction 0xffffffff
d002ea58:	ffffffff 	undefined instruction 0xffffffff
d002ea5c:	ffffffff 	undefined instruction 0xffffffff
d002ea60:	ffffffff 	undefined instruction 0xffffffff
d002ea64:	ffffffff 	undefined instruction 0xffffffff
d002ea68:	ffffffff 	undefined instruction 0xffffffff
d002ea6c:	ffffffff 	undefined instruction 0xffffffff
d002ea70:	ffffffff 	undefined instruction 0xffffffff
d002ea74:	55f7ffff 	ldrbpl	pc, [r7, #4095]!	; 0xfff
d002ea78:	ffffff7f 	undefined instruction 0xffffff7f
d002ea7c:	ffffffff 	undefined instruction 0xffffffff
d002ea80:	f7fffff7 	undefined instruction 0xf7fffff7
d002ea84:	f7f7f7f7 	undefined instruction 0xf7f7f7f7
d002ea88:	55555557 	ldrbpl	r5, [r5, #-1367]	; 0x557
d002ea8c:	17000051 	smlsdne	r0, r1, r0, r0
d002ea90:	0000f7ff 	strdeq	pc, [r0], -pc
d002ea94:	00000000 	andeq	r0, r0, r0
d002ea98:	aaaa0a00 	bge	ceab12a0 <_start-0x156ed70>
d002ea9c:	aeaaaeaa 	cdpge	14, 10, cr10, cr10, cr10, {5}
d002eaa0:	eeeeaeee 	cdp	14, 14, cr10, cr14, cr14, {7}
d002eaa4:	eeeeeeee 	cdp	14, 14, cr14, cr14, cr14, {7}
d002eaa8:	efefefee 	svc	0x00efefee
d002eaac:	efefefef 	svc	0x00efefef
d002eab0:	efeeefef 	svc	0x00eeefef
d002eab4:	eeeeeeee 	cdp	14, 14, cr14, cr14, cr14, {7}
d002eab8:	aaaaaeee 	bge	ceada678 <_start-0x1545998>
d002eabc:	aaaaaaaa 	bge	cead956c <_start-0x1546aa4>
d002eac0:	aaaaaaaa 	bge	cead9570 <_start-0x1546aa0>
d002eac4:	aaaaaaaa 	bge	cead9574 <_start-0x1546a9c>
d002eac8:	aaaaaaaa 	bge	cead9578 <_start-0x1546a98>
d002eacc:	aaaaaaaa 	bge	cead957c <_start-0x1546a94>
d002ead0:	aaaaaaaa 	bge	cead9580 <_start-0x1546a90>
d002ead4:	aaaaaaaa 	bge	cead9584 <_start-0x1546a8c>
d002ead8:	aaaaa2aa 	bge	cead7588 <_start-0x1548a88>
d002eadc:	000000aa 	andeq	r0, r0, sl, lsr #1
d002eae0:	00000000 	andeq	r0, r0, r0
d002eae4:	dfdd5500 	svcle	0x00dd5500
d002eae8:	ffffffff 	undefined instruction 0xffffffff
d002eaec:	ffffffff 	undefined instruction 0xffffffff
d002eaf0:	ffffffff 	undefined instruction 0xffffffff
d002eaf4:	ffffffff 	undefined instruction 0xffffffff
d002eaf8:	ffffffff 	undefined instruction 0xffffffff
d002eafc:	ffffffff 	undefined instruction 0xffffffff
d002eb00:	ffffffff 	undefined instruction 0xffffffff
d002eb04:	ffffffff 	undefined instruction 0xffffffff
d002eb08:	ffffdfdf 	undefined instruction 0xffffdfdf
d002eb0c:	ffdfddff 	undefined instruction 0xffdfddff
d002eb10:	dfdfffff 	svcle	0x00dfffff
d002eb14:	dddddddf 	ldclle	13, cr13, [sp, #892]	; 0x37c
d002eb18:	dddddddd 	ldclle	13, cr13, [sp, #884]	; 0x374
d002eb1c:	dddddddd 	ldclle	13, cr13, [sp, #884]	; 0x374
d002eb20:	00444455 	subeq	r4, r4, r5, asr r4
d002eb24:	fddf0500 	ldc2l	5, cr0, [pc]
d002eb28:	00000000 	andeq	r0, r0, r0
d002eb2c:	0a000000 	beq	d002eb34 <gImage_pic+0xc168>
d002eb30:	bbabaaaa 	bllt	ceb195e0 <_start-0x1506a30>
d002eb34:	bbbbbbbb 	bllt	cef1da28 <_start-0x11025e8>
d002eb38:	ffbfbbbb 	undefined instruction 0xffbfbbbb
d002eb3c:	ffffffff 	undefined instruction 0xffffffff
d002eb40:	ffffffff 	undefined instruction 0xffffffff
d002eb44:	ffffffff 	undefined instruction 0xffffffff
d002eb48:	ffffffff 	undefined instruction 0xffffffff
d002eb4c:	bbffffff 	bllt	d002eb50 <gImage_pic+0xc184>
d002eb50:	aaaababa 	bge	ceadd640 <_start-0x15429d0>
d002eb54:	aaaaaaaa 	bge	cead9604 <_start-0x1546a0c>
d002eb58:	aaaaaaaa 	bge	cead9608 <_start-0x1546a08>
d002eb5c:	aaaaaaaa 	bge	cead960c <_start-0x1546a04>
d002eb60:	aaaaaaaa 	bge	cead9610 <_start-0x1546a00>
d002eb64:	aaaaaaaa 	bge	cead9614 <_start-0x15469fc>
d002eb68:	aaaaaaaa 	bge	cead9618 <_start-0x15469f8>
d002eb6c:	88aaaaaa 	stmiahi	sl!, {r1, r3, r5, r7, r9, fp, sp, pc}
d002eb70:	00aaab8a 	adceq	sl, sl, sl, lsl #23
d002eb74:	00000000 	andeq	r0, r0, r0
d002eb78:	55010000 	strpl	r0, [r1]
d002eb7c:	ffffff7f 	undefined instruction 0xffffff7f
d002eb80:	ffffffff 	undefined instruction 0xffffffff
d002eb84:	ffffffff 	undefined instruction 0xffffffff
d002eb88:	ffffffff 	undefined instruction 0xffffffff
d002eb8c:	ffffffff 	undefined instruction 0xffffffff
d002eb90:	ffffffff 	undefined instruction 0xffffffff
d002eb94:	ffffffff 	undefined instruction 0xffffffff
d002eb98:	ffffffff 	undefined instruction 0xffffffff
d002eb9c:	ffffffff 	undefined instruction 0xffffffff
d002eba0:	ffffffff 	undefined instruction 0xffffffff
d002eba4:	ffffffff 	undefined instruction 0xffffffff
d002eba8:	ffffffff 	undefined instruction 0xffffffff
d002ebac:	7f7fffff 	svcvc	0x007fffff
d002ebb0:	5575777f 	ldrbpl	r7, [r5, #-1919]!	; 0x77f
d002ebb4:	55555555 	ldrbpl	r5, [r5, #-1365]	; 0x555
d002ebb8:	05001011 	streq	r1, [r0, #-17]
d002ebbc:	0000ff7f 	andeq	pc, r0, pc, ror pc
d002ebc0:	00000000 	andeq	r0, r0, r0
d002ebc4:	aaaa2a00 	bge	ceab93cc <_start-0x1566c44>
d002ebc8:	eaaaeaaa 	b	ceae9678 <_start-0x1536998>
d002ebcc:	eeeeaaaa 	vfma.f32	s21, s29, s21
d002ebd0:	eeeeeeee 	cdp	14, 14, cr14, cr14, cr14, {7}
d002ebd4:	feeeeeee 	cdp2	14, 14, cr14, cr14, cr14, {7}
d002ebd8:	feeefeee 	cdp2	14, 14, cr15, cr14, cr14, {7}
d002ebdc:	eeeeeeee 	cdp	14, 14, cr14, cr14, cr14, {7}
d002ebe0:	eeeeeeee 	cdp	14, 14, cr14, cr14, cr14, {7}
d002ebe4:	aaaaeaee 	bge	ceae97a4 <_start-0x153686c>
d002ebe8:	aaaaaaaa 	bge	cead9698 <_start-0x1546978>
d002ebec:	aaaaaaaa 	bge	cead969c <_start-0x1546974>
d002ebf0:	aaaaaaaa 	bge	cead96a0 <_start-0x1546970>
d002ebf4:	aaaaaaaa 	bge	cead96a4 <_start-0x154696c>
d002ebf8:	aaaaaaaa 	bge	cead96a8 <_start-0x1546968>
d002ebfc:	aaaaaaaa 	bge	cead96ac <_start-0x1546964>
d002ec00:	aaaaaaaa 	bge	cead96b0 <_start-0x1546960>
d002ec04:	aa2aaaaa 	bge	d0ad96b4 <bss_end+0xaa40e4>
d002ec08:	000000aa 	andeq	r0, r0, sl, lsr #1
d002ec0c:	00000000 	andeq	r0, r0, r0
d002ec10:	ffdd5500 	undefined instruction 0xffdd5500
d002ec14:	ffffffff 	undefined instruction 0xffffffff
d002ec18:	ffffffff 	undefined instruction 0xffffffff
d002ec1c:	ffffffff 	undefined instruction 0xffffffff
d002ec20:	ffffffff 	undefined instruction 0xffffffff
d002ec24:	ffffffff 	undefined instruction 0xffffffff
d002ec28:	ffffffff 	undefined instruction 0xffffffff
d002ec2c:	ffffffff 	undefined instruction 0xffffffff
d002ec30:	fdffffff 	ldc2l	15, cr15, [pc, #1020]!	; 0x3fc
d002ec34:	fffddddd 	undefined instruction 0xfffddddd
d002ec38:	ddddfdff 	ldclle	13, cr15, [sp, #1020]	; 0x3fc
d002ec3c:	fdfdfdfd 	ldc2l	13, cr15, [sp, #1012]!	; 0x3f4
d002ec40:	ddddddfd 	ldclle	13, cr13, [sp, #1012]	; 0x3f4
d002ec44:	dddddddd 	ldclle	13, cr13, [sp, #884]	; 0x374
d002ec48:	54d5dddd 	ldrbpl	sp, [r5], #3549	; 0xddd
d002ec4c:	00404444 	subeq	r4, r0, r4, asr #8
d002ec50:	fddf0000 	ldc2l	0, cr0, [pc]
d002ec54:	80008000 	andhi	r8, r0, r0
d002ec58:	8a000000 	bhi	d002ec60 <gImage_pic+0xc294>
d002ec5c:	bbabaaaa 	bllt	ceb1970c <_start-0x1506904>
d002ec60:	bbbbbbbb 	bllt	cef1db54 <_start-0x11024bc>
d002ec64:	fffbfbbb 	undefined instruction 0xfffbfbbb
d002ec68:	ffffffff 	undefined instruction 0xffffffff
d002ec6c:	ffffffff 	undefined instruction 0xffffffff
d002ec70:	ffffffff 	undefined instruction 0xffffffff
d002ec74:	ffffffff 	undefined instruction 0xffffffff
d002ec78:	fbfbffff 	blx	cff2ec7e <_start-0xf1392>
d002ec7c:	aaaaaabb 	bge	cead9770 <_start-0x15468a0>
d002ec80:	ababaaaa 	blge	ceb19730 <_start-0x15068e0>
d002ec84:	aaaaaaaa 	bge	cead9734 <_start-0x15468dc>
d002ec88:	aaaaaaaa 	bge	cead9738 <_start-0x15468d8>
d002ec8c:	aaaaaaaa 	bge	cead973c <_start-0x15468d4>
d002ec90:	aaaaaaaa 	bge	cead9740 <_start-0x15468d0>
d002ec94:	aaaaaaaa 	bge	cead9744 <_start-0x15468cc>
d002ec98:	88a8aaaa 	stmiahi	r8!, {r1, r3, r5, r7, r9, fp, sp, pc}
d002ec9c:	00baaa8a 	adcseq	sl, sl, sl, lsl #21
d002eca0:	00000000 	andeq	r0, r0, r0
d002eca4:	57010000 	strpl	r0, [r1, -r0]
d002eca8:	ffffff77 	undefined instruction 0xffffff77
d002ecac:	ffffffff 	undefined instruction 0xffffffff
d002ecb0:	ffffffff 	undefined instruction 0xffffffff
d002ecb4:	ffffffff 	undefined instruction 0xffffffff
d002ecb8:	ffffffff 	undefined instruction 0xffffffff
d002ecbc:	ffffffff 	undefined instruction 0xffffffff
d002ecc0:	ffffffff 	undefined instruction 0xffffffff
d002ecc4:	ffffffff 	undefined instruction 0xffffffff
d002ecc8:	ffffffff 	undefined instruction 0xffffffff
d002eccc:	ffffffff 	undefined instruction 0xffffffff
d002ecd0:	ffffffff 	undefined instruction 0xffffffff
d002ecd4:	ffffffff 	undefined instruction 0xffffffff
d002ecd8:	77f7f7f7 	undefined instruction 0x77f7f7f7
d002ecdc:	55555777 	ldrbpl	r5, [r5, #-1911]	; 0x777
d002ece0:	11515555 	cmpne	r1, r5, asr r5
d002ece4:	01000000 	tsteq	r0, r0
d002ece8:	0000ff7f 	andeq	pc, r0, pc, ror pc
d002ecec:	00000000 	andeq	r0, r0, r0
d002ecf0:	aaaa2a00 	bge	ceab94f8 <_start-0x1566b18>
d002ecf4:	aeaeaeaa 	cdpge	14, 10, cr10, cr14, cr10, {5}
d002ecf8:	eeeeeeae 	cdp	14, 14, cr14, cr14, cr14, {5}
d002ecfc:	eeeeeeee 	cdp	14, 14, cr14, cr14, cr14, {7}
d002ed00:	efefeeef 	svc	0x00efeeef
d002ed04:	efefeeef 	svc	0x00efeeef
d002ed08:	eeefeeef 	cdp	14, 14, cr14, cr15, cr15, {7}
d002ed0c:	eeeeeeee 	cdp	14, 14, cr14, cr14, cr14, {7}
d002ed10:	aaaeeeee 	bge	cebea8d0 <_start-0x1435740>
d002ed14:	aaaaaaaa 	bge	cead97c4 <_start-0x154684c>
d002ed18:	aaaaaaaa 	bge	cead97c8 <_start-0x1546848>
d002ed1c:	aaaaaaaa 	bge	cead97cc <_start-0x1546844>
d002ed20:	aaaaaaaa 	bge	cead97d0 <_start-0x1546840>
d002ed24:	aaaaaaaa 	bge	cead97d4 <_start-0x154683c>
d002ed28:	aaaaaaaa 	bge	cead97d8 <_start-0x1546838>
d002ed2c:	aaaaaaaa 	bge	cead97dc <_start-0x1546834>
d002ed30:	aa02a2aa 	bge	d00d77e0 <bss_end+0xa2210>
d002ed34:	000000aa 	andeq	r0, r0, sl, lsr #1
d002ed38:	00000000 	andeq	r0, r0, r0
d002ed3c:	ffdd5d04 	undefined instruction 0xffdd5d04
d002ed40:	ffffffff 	undefined instruction 0xffffffff
d002ed44:	ffffffff 	undefined instruction 0xffffffff
d002ed48:	ffffffff 	undefined instruction 0xffffffff
d002ed4c:	ffffffff 	undefined instruction 0xffffffff
d002ed50:	ffffffff 	undefined instruction 0xffffffff
d002ed54:	ffffffff 	undefined instruction 0xffffffff
d002ed58:	ffffffff 	undefined instruction 0xffffffff
d002ed5c:	ffffffff 	undefined instruction 0xffffffff
d002ed60:	dfdfdddd 	svcle	0x00dfdddd
d002ed64:	dfddffff 	svcle	0x00ddffff
d002ed68:	dfffdfdf 	svcle	0x00ffdfdf
d002ed6c:	ddddddff 	ldclle	13, cr13, [sp, #1020]	; 0x3fc
d002ed70:	dddddddd 	ldclle	13, cr13, [sp, #884]	; 0x374
d002ed74:	4444dddd 	strbmi	sp, [r4], #-3549	; 0xddd
d002ed78:	00000044 	andeq	r0, r0, r4, asr #32
d002ed7c:	ff5d0000 	undefined instruction 0xff5d0000
d002ed80:	00000000 	andeq	r0, r0, r0
d002ed84:	8a000000 	bhi	d002ed8c <gImage_pic+0xc3c0>
d002ed88:	bbbbaaaa 	bllt	cef19838 <_start-0x11067d8>
d002ed8c:	bbbbbbbb 	bllt	cef1dc80 <_start-0x1102390>
d002ed90:	bbbbbbbb 	bllt	cef1dc84 <_start-0x110238c>
d002ed94:	ffffbfbf 	undefined instruction 0xffffbfbf
d002ed98:	ffffffff 	undefined instruction 0xffffffff
d002ed9c:	ffffffff 	undefined instruction 0xffffffff
d002eda0:	ffffffff 	undefined instruction 0xffffffff
d002eda4:	bbbfffff 	bllt	cf02eda8 <_start-0xff1268>
d002eda8:	aaaababb 	bge	ceadd89c <_start-0x1542774>
d002edac:	aaaaaaaa 	bge	cead985c <_start-0x15467b4>
d002edb0:	aaaaaaaa 	bge	cead9860 <_start-0x15467b0>
d002edb4:	aaaaaaaa 	bge	cead9864 <_start-0x15467ac>
d002edb8:	aaaaaaaa 	bge	cead9868 <_start-0x15467a8>
d002edbc:	aaaaaaaa 	bge	cead986c <_start-0x15467a4>
d002edc0:	aaaaaaaa 	bge	cead9870 <_start-0x15467a0>
d002edc4:	888aaaaa 	stmhi	sl, {r1, r3, r5, r7, r9, fp, sp, pc}
d002edc8:	00baaa88 	adcseq	sl, sl, r8, lsl #21
d002edcc:	00000000 	andeq	r0, r0, r0
d002edd0:	55010000 	strpl	r0, [r1]
d002edd4:	ffffff7f 	undefined instruction 0xffffff7f
d002edd8:	ffffffff 	undefined instruction 0xffffffff
d002eddc:	ffffffff 	undefined instruction 0xffffffff
d002ede0:	ffffffff 	undefined instruction 0xffffffff
d002ede4:	ffffffff 	undefined instruction 0xffffffff
d002ede8:	ffffffff 	undefined instruction 0xffffffff
d002edec:	ffffffff 	undefined instruction 0xffffffff
d002edf0:	ffffffff 	undefined instruction 0xffffffff
d002edf4:	ffffffff 	undefined instruction 0xffffffff
d002edf8:	ffffffff 	undefined instruction 0xffffffff
d002edfc:	ffffffff 	undefined instruction 0xffffffff
d002ee00:	ffffffff 	undefined instruction 0xffffffff
d002ee04:	757575ff 	ldrbvc	r7, [r5, #-1535]!	; 0x5ff
d002ee08:	55555555 	ldrbpl	r5, [r5, #-1365]	; 0x555
d002ee0c:	10111155 	andsne	r1, r1, r5, asr r1
d002ee10:	00000000 	andeq	r0, r0, r0
d002ee14:	0000ff17 	andeq	pc, r0, r7, lsl pc
d002ee18:	00000000 	andeq	r0, r0, r0
d002ee1c:	aaaa2a00 	bge	ceab9624 <_start-0x15669ec>
d002ee20:	eeeaaaaa 	vfma.f32	s21, s21, s21
d002ee24:	eaeeeaee 	b	cfbe99e4 <_start-0x43662c>
d002ee28:	eeeeeeee 	cdp	14, 14, cr14, cr14, cr14, {7}
d002ee2c:	eeeeeeee 	cdp	14, 14, cr14, cr14, cr14, {7}
d002ee30:	feeeeeee 	cdp2	14, 14, cr14, cr14, cr14, {7}
d002ee34:	eeeeeefe 	mcr	14, 7, lr, cr14, cr14, {7}
d002ee38:	eeeeeeee 	cdp	14, 14, cr14, cr14, cr14, {7}
d002ee3c:	aaaaeaee 	bge	ceae99fc <_start-0x1536614>
d002ee40:	aaaaaaaa 	bge	cead98f0 <_start-0x1546720>
d002ee44:	aaaaaaaa 	bge	cead98f4 <_start-0x154671c>
d002ee48:	aaaaaaaa 	bge	cead98f8 <_start-0x1546718>
d002ee4c:	aaaaaaaa 	bge	cead98fc <_start-0x1546714>
d002ee50:	aaaaaaaa 	bge	cead9900 <_start-0x1546710>
d002ee54:	aaaaaaaa 	bge	cead9904 <_start-0x154670c>
d002ee58:	aaaaaaaa 	bge	cead9908 <_start-0x1546708>
d002ee5c:	2a20aaaa 	bcs	d085990c <bss_end+0x82433c>
d002ee60:	000000aa 	andeq	r0, r0, sl, lsr #1
d002ee64:	00000000 	andeq	r0, r0, r0
d002ee68:	ffdf5500 	undefined instruction 0xffdf5500
d002ee6c:	ffffffff 	undefined instruction 0xffffffff
d002ee70:	ffffffff 	undefined instruction 0xffffffff
d002ee74:	ffffffff 	undefined instruction 0xffffffff
d002ee78:	ffffffff 	undefined instruction 0xffffffff
d002ee7c:	ffffffff 	undefined instruction 0xffffffff
d002ee80:	ffffffff 	undefined instruction 0xffffffff
d002ee84:	ffffffff 	undefined instruction 0xffffffff
d002ee88:	fdffffff 	ldc2l	15, cr15, [pc, #1020]!	; 0x3fc
d002ee8c:	dddddddd 	ldclle	13, cr13, [sp, #884]	; 0x374
d002ee90:	ddddfdfd 	ldclle	13, cr15, [sp, #1012]	; 0x3f4
d002ee94:	fdfdfddd 	ldc2l	13, cr15, [sp, #884]!	; 0x374
d002ee98:	ddddddfd 	ldclle	13, cr13, [sp, #1012]	; 0x3f4
d002ee9c:	d5d5dddd 	ldrble	sp, [r5, #3549]	; 0xddd
d002eea0:	40445454 	submi	r5, r4, r4, asr r4
d002eea4:	00000040 	andeq	r0, r0, r0, asr #32
d002eea8:	ff050000 	undefined instruction 0xff050000
d002eeac:	00000000 	andeq	r0, r0, r0
d002eeb0:	8a000000 	bhi	d002eeb8 <gImage_pic+0xc4ec>
d002eeb4:	bbababaa 	bllt	ceb19d64 <_start-0x15062ac>
d002eeb8:	bbfbbbbb 	bllt	cff1ddac <_start-0x102264>
d002eebc:	fbbbbbbb 	blx	cef1ddb2 <_start-0x110225e>
d002eec0:	fffffbfb 	undefined instruction 0xfffffbfb
d002eec4:	ffffffff 	undefined instruction 0xffffffff
d002eec8:	ffffffff 	undefined instruction 0xffffffff
d002eecc:	fbfbfbff 	blx	cff2ded2 <_start-0xf213e>
d002eed0:	bbfbfbfb 	bllt	cff2dec4 <_start-0xf214c>
d002eed4:	aaaaaaab 	bge	cead9988 <_start-0x1546688>
d002eed8:	aaaaaaaa 	bge	cead9988 <_start-0x1546688>
d002eedc:	aaaaaaaa 	bge	cead998c <_start-0x1546684>
d002eee0:	aaaaaaaa 	bge	cead9990 <_start-0x1546680>
d002eee4:	aaaaaaaa 	bge	cead9994 <_start-0x154667c>
d002eee8:	aaaaaaaa 	bge	cead9998 <_start-0x1546678>
d002eeec:	aaaaaaaa 	bge	cead999c <_start-0x1546674>
d002eef0:	8888a8aa 	stmhi	r8, {r1, r3, r5, r7, fp, sp, pc}
d002eef4:	00aa8a88 	adceq	r8, sl, r8, lsl #21
d002eef8:	00000000 	andeq	r0, r0, r0
d002eefc:	57010000 	strpl	r0, [r1, -r0]
d002ef00:	ffffffff 	undefined instruction 0xffffffff
d002ef04:	ffffffff 	undefined instruction 0xffffffff
d002ef08:	ffffffff 	undefined instruction 0xffffffff
d002ef0c:	ffffffff 	undefined instruction 0xffffffff
d002ef10:	ffffffff 	undefined instruction 0xffffffff
d002ef14:	ffffffff 	undefined instruction 0xffffffff
d002ef18:	ffffffff 	undefined instruction 0xffffffff
d002ef1c:	ffffffff 	undefined instruction 0xffffffff
d002ef20:	f7ffffff 	undefined instruction 0xf7ffffff
d002ef24:	fffffff7 	undefined instruction 0xfffffff7
d002ef28:	ffffffff 	undefined instruction 0xffffffff
d002ef2c:	ffffffff 	undefined instruction 0xffffffff
d002ef30:	5557f7f7 	ldrbpl	pc, [r7, #-2039]	; 0x7f7
d002ef34:	55555555 	ldrbpl	r5, [r5, #-1365]	; 0x555
d002ef38:	00111151 	andseq	r1, r1, r1, asr r1
d002ef3c:	00000000 	andeq	r0, r0, r0
d002ef40:	00007f01 	andeq	r7, r0, r1, lsl #30
d002ef44:	00000000 	andeq	r0, r0, r0
d002ef48:	aaaa0200 	bge	ceaaf750 <_start-0x15708c0>
d002ef4c:	eeeeaaae 	vfma.f32	s21, s29, s29
d002ef50:	eeeeeeee 	cdp	14, 14, cr14, cr14, cr14, {7}
d002ef54:	eeeeeeee 	cdp	14, 14, cr14, cr14, cr14, {7}
d002ef58:	efeeefee 	svc	0x00eeefee
d002ef5c:	efefefef 	svc	0x00efefef
d002ef60:	eeeeeeef 	cdp	14, 14, cr14, cr14, cr15, {7}
d002ef64:	eeeeeeee 	cdp	14, 14, cr14, cr14, cr14, {7}
d002ef68:	aaaaaaee 	bge	cead9b28 <_start-0x15464e8>
d002ef6c:	aaaaaaaa 	bge	cead9a1c <_start-0x15465f4>
d002ef70:	aaaaaaaa 	bge	cead9a20 <_start-0x15465f0>
d002ef74:	aaaaaaaa 	bge	cead9a24 <_start-0x15465ec>
d002ef78:	aaaaaaaa 	bge	cead9a28 <_start-0x15465e8>
d002ef7c:	aaaaaaaa 	bge	cead9a2c <_start-0x15465e4>
d002ef80:	aaaaaaaa 	bge	cead9a30 <_start-0x15465e0>
d002ef84:	aaaaaaaa 	bge	cead9a34 <_start-0x15465dc>
d002ef88:	0a22a2aa 	beq	d08d7a38 <bss_end+0x8a2468>
d002ef8c:	000000aa 	andeq	r0, r0, sl, lsr #1
d002ef90:	00000000 	andeq	r0, r0, r0
d002ef94:	ffdf5d00 	undefined instruction 0xffdf5d00
d002ef98:	ffffffff 	undefined instruction 0xffffffff
d002ef9c:	ffffffff 	undefined instruction 0xffffffff
d002efa0:	ffffffff 	undefined instruction 0xffffffff
d002efa4:	ffffffff 	undefined instruction 0xffffffff
d002efa8:	ffffffff 	undefined instruction 0xffffffff
d002efac:	ffffffff 	undefined instruction 0xffffffff
d002efb0:	ffffffff 	undefined instruction 0xffffffff
d002efb4:	dfffffff 	svcle	0x00ffffff
d002efb8:	dddddddd 	ldclle	13, cr13, [sp, #884]	; 0x374
d002efbc:	dddfffdf 	ldclle	15, cr15, [pc, #892]	; 0x37c
d002efc0:	ffdfdfdf 	undefined instruction 0xffdfdfdf
d002efc4:	dddddddf 	ldclle	13, cr13, [sp, #892]	; 0x37c
d002efc8:	5555d5dd 	ldrbpl	sp, [r5, #-1501]	; 0x5dd
d002efcc:	44444444 	strbmi	r4, [r4], #-1092	; 0x444
d002efd0:	00000000 	andeq	r0, r0, r0
d002efd4:	df010000 	svcle	0x00010000
d002efd8:	00000000 	andeq	r0, r0, r0
d002efdc:	0a000000 	beq	d002efe4 <gImage_pic+0xc618>
d002efe0:	bbbaaaaa 	bllt	ceed9a90 <_start-0x1146580>
d002efe4:	bbbbbfbb 	bllt	cef1eed8 <_start-0x1101138>
d002efe8:	ffbfbfbb 	undefined instruction 0xffbfbfbb
d002efec:	ffffffff 	undefined instruction 0xffffffff
d002eff0:	ffffffff 	undefined instruction 0xffffffff
d002eff4:	ffffffff 	undefined instruction 0xffffffff
d002eff8:	bfbfffff 	svclt	0x00bfffff
d002effc:	bbbbbbff 	bllt	cef1e000 <_start-0x1102010>
d002f000:	aaaaaaaa 	bge	cead9ab0 <_start-0x1546560>
d002f004:	aaaaaaaa 	bge	cead9ab4 <_start-0x154655c>
d002f008:	aaaaaaaa 	bge	cead9ab8 <_start-0x1546558>
d002f00c:	aaaaaaaa 	bge	cead9abc <_start-0x1546554>
d002f010:	aaaaaaaa 	bge	cead9ac0 <_start-0x1546550>
d002f014:	aaaaaaaa 	bge	cead9ac4 <_start-0x154654c>
d002f018:	aaaaaaaa 	bge	cead9ac8 <_start-0x1546548>
d002f01c:	88888aaa 	stmhi	r8, {r1, r3, r5, r7, r9, fp, pc}
d002f020:	00aa8a88 	adceq	r8, sl, r8, lsl #21
d002f024:	00000000 	andeq	r0, r0, r0
d002f028:	57010000 	strpl	r0, [r1, -r0]
d002f02c:	ffffffff 	undefined instruction 0xffffffff
d002f030:	ffffffff 	undefined instruction 0xffffffff
d002f034:	ffffffff 	undefined instruction 0xffffffff
d002f038:	ffffffff 	undefined instruction 0xffffffff
d002f03c:	ffffffff 	undefined instruction 0xffffffff
d002f040:	ffffffff 	undefined instruction 0xffffffff
d002f044:	ffffffff 	undefined instruction 0xffffffff
d002f048:	ffffffff 	undefined instruction 0xffffffff
d002f04c:	ffffffff 	undefined instruction 0xffffffff
d002f050:	ffffffff 	undefined instruction 0xffffffff
d002f054:	ffffffff 	undefined instruction 0xffffffff
d002f058:	ffffffff 	undefined instruction 0xffffffff
d002f05c:	555575ff 	ldrbpl	r7, [r5, #-1535]	; 0x5ff
d002f060:	11555555 	cmpne	r5, r5, asr r5
d002f064:	00101111 	andseq	r1, r0, r1, lsl r1
d002f068:	00000000 	andeq	r0, r0, r0
d002f06c:	00007f01 	andeq	r7, r0, r1, lsl #30
d002f070:	00000000 	andeq	r0, r0, r0
d002f074:	aaaa0200 	bge	ceaaf87c <_start-0x1570794>
d002f078:	eeeaaaaa 	vfma.f32	s21, s21, s21
d002f07c:	eeeeeaea 	vfms.f32	s29, s29, s21
d002f080:	eeeeeeee 	cdp	14, 14, cr14, cr14, cr14, {7}
d002f084:	eeeeeeee 	cdp	14, 14, cr14, cr14, cr14, {7}
d002f088:	feeeeeee 	cdp2	14, 14, cr14, cr14, cr14, {7}
d002f08c:	eeeeeeee 	cdp	14, 14, cr14, cr14, cr14, {7}
d002f090:	eeeeeeee 	cdp	14, 14, cr14, cr14, cr14, {7}
d002f094:	aaaaaaea 	bge	cead9c44 <_start-0x15463cc>
d002f098:	aaaaaaaa 	bge	cead9b48 <_start-0x15464c8>
d002f09c:	aaaaaaaa 	bge	cead9b4c <_start-0x15464c4>
d002f0a0:	aaaaaaaa 	bge	cead9b50 <_start-0x15464c0>
d002f0a4:	aaaaaaaa 	bge	cead9b54 <_start-0x15464bc>
d002f0a8:	aaaaaaaa 	bge	cead9b58 <_start-0x15464b8>
d002f0ac:	aaaaaaaa 	bge	cead9b5c <_start-0x15464b4>
d002f0b0:	aaaaaaaa 	bge	cead9b60 <_start-0x15464b0>
d002f0b4:	022022aa 	eoreq	r2, r0, #-1610612726	; 0xa000000a
d002f0b8:	000000aa 	andeq	r0, r0, sl, lsr #1
d002f0bc:	00000000 	andeq	r0, r0, r0
d002f0c0:	ffdd5d00 	undefined instruction 0xffdd5d00
d002f0c4:	ffffffff 	undefined instruction 0xffffffff
d002f0c8:	ffffffff 	undefined instruction 0xffffffff
d002f0cc:	ffffffff 	undefined instruction 0xffffffff
d002f0d0:	ffffffff 	undefined instruction 0xffffffff
d002f0d4:	ffffffff 	undefined instruction 0xffffffff
d002f0d8:	ffffffff 	undefined instruction 0xffffffff
d002f0dc:	ffffffff 	undefined instruction 0xffffffff
d002f0e0:	ddfdffff 	ldclle	15, cr15, [sp, #1020]!	; 0x3fc
d002f0e4:	dddddddd 	ldclle	13, cr13, [sp, #884]	; 0x374
d002f0e8:	fdfdfdfd 	ldc2l	13, cr15, [sp, #1012]!	; 0x3f4
d002f0ec:	fffffdfd 	undefined instruction 0xfffffdfd
d002f0f0:	ddddfdfd 	ldclle	13, cr15, [sp, #1012]	; 0x3f4
d002f0f4:	4454d4dd 	ldrbmi	sp, [r4], #-1245	; 0x4dd
d002f0f8:	00404444 	subeq	r4, r0, r4, asr #8
d002f0fc:	00000000 	andeq	r0, r0, r0
d002f100:	5d000000 	stcpl	0, cr0, [r0]
d002f104:	80008000 	andhi	r8, r0, r0
d002f108:	8a000000 	bhi	d002f110 <gImage_pic+0xc744>
d002f10c:	bbabaaaa 	bllt	ceb19bbc <_start-0x1506454>
d002f110:	bbabbbbb 	bllt	ceb1e004 <_start-0x150200c>
d002f114:	fffffbbb 	undefined instruction 0xfffffbbb
d002f118:	fbffffff 	blx	d002f11e <gImage_pic+0xc752>
d002f11c:	ffffffff 	undefined instruction 0xffffffff
d002f120:	ffffffff 	undefined instruction 0xffffffff
d002f124:	fbfbfbfb 	blx	cff2e11a <_start-0xf1ef6>
d002f128:	abbbbbfb 	blge	cef1e11c <_start-0x1101ef4>
d002f12c:	aaaaaaaa 	bge	cead9bdc <_start-0x1546434>
d002f130:	aaaaaaaa 	bge	cead9be0 <_start-0x1546430>
d002f134:	aaaaaaaa 	bge	cead9be4 <_start-0x154642c>
d002f138:	aaaaaaaa 	bge	cead9be8 <_start-0x1546428>
d002f13c:	aaaaaaaa 	bge	cead9bec <_start-0x1546424>
d002f140:	aaaaaaaa 	bge	cead9bf0 <_start-0x1546420>
d002f144:	aaaaaaaa 	bge	cead9bf4 <_start-0x154641c>
d002f148:	8888a8a8 	stmhi	r8, {r3, r5, r7, fp, sp, pc}
d002f14c:	00aa8888 	adceq	r8, sl, r8, lsl #17
d002f150:	00000000 	andeq	r0, r0, r0
d002f154:	57010000 	strpl	r0, [r1, -r0]
d002f158:	ffffff77 	undefined instruction 0xffffff77
d002f15c:	ffffffff 	undefined instruction 0xffffffff
d002f160:	ffffffff 	undefined instruction 0xffffffff
d002f164:	ffffffff 	undefined instruction 0xffffffff
d002f168:	ffffffff 	undefined instruction 0xffffffff
d002f16c:	ffffffff 	undefined instruction 0xffffffff
d002f170:	ffffffff 	undefined instruction 0xffffffff
d002f174:	ffffffff 	undefined instruction 0xffffffff
d002f178:	fff7ffff 	undefined instruction 0xfff7ffff
d002f17c:	fffffff7 	undefined instruction 0xfffffff7
d002f180:	ffffffff 	undefined instruction 0xffffffff
d002f184:	ffffffff 	undefined instruction 0xffffffff
d002f188:	5555f7ff 	ldrbpl	pc, [r5, #-2047]	; 0x7ff
d002f18c:	51515555 	cmppl	r1, r5, asr r5
d002f190:	00001111 	andeq	r1, r0, r1, lsl r1
d002f194:	00000000 	andeq	r0, r0, r0
d002f198:	00001700 	andeq	r1, r0, r0, lsl #14
d002f19c:	00000000 	andeq	r0, r0, r0
d002f1a0:	aaaa0200 	bge	ceaaf9a8 <_start-0x1570668>
d002f1a4:	aeaeaeaa 	cdpge	14, 10, cr10, cr14, cr10, {5}
d002f1a8:	eeeeaeaa 	cdp	14, 14, cr10, cr14, cr10, {5}
d002f1ac:	efefefef 	svc	0x00efefef
d002f1b0:	efefeeef 	svc	0x00efeeef
d002f1b4:	efefefef 	svc	0x00efefef
d002f1b8:	eeeeeeee 	cdp	14, 14, cr14, cr14, cr14, {7}
d002f1bc:	aeeeeeee 	cdpge	14, 14, cr14, cr14, cr14, {7}
d002f1c0:	aaaaaaaa 	bge	cead9c70 <_start-0x15463a0>
d002f1c4:	aaaaaaaa 	bge	cead9c74 <_start-0x154639c>
d002f1c8:	aaaaaaaa 	bge	cead9c78 <_start-0x1546398>
d002f1cc:	aaaaaaaa 	bge	cead9c7c <_start-0x1546394>
d002f1d0:	aaaaaaaa 	bge	cead9c80 <_start-0x1546390>
d002f1d4:	aaaaaaaa 	bge	cead9c84 <_start-0x154638c>
d002f1d8:	aaaaaaaa 	bge	cead9c88 <_start-0x1546388>
d002f1dc:	aaaaaaaa 	bge	cead9c8c <_start-0x1546384>
d002f1e0:	0022a2a2 	eoreq	sl, r2, r2, lsr #5
d002f1e4:	000000aa 	andeq	r0, r0, sl, lsr #1
d002f1e8:	00000000 	andeq	r0, r0, r0
d002f1ec:	ffdd5d00 	undefined instruction 0xffdd5d00
d002f1f0:	ffffffff 	undefined instruction 0xffffffff
d002f1f4:	ffffffff 	undefined instruction 0xffffffff
d002f1f8:	ffffffff 	undefined instruction 0xffffffff
d002f1fc:	ffffffff 	undefined instruction 0xffffffff
d002f200:	ffffffff 	undefined instruction 0xffffffff
d002f204:	ffffffff 	undefined instruction 0xffffffff
d002f208:	ffffffff 	undefined instruction 0xffffffff
d002f20c:	dddfdfff 	ldclle	15, cr13, [pc, #1020]	; 0x3fc
d002f210:	dddddddd 	ldclle	13, cr13, [sp, #884]	; 0x374
d002f214:	ffffdfdf 	undefined instruction 0xffffdfdf
d002f218:	ffffffff 	undefined instruction 0xffffffff
d002f21c:	ddddffff 	ldclle	15, cr15, [sp, #1020]	; 0x3fc
d002f220:	444455dd 	strbmi	r5, [r4], #-1501	; 0x5dd
d002f224:	00404444 	subeq	r4, r0, r4, asr #8
d002f228:	00000000 	andeq	r0, r0, r0
d002f22c:	0d000000 	stceq	0, cr0, [r0]
d002f230:	00000000 	andeq	r0, r0, r0
d002f234:	0a000000 	beq	d002f23c <gImage_pic+0xc870>
d002f238:	bbbbaaaa 	bllt	cef19ce8 <_start-0x1106328>
d002f23c:	bbbbbbbb 	bllt	cef1e130 <_start-0x1101ee0>
d002f240:	ffffffbf 	undefined instruction 0xffffffbf
d002f244:	ffffffff 	undefined instruction 0xffffffff
d002f248:	ffffffff 	undefined instruction 0xffffffff
d002f24c:	fbffffff 	blx	d002f252 <gImage_pic+0xc886>
d002f250:	bbbbbbbb 	bllt	cef1e144 <_start-0x1101ecc>
d002f254:	aabababb 	bge	ceeddd48 <_start-0x11422c8>
d002f258:	aaaaaaaa 	bge	cead9d08 <_start-0x1546308>
d002f25c:	aaaaaaaa 	bge	cead9d0c <_start-0x1546304>
d002f260:	aaaaaaaa 	bge	cead9d10 <_start-0x1546300>
d002f264:	aaaaaaaa 	bge	cead9d14 <_start-0x15462fc>
d002f268:	aaaaaaaa 	bge	cead9d18 <_start-0x15462f8>
d002f26c:	aaaaaaaa 	bge	cead9d1c <_start-0x15462f4>
d002f270:	aaaaaaaa 	bge	cead9d20 <_start-0x15462f0>
d002f274:	88888aaa 	stmhi	r8, {r1, r3, r5, r7, r9, fp, pc}
d002f278:	00aa8888 	adceq	r8, sl, r8, lsl #17
d002f27c:	00000000 	andeq	r0, r0, r0
d002f280:	55010000 	strpl	r0, [r1]
d002f284:	ffffff7f 	undefined instruction 0xffffff7f
d002f288:	ffffffff 	undefined instruction 0xffffffff
d002f28c:	ffffffff 	undefined instruction 0xffffffff
d002f290:	ffffffff 	undefined instruction 0xffffffff
d002f294:	ffffffff 	undefined instruction 0xffffffff
d002f298:	ffffffff 	undefined instruction 0xffffffff
d002f29c:	ffffffff 	undefined instruction 0xffffffff
d002f2a0:	ffffffff 	undefined instruction 0xffffffff
d002f2a4:	ffffffff 	undefined instruction 0xffffffff
d002f2a8:	ffff7fff 	undefined instruction 0xffff7fff
d002f2ac:	ffffffff 	undefined instruction 0xffffffff
d002f2b0:	ffffffff 	undefined instruction 0xffffffff
d002f2b4:	5575ffff 	ldrbpl	pc, [r5, #-4095]!	; 0xfff
d002f2b8:	11115555 	tstne	r1, r5, asr r5
d002f2bc:	00001011 	andeq	r1, r0, r1, lsl r0
d002f2c0:	00000000 	andeq	r0, r0, r0
d002f2c4:	00001500 	andeq	r1, r0, r0, lsl #10
d002f2c8:	00000000 	andeq	r0, r0, r0
d002f2cc:	aaaa0a00 	bge	ceab1ad4 <_start-0x156e53c>
d002f2d0:	eaaaeaaa 	b	ceae9d80 <_start-0x1536290>
d002f2d4:	eeeeeeaa 	cdp	14, 14, cr14, cr14, cr10, {5}
d002f2d8:	fefefefe 	mrc2	14, 7, pc, cr14, cr14, {7}
d002f2dc:	eeeeeefe 	mcr	14, 7, lr, cr14, cr14, {7}
d002f2e0:	eefefefe 	mrc	14, 7, pc, cr14, cr14, {7}
d002f2e4:	eaeaeeee 	b	cfaeaea4 <_start-0x53516c>
d002f2e8:	aaaaaaaa 	bge	cead9d98 <_start-0x1546278>
d002f2ec:	aaaaaaaa 	bge	cead9d9c <_start-0x1546274>
d002f2f0:	aaaaaaaa 	bge	cead9da0 <_start-0x1546270>
d002f2f4:	aaaaaaaa 	bge	cead9da4 <_start-0x154626c>
d002f2f8:	aaaaaaaa 	bge	cead9da8 <_start-0x1546268>
d002f2fc:	aaaaaaaa 	bge	cead9dac <_start-0x1546264>
d002f300:	aaaaaaaa 	bge	cead9db0 <_start-0x1546260>
d002f304:	aaaaaaaa 	bge	cead9db4 <_start-0x154625c>
d002f308:	aaaaaaaa 	bge	cead9db8 <_start-0x1546258>
d002f30c:	002022aa 	eoreq	r2, r0, sl, lsr #5
d002f310:	0000002a 	andeq	r0, r0, sl, lsr #32
d002f314:	00000000 	andeq	r0, r0, r0
d002f318:	ffffdd00 	undefined instruction 0xffffdd00
d002f31c:	ffffffff 	undefined instruction 0xffffffff
d002f320:	ffffffff 	undefined instruction 0xffffffff
d002f324:	ffffffff 	undefined instruction 0xffffffff
d002f328:	ffffffff 	undefined instruction 0xffffffff
d002f32c:	ffffffff 	undefined instruction 0xffffffff
d002f330:	ffffffff 	undefined instruction 0xffffffff
d002f334:	fdddfdff 	ldc2l	13, cr15, [sp, #1020]	; 0x3fc
d002f338:	ddddddfd 	ldclle	13, cr13, [sp, #1012]	; 0x3f4
d002f33c:	dddddddd 	ldclle	13, cr13, [sp, #884]	; 0x374
d002f340:	fdfdfddd 	ldc2l	13, cr15, [sp, #884]!	; 0x374
d002f344:	fffffffd 	undefined instruction 0xfffffffd
d002f348:	ddfdffff 	ldclle	15, cr15, [sp, #1020]!	; 0x3fc
d002f34c:	4444d4dd 	strbmi	sp, [r4], #-1245	; 0x4dd
d002f350:	00004040 	andeq	r4, r0, r0, asr #32
d002f354:	00000000 	andeq	r0, r0, r0
d002f358:	05000000 	streq	r0, [r0]
d002f35c:	00000000 	andeq	r0, r0, r0
d002f360:	8a800000 	bhi	ce02f368 <_start-0x1ff0ca8>
d002f364:	bbbbabaa 	bllt	cef1a214 <_start-0x1105dfc>
d002f368:	fbbbbbbb 	blx	cef1e25e <_start-0x1101db2>
d002f36c:	fffffffb 	undefined instruction 0xfffffffb
d002f370:	ffffffff 	undefined instruction 0xffffffff
d002f374:	ffffffff 	undefined instruction 0xffffffff
d002f378:	fbfbffff 	blx	cff2f37e <_start-0xf0c92>
d002f37c:	aaaabbbb 	bge	ceade270 <_start-0x1541da0>
d002f380:	aaaaaaaa 	bge	cead9e30 <_start-0x15461e0>
d002f384:	aaaaaaaa 	bge	cead9e34 <_start-0x15461dc>
d002f388:	aaaaaaaa 	bge	cead9e38 <_start-0x15461d8>
d002f38c:	aaaaaaaa 	bge	cead9e3c <_start-0x15461d4>
d002f390:	ababaaaa 	blge	ceb19e40 <_start-0x15061d0>
d002f394:	aaaaaaaa 	bge	cead9e44 <_start-0x15461cc>
d002f398:	aaaaaaaa 	bge	cead9e48 <_start-0x15461c8>
d002f39c:	a8aaaaaa 	stmiage	sl!, {r1, r3, r5, r7, r9, fp, sp, pc}
d002f3a0:	888888a8 	stmhi	r8, {r3, r5, r7, fp, pc}
d002f3a4:	008a8888 	addeq	r8, sl, r8, lsl #17
d002f3a8:	00000000 	andeq	r0, r0, r0
d002f3ac:	57010000 	strpl	r0, [r1, -r0]
d002f3b0:	ffffffff 	undefined instruction 0xffffffff
d002f3b4:	ffffffff 	undefined instruction 0xffffffff
d002f3b8:	ffffffff 	undefined instruction 0xffffffff
d002f3bc:	ffffffff 	undefined instruction 0xffffffff
d002f3c0:	ffffffff 	undefined instruction 0xffffffff
d002f3c4:	ffffffff 	undefined instruction 0xffffffff
d002f3c8:	ffffffff 	undefined instruction 0xffffffff
d002f3cc:	f7fffff7 	undefined instruction 0xf7fffff7
d002f3d0:	fff7f7f7 	undefined instruction 0xfff7f7f7
d002f3d4:	fffff7f7 	undefined instruction 0xfffff7f7
d002f3d8:	ffffffff 	undefined instruction 0xffffffff
d002f3dc:	ffffffff 	undefined instruction 0xffffffff
d002f3e0:	5577f7ff 	ldrbpl	pc, [r7, #-2047]!	; 0x7ff
d002f3e4:	11115155 	tstne	r1, r5, asr r1
d002f3e8:	00000101 	andeq	r0, r0, r1, lsl #2
d002f3ec:	00000000 	andeq	r0, r0, r0
d002f3f0:	00000100 	andeq	r0, r0, r0, lsl #2
d002f3f4:	00000000 	andeq	r0, r0, r0
d002f3f8:	aaaa2a00 	bge	ceab9c00 <_start-0x1566410>
d002f3fc:	aeaeaeaa 	cdpge	14, 10, cr10, cr14, cr10, {5}
d002f400:	efeeeeee 	svc	0x00eeeeee
d002f404:	efefefef 	svc	0x00efefef
d002f408:	efefefef 	svc	0x00efefef
d002f40c:	eeefefef 	cdp	15, 14, cr14, cr15, cr15, {7}
d002f410:	aaeaeeee 	bge	cfaeafd0 <_start-0x535040>
d002f414:	aaaaaaaa 	bge	cead9ec4 <_start-0x154614c>
d002f418:	aaaaaaaa 	bge	cead9ec8 <_start-0x1546148>
d002f41c:	aaaaaaaa 	bge	cead9ecc <_start-0x1546144>
d002f420:	aaaaaaaa 	bge	cead9ed0 <_start-0x1546140>
d002f424:	aaaaaaaa 	bge	cead9ed4 <_start-0x154613c>
d002f428:	aaaaaaaa 	bge	cead9ed8 <_start-0x1546138>
d002f42c:	aaaaaaaa 	bge	cead9edc <_start-0x1546134>
d002f430:	aaaaaaaa 	bge	cead9ee0 <_start-0x1546130>
d002f434:	aaaaaaaa 	bge	cead9ee4 <_start-0x154612c>
d002f438:	02a2a2a2 	adceq	sl, r2, #536870922	; 0x2000000a
d002f43c:	00000002 	andeq	r0, r0, r2
d002f440:	00000000 	andeq	r0, r0, r0
d002f444:	ffffdd05 	undefined instruction 0xffffdd05
d002f448:	ffffffff 	undefined instruction 0xffffffff
d002f44c:	ffffffff 	undefined instruction 0xffffffff
d002f450:	ffffffff 	undefined instruction 0xffffffff
d002f454:	ffffffff 	undefined instruction 0xffffffff
d002f458:	ffffffff 	undefined instruction 0xffffffff
d002f45c:	ddffffff 	ldclle	15, cr15, [pc, #1020]!	; 0x3fc
d002f460:	dddddddd 	ldclle	13, cr13, [sp, #884]	; 0x374
d002f464:	dddddddd 	ldclle	13, cr13, [sp, #884]	; 0x374
d002f468:	dddddddd 	ldclle	13, cr13, [sp, #884]	; 0x374
d002f46c:	ffdfdfdd 	undefined instruction 0xffdfdfdd
d002f470:	ffffffff 	undefined instruction 0xffffffff
d002f474:	ddffffff 	ldclle	15, cr15, [pc, #1020]!	; 0x3fc
d002f478:	4444d5dd 	strbmi	sp, [r4], #-1501	; 0x5dd
d002f47c:	00000044 	andeq	r0, r0, r4, asr #32
	...
d002f48c:	0a000000 	beq	d002f494 <gImage_pic+0xcac8>
d002f490:	bbbbabaa 	bllt	cef1a340 <_start-0x1105cd0>
d002f494:	ffbbbbbb 	undefined instruction 0xffbbbbbb
d002f498:	ffffffbf 	undefined instruction 0xffffffbf
d002f49c:	ffffffff 	undefined instruction 0xffffffff
d002f4a0:	ffffffff 	undefined instruction 0xffffffff
d002f4a4:	bbfbffff 	bllt	cff2f4a8 <_start-0xf0b68>
d002f4a8:	aaaaaaba 	bge	cead9f98 <_start-0x1546078>
d002f4ac:	aaaaaaaa 	bge	cead9f5c <_start-0x15460b4>
d002f4b0:	aaaaaaaa 	bge	cead9f60 <_start-0x15460b0>
d002f4b4:	aaaaaaaa 	bge	cead9f64 <_start-0x15460ac>
d002f4b8:	aaaaaaaa 	bge	cead9f68 <_start-0x15460a8>
d002f4bc:	baaaaaaa 	blt	cead9f6c <_start-0x15460a4>
d002f4c0:	aaaaaaaa 	bge	cead9f70 <_start-0x15460a0>
d002f4c4:	aaaaaaaa 	bge	cead9f74 <_start-0x154609c>
d002f4c8:	aaaaaaaa 	bge	cead9f78 <_start-0x1546098>
d002f4cc:	88888888 	stmhi	r8, {r3, r7, fp, pc}
d002f4d0:	008a8888 	addeq	r8, sl, r8, lsl #17
d002f4d4:	00000000 	andeq	r0, r0, r0
d002f4d8:	57050000 	strpl	r0, [r5, -r0]
d002f4dc:	ffffffff 	undefined instruction 0xffffffff
d002f4e0:	ffffffff 	undefined instruction 0xffffffff
d002f4e4:	ffffffff 	undefined instruction 0xffffffff
d002f4e8:	ffffffff 	undefined instruction 0xffffffff
d002f4ec:	ffffffff 	undefined instruction 0xffffffff
d002f4f0:	ffffffff 	undefined instruction 0xffffffff
d002f4f4:	5575f5ff 	ldrbpl	pc, [r5, #-1535]!	; 0x5ff
d002f4f8:	777f7755 	undefined instruction 0x777f7755
d002f4fc:	ff7f7f77 	undefined instruction 0xff7f7f77
d002f500:	ffffffff 	undefined instruction 0xffffffff
d002f504:	ffffffff 	undefined instruction 0xffffffff
d002f508:	ffffffff 	undefined instruction 0xffffffff
d002f50c:	5575ffff 	ldrbpl	pc, [r5, #-4095]!	; 0xfff
d002f510:	11115155 	tstne	r1, r5, asr r1
d002f514:	00000010 	andeq	r0, r0, r0, lsl r0
	...
d002f524:	aaaa2a00 	bge	ceab9d2c <_start-0x15662e4>
d002f528:	eeaaeaaa 	vfma.f32	s28, s21, s21
d002f52c:	eeeeeeee 	cdp	14, 14, cr14, cr14, cr14, {7}
d002f530:	feeeeeee 	cdp2	14, 14, cr14, cr14, cr14, {7}
d002f534:	feeefeee 	cdp2	14, 14, cr15, cr14, cr14, {7}
d002f538:	eeeefefe 	mcr	14, 7, pc, cr14, cr14, {7}
d002f53c:	aaaaeaee 	bge	ceaea0fc <_start-0x1535f14>
d002f540:	aaaaaaaa 	bge	cead9ff0 <_start-0x1546020>
d002f544:	aaaaaaaa 	bge	cead9ff4 <_start-0x154601c>
d002f548:	aaaaaaaa 	bge	cead9ff8 <_start-0x1546018>
d002f54c:	aaaaaaaa 	bge	cead9ffc <_start-0x1546014>
d002f550:	aaaaaaaa 	bge	ceada000 <_start-0x1546010>
d002f554:	aaaaaaaa 	bge	ceada004 <_start-0x154600c>
d002f558:	aaaaaaaa 	bge	ceada008 <_start-0x1546008>
d002f55c:	aaaaaaaa 	bge	ceada00c <_start-0x1546004>
d002f560:	aaaaaaaa 	bge	ceada010 <_start-0x1546000>
d002f564:	202022aa 	eorcs	r2, r0, sl, lsr #5
d002f568:	00000002 	andeq	r0, r0, r2
d002f56c:	00000000 	andeq	r0, r0, r0
d002f570:	ffff5d04 	undefined instruction 0xffff5d04
d002f574:	ffffffff 	undefined instruction 0xffffffff
d002f578:	ffffffff 	undefined instruction 0xffffffff
d002f57c:	ffffffff 	undefined instruction 0xffffffff
d002f580:	ffffffff 	undefined instruction 0xffffffff
d002f584:	ffffffff 	undefined instruction 0xffffffff
d002f588:	ddddfdff 	ldclle	13, cr15, [sp, #1020]	; 0x3fc
d002f58c:	ddd5d5dd 	cfldr64le	mvdx13, [r5, #884]	; 0x374
d002f590:	dddddddd 	ldclle	13, cr13, [sp, #884]	; 0x374
d002f594:	dddddddd 	ldclle	13, cr13, [sp, #884]	; 0x374
d002f598:	fdfddddd 	ldc2l	13, cr13, [sp, #884]!	; 0x374
d002f59c:	ffffffff 	undefined instruction 0xffffffff
d002f5a0:	ddfdffff 	ldclle	15, cr15, [sp, #1020]!	; 0x3fc
d002f5a4:	4454d4dd 	ldrbmi	sp, [r4], #-1245	; 0x4dd
d002f5a8:	00000040 	andeq	r0, r0, r0, asr #32
	...
d002f5b4:	00008000 	andeq	r8, r0, r0
d002f5b8:	0a000000 	beq	d002f5c0 <gImage_pic+0xcbf4>
d002f5bc:	bbabaaaa 	bllt	ceb1a06c <_start-0x1505fa4>
d002f5c0:	fbbbbbbb 	blx	cef1e4b6 <_start-0x1101b5a>
d002f5c4:	fffffbbb 	undefined instruction 0xfffffbbb
d002f5c8:	ffffffff 	undefined instruction 0xffffffff
d002f5cc:	ffffffff 	undefined instruction 0xffffffff
d002f5d0:	bbfbffff 	bllt	cff2f5d4 <_start-0xf0a3c>
d002f5d4:	aaaaaaaa 	bge	ceada084 <_start-0x1545f8c>
d002f5d8:	aaaaaaaa 	bge	ceada088 <_start-0x1545f88>
d002f5dc:	aaaaaaaa 	bge	ceada08c <_start-0x1545f84>
d002f5e0:	aaaaaaaa 	bge	ceada090 <_start-0x1545f80>
d002f5e4:	aaaaaaaa 	bge	ceada094 <_start-0x1545f7c>
d002f5e8:	abababab 	blge	ceb1a49c <_start-0x1505b74>
d002f5ec:	aaaaaaab 	bge	ceada0a0 <_start-0x1545f70>
d002f5f0:	aaaaaaaa 	bge	ceada0a0 <_start-0x1545f70>
d002f5f4:	a8aaaaaa 	stmiage	sl!, {r1, r3, r5, r7, r9, fp, sp, pc}
d002f5f8:	88888888 	stmhi	r8, {r3, r7, fp, pc}
d002f5fc:	00808888 	addeq	r8, r0, r8, lsl #17
d002f600:	00000000 	andeq	r0, r0, r0
d002f604:	57010000 	strpl	r0, [r1, -r0]
d002f608:	ffffffff 	undefined instruction 0xffffffff
d002f60c:	ffffffff 	undefined instruction 0xffffffff
d002f610:	ffffffff 	undefined instruction 0xffffffff
d002f614:	ffffffff 	undefined instruction 0xffffffff
d002f618:	ffffffff 	undefined instruction 0xffffffff
d002f61c:	ffffffff 	undefined instruction 0xffffffff
d002f620:	55555577 	ldrbpl	r5, [r5, #-1399]	; 0x577
d002f624:	77775755 	undefined instruction 0x77775755
d002f628:	f7f77757 	undefined instruction 0xf7f77757
d002f62c:	fffff7f7 	undefined instruction 0xfffff7f7
d002f630:	ffffffff 	undefined instruction 0xffffffff
d002f634:	ffffffff 	undefined instruction 0xffffffff
d002f638:	55f7ffff 	ldrbpl	pc, [r7, #4095]!	; 0xfff
d002f63c:	01115155 	tsteq	r1, r5, asr r1
d002f640:	00000001 	andeq	r0, r0, r1
	...
d002f650:	aaaa2a00 	bge	ceab9e58 <_start-0x15661b8>
d002f654:	eeaeaaaa 	vfma.f32	s20, s29, s21
d002f658:	eeaeaeae 	cdp	14, 10, cr10, cr14, cr14, {5}
d002f65c:	efefefee 	svc	0x00efefee
d002f660:	efefefef 	svc	0x00efefef
d002f664:	eeefefef 	cdp	15, 14, cr14, cr15, cr15, {7}
d002f668:	aaaaeaee 	bge	ceaea228 <_start-0x1535de8>
d002f66c:	aaaaaaaa 	bge	ceada11c <_start-0x1545ef4>
d002f670:	aaaaaaaa 	bge	ceada120 <_start-0x1545ef0>
d002f674:	aaaaaaaa 	bge	ceada124 <_start-0x1545eec>
d002f678:	aaaaaaaa 	bge	ceada128 <_start-0x1545ee8>
d002f67c:	aaaaaaaa 	bge	ceada12c <_start-0x1545ee4>
d002f680:	aaaaaaaa 	bge	ceada130 <_start-0x1545ee0>
d002f684:	aaaaaaaa 	bge	ceada134 <_start-0x1545edc>
d002f688:	aaaaaaaa 	bge	ceada138 <_start-0x1545ed8>
d002f68c:	aaaaaaaa 	bge	ceada13c <_start-0x1545ed4>
d002f690:	00a2a2a2 	adceq	sl, r2, r2, lsr #5
	...
d002f69c:	ffdf5d00 	undefined instruction 0xffdf5d00
d002f6a0:	ffffffff 	undefined instruction 0xffffffff
d002f6a4:	ffffffff 	undefined instruction 0xffffffff
d002f6a8:	ffffffff 	undefined instruction 0xffffffff
d002f6ac:	ffffffff 	undefined instruction 0xffffffff
d002f6b0:	ffffffff 	undefined instruction 0xffffffff
d002f6b4:	55ddddff 	ldrbpl	sp, [sp, #3583]	; 0xdff
d002f6b8:	5d555555 	cfldr64pl	mvdx5, [r5, #-340]	; 0xfffffeac
d002f6bc:	dddddddd 	ldclle	13, cr13, [sp, #884]	; 0x374
d002f6c0:	dddddddd 	ldclle	13, cr13, [sp, #884]	; 0x374
d002f6c4:	dfdfdfdd 	svcle	0x00dfdfdd
d002f6c8:	ffffffff 	undefined instruction 0xffffffff
d002f6cc:	ddffffff 	ldclle	15, cr15, [pc, #1020]!	; 0x3fc
d002f6d0:	4444dddd 	strbmi	sp, [r4], #-3549	; 0xddd
d002f6d4:	00000044 	andeq	r0, r0, r4, asr #32
	...
d002f6e4:	8a000000 	bhi	d002f6ec <gImage_pic+0xcd20>
d002f6e8:	bbbbaaaa 	bllt	cef1a198 <_start-0x1105e78>
d002f6ec:	bbbbbbbb 	bllt	cef1e5e0 <_start-0x1101a30>
d002f6f0:	ffbfbbbb 	undefined instruction 0xffbfbbbb
d002f6f4:	ffffffff 	undefined instruction 0xffffffff
d002f6f8:	ffffffff 	undefined instruction 0xffffffff
d002f6fc:	babbffff 	blt	cef2f700 <_start-0x10f0910>
d002f700:	aaaaaaaa 	bge	ceada1b0 <_start-0x1545e60>
d002f704:	aaaaaaaa 	bge	ceada1b4 <_start-0x1545e5c>
d002f708:	aaaaaaaa 	bge	ceada1b8 <_start-0x1545e58>
d002f70c:	aaaaaaaa 	bge	ceada1bc <_start-0x1545e54>
d002f710:	aaaaaaaa 	bge	ceada1c0 <_start-0x1545e50>
d002f714:	aaaaaaaa 	bge	ceada1c4 <_start-0x1545e4c>
d002f718:	aaaaaaba 	bge	ceada208 <_start-0x1545e08>
d002f71c:	aaaaaaaa 	bge	ceada1cc <_start-0x1545e44>
d002f720:	aaaaaaaa 	bge	ceada1d0 <_start-0x1545e40>
d002f724:	8888888a 	stmhi	r8, {r1, r3, r7, fp, pc}
d002f728:	00888888 	addeq	r8, r8, r8, lsl #17
d002f72c:	00000000 	andeq	r0, r0, r0
d002f730:	57010000 	strpl	r0, [r1, -r0]
d002f734:	ffffff7f 	undefined instruction 0xffffff7f
d002f738:	ffffffff 	undefined instruction 0xffffffff
d002f73c:	ffffffff 	undefined instruction 0xffffffff
d002f740:	ffffffff 	undefined instruction 0xffffffff
d002f744:	ffffffff 	undefined instruction 0xffffffff
d002f748:	75ffffff 	ldrbvc	pc, [pc, #4095]!	; d003074f <gImage_pic+0xdd83>
d002f74c:	55555555 	ldrbpl	r5, [r5, #-1365]	; 0x555
d002f750:	55555555 	ldrbpl	r5, [r5, #-1365]	; 0x555
d002f754:	7f7f7f75 	svcvc	0x007f7f75
d002f758:	ffffff7f 	undefined instruction 0xffffff7f
d002f75c:	ffffffff 	undefined instruction 0xffffffff
d002f760:	ffffffff 	undefined instruction 0xffffffff
d002f764:	55f5ffff 	ldrbpl	pc, [r5, #4095]!	; 0xfff
d002f768:	10111155 	andsne	r1, r1, r5, asr r1
	...
d002f77c:	aaaa2a00 	bge	ceab9f84 <_start-0x156608c>
d002f780:	eeeeaaaa 	vfma.f32	s21, s29, s21
d002f784:	eaeeaaaa 	b	cfbda234 <_start-0x445ddc>
d002f788:	eeeeeeee 	cdp	14, 14, cr14, cr14, cr14, {7}
d002f78c:	eeeeeeee 	cdp	14, 14, cr14, cr14, cr14, {7}
d002f790:	eeeeeefe 	mcr	14, 7, lr, cr14, cr14, {7}
d002f794:	aaaaaaea 	bge	ceada344 <_start-0x1545ccc>
d002f798:	aaaaaaaa 	bge	ceada248 <_start-0x1545dc8>
d002f79c:	aaaaaaaa 	bge	ceada24c <_start-0x1545dc4>
d002f7a0:	aaaaaaaa 	bge	ceada250 <_start-0x1545dc0>
d002f7a4:	aaaaaaaa 	bge	ceada254 <_start-0x1545dbc>
d002f7a8:	aaaaaaaa 	bge	ceada258 <_start-0x1545db8>
d002f7ac:	aaaaaaaa 	bge	ceada25c <_start-0x1545db4>
d002f7b0:	aaaaaaaa 	bge	ceada260 <_start-0x1545db0>
d002f7b4:	aaaaaaaa 	bge	ceada264 <_start-0x1545dac>
d002f7b8:	aaaaaaaa 	bge	ceada268 <_start-0x1545da8>
d002f7bc:	202222aa 	eorcs	r2, r2, sl, lsr #5
	...
d002f7c8:	ffdf5d00 	undefined instruction 0xffdf5d00
d002f7cc:	ffffffff 	undefined instruction 0xffffffff
d002f7d0:	ffffffff 	undefined instruction 0xffffffff
d002f7d4:	ffffffff 	undefined instruction 0xffffffff
d002f7d8:	ffffffff 	undefined instruction 0xffffffff
d002f7dc:	ffffffff 	undefined instruction 0xffffffff
d002f7e0:	54d5d5dd 	ldrbpl	sp, [r5], #1501	; 0x5dd
d002f7e4:	55545444 	ldrbpl	r5, [r4, #-1092]	; 0x444
d002f7e8:	ddddddd5 	ldclle	13, cr13, [sp, #852]	; 0x354
d002f7ec:	dddddddd 	ldclle	13, cr13, [sp, #884]	; 0x374
d002f7f0:	fddddddd 	ldc2l	13, cr13, [sp, #884]	; 0x374
d002f7f4:	fffffffd 	undefined instruction 0xfffffffd
d002f7f8:	fdffffff 	ldc2l	15, cr15, [pc, #1020]!	; 0x3fc
d002f7fc:	4454d5dd 	ldrbmi	sp, [r4], #-1501	; 0x5dd
d002f800:	00000040 	andeq	r0, r0, r0, asr #32
	...
d002f80c:	00000080 	andeq	r0, r0, r0, lsl #1
d002f810:	8a000000 	bhi	d002f818 <gImage_pic+0xce4c>
d002f814:	bbababaa 	bllt	ceb1a6c4 <_start-0x150594c>
d002f818:	bbabbbfb 	bllt	ceb1e80c <_start-0x1501804>
d002f81c:	fbfbbbbb 	blx	cff1e712 <_start-0x1018fe>
d002f820:	ffffffff 	undefined instruction 0xffffffff
d002f824:	ffffffff 	undefined instruction 0xffffffff
d002f828:	aafafbff 	bge	cfeee82c <_start-0x1317e4>
d002f82c:	aaaaaaaa 	bge	ceada2dc <_start-0x1545d34>
d002f830:	aaaaaaaa 	bge	ceada2e0 <_start-0x1545d30>
d002f834:	aaaaaaaa 	bge	ceada2e4 <_start-0x1545d2c>
d002f838:	aaaaaaaa 	bge	ceada2e8 <_start-0x1545d28>
d002f83c:	aaaaaaaa 	bge	ceada2ec <_start-0x1545d24>
d002f840:	abababab 	blge	ceb1a6f4 <_start-0x150591c>
d002f844:	aaaaabab 	bge	ceada6f8 <_start-0x1545918>
d002f848:	aaaaaaaa 	bge	ceada2f8 <_start-0x1545d18>
d002f84c:	a8a8aaaa 	stmiage	r8!, {r1, r3, r5, r7, r9, fp, sp, pc}
d002f850:	88888888 	stmhi	r8, {r3, r7, fp, pc}
d002f854:	00808888 	addeq	r8, r0, r8, lsl #17
d002f858:	00000000 	andeq	r0, r0, r0
d002f85c:	57010000 	strpl	r0, [r1, -r0]
d002f860:	ffffff7f 	undefined instruction 0xffffff7f
d002f864:	ffffffff 	undefined instruction 0xffffffff
d002f868:	ffffffff 	undefined instruction 0xffffffff
d002f86c:	ffffffff 	undefined instruction 0xffffffff
d002f870:	ffffffff 	undefined instruction 0xffffffff
d002f874:	55f5ffff 	ldrbpl	pc, [r5, #4095]!	; 0xfff
d002f878:	55515555 	ldrbpl	r5, [r1, #-1365]	; 0x555
d002f87c:	55555555 	ldrbpl	r5, [r5, #-1365]	; 0x555
d002f880:	f7f75757 	undefined instruction 0xf7f75757
d002f884:	fff7f7f7 	undefined instruction 0xfff7f7f7
d002f888:	ffffffff 	undefined instruction 0xffffffff
d002f88c:	ffffffff 	undefined instruction 0xffffffff
d002f890:	55f7ffff 	ldrbpl	pc, [r7, #4095]!	; 0xfff
d002f894:	01115155 	tsteq	r1, r5, asr r1
	...
d002f8a8:	aaaa2a00 	bge	ceaba0b0 <_start-0x1565f60>
d002f8ac:	aeeeaeaa 	cdpge	14, 14, cr10, cr14, cr10, {5}
d002f8b0:	eeeeaeaa 	cdp	14, 14, cr10, cr14, cr10, {5}
d002f8b4:	eeeeeeee 	cdp	14, 14, cr14, cr14, cr14, {7}
d002f8b8:	efefefee 	svc	0x00efefee
d002f8bc:	eeefefef 	cdp	15, 14, cr14, cr15, cr15, {7}
d002f8c0:	aaaaaaea 	bge	ceada470 <_start-0x1545ba0>
d002f8c4:	aaaaaaaa 	bge	ceada374 <_start-0x1545c9c>
d002f8c8:	aaaaaaaa 	bge	ceada378 <_start-0x1545c98>
d002f8cc:	aaaaaaaa 	bge	ceada37c <_start-0x1545c94>
d002f8d0:	aaaaaaaa 	bge	ceada380 <_start-0x1545c90>
d002f8d4:	aaaaaaaa 	bge	ceada384 <_start-0x1545c8c>
d002f8d8:	aaaaaaaa 	bge	ceada388 <_start-0x1545c88>
d002f8dc:	aaaaaaaa 	bge	ceada38c <_start-0x1545c84>
d002f8e0:	aaaaaaaa 	bge	ceada390 <_start-0x1545c80>
d002f8e4:	a2aaaaaa 	adcge	sl, sl, #696320	; 0xaa000
d002f8e8:	02a2a2a2 	adceq	sl, r2, #536870922	; 0x2000000a
	...
d002f8f4:	ffdf5d00 	undefined instruction 0xffdf5d00
d002f8f8:	ffffffff 	undefined instruction 0xffffffff
d002f8fc:	ffffffff 	undefined instruction 0xffffffff
d002f900:	ffffffff 	undefined instruction 0xffffffff
d002f904:	ffffffff 	undefined instruction 0xffffffff
d002f908:	fdffffff 	ldc2l	15, cr15, [pc, #1020]!	; 0x3fc
d002f90c:	444555dd 	strbmi	r5, [r5], #-1501	; 0x5dd
d002f910:	55454544 	strbpl	r4, [r5, #-1348]	; 0x544
d002f914:	dddddd5d 	ldclle	13, cr13, [sp, #372]	; 0x174
d002f918:	dddddddd 	ldclle	13, cr13, [sp, #884]	; 0x374
d002f91c:	dfdfdddd 	svcle	0x00dfdddd
d002f920:	ffffffdf 	undefined instruction 0xffffffdf
d002f924:	ffffffff 	undefined instruction 0xffffffff
d002f928:	4454dddd 	ldrbmi	sp, [r4], #-3549	; 0xddd
d002f92c:	00000004 	andeq	r0, r0, r4
	...
d002f93c:	8a000000 	bhi	d002f944 <gImage_pic+0xcf78>
d002f940:	bbaaaaaa 	bllt	ceada3f0 <_start-0x1545c20>
d002f944:	bbbbbabb 	bllt	cef1e438 <_start-0x1101bd8>
d002f948:	bbbbbbbb 	bllt	cef1e83c <_start-0x11017d4>
d002f94c:	ffffffbf 	undefined instruction 0xffffffbf
d002f950:	ffffffff 	undefined instruction 0xffffffff
d002f954:	aaaaffff 	bge	ceaef958 <_start-0x15306b8>
d002f958:	aaaaaaaa 	bge	ceada408 <_start-0x1545c08>
d002f95c:	aaaaaaaa 	bge	ceada40c <_start-0x1545c04>
d002f960:	aaaaaaaa 	bge	ceada410 <_start-0x1545c00>
d002f964:	aaaaaaaa 	bge	ceada414 <_start-0x1545bfc>
d002f968:	aaaaaaaa 	bge	ceada418 <_start-0x1545bf8>
d002f96c:	baaaaaaa 	blt	ceada41c <_start-0x1545bf4>
d002f970:	aaaaaaaa 	bge	ceada420 <_start-0x1545bf0>
d002f974:	aaaaaaaa 	bge	ceada424 <_start-0x1545bec>
d002f978:	8aaaaaaa 	bhi	ceada428 <_start-0x1545be8>
d002f97c:	88888888 	stmhi	r8, {r3, r7, fp, pc}
d002f980:	00888888 	addeq	r8, r8, r8, lsl #17
d002f984:	00000000 	andeq	r0, r0, r0
d002f988:	55010000 	strpl	r0, [r1]
d002f98c:	ffffffff 	undefined instruction 0xffffffff
d002f990:	ffffffff 	undefined instruction 0xffffffff
d002f994:	ffffffff 	undefined instruction 0xffffffff
d002f998:	ffffffff 	undefined instruction 0xffffffff
d002f99c:	ffffffff 	undefined instruction 0xffffffff
d002f9a0:	5555fdff 	ldrbpl	pc, [r5, #-3583]	; 0xdff
d002f9a4:	15151155 	ldrne	r1, [r5, #-341]	; 0x155
d002f9a8:	55555555 	ldrbpl	r5, [r5, #-1365]	; 0x555
d002f9ac:	77775555 	undefined instruction 0x77775555
d002f9b0:	77777777 	undefined instruction 0x77777777
d002f9b4:	ffffff7f 	undefined instruction 0xffffff7f
d002f9b8:	ffffffff 	undefined instruction 0xffffffff
d002f9bc:	75ffffff 	ldrbvc	pc, [pc, #4095]!	; d00309c3 <gImage_pic+0xdff7>
d002f9c0:	10115155 	andsne	r5, r1, r5, asr r1
	...
d002f9d4:	aaaa2a00 	bge	ceaba1dc <_start-0x1565e34>
d002f9d8:	aaaaaaaa 	bge	ceada488 <_start-0x1545b88>
d002f9dc:	eaeaaaaa 	b	cfada48c <_start-0x545b84>
d002f9e0:	eeeeeeaa 	cdp	14, 14, cr14, cr14, cr10, {5}
d002f9e4:	feeeeeee 	cdp2	14, 14, cr14, cr14, cr14, {7}
d002f9e8:	eeeeeeee 	cdp	14, 14, cr14, cr14, cr14, {7}
d002f9ec:	aaaaaaaa 	bge	ceada49c <_start-0x1545b74>
d002f9f0:	aaaaaaaa 	bge	ceada4a0 <_start-0x1545b70>
d002f9f4:	aaaaaaaa 	bge	ceada4a4 <_start-0x1545b6c>
d002f9f8:	aaaaaaaa 	bge	ceada4a8 <_start-0x1545b68>
d002f9fc:	aaaaaaaa 	bge	ceada4ac <_start-0x1545b64>
d002fa00:	aaaaaaaa 	bge	ceada4b0 <_start-0x1545b60>
d002fa04:	aaaaaaaa 	bge	ceada4b4 <_start-0x1545b5c>
d002fa08:	aaaaaaaa 	bge	ceada4b8 <_start-0x1545b58>
d002fa0c:	aaaaaaaa 	bge	ceada4bc <_start-0x1545b54>
d002fa10:	aaaaaaaa 	bge	ceada4c0 <_start-0x1545b50>
d002fa14:	20222222 	eorcs	r2, r2, r2, lsr #4
	...
d002fa20:	ffff5d04 	undefined instruction 0xffff5d04
d002fa24:	ffffffff 	undefined instruction 0xffffffff
d002fa28:	ffffffff 	undefined instruction 0xffffffff
d002fa2c:	ffffffff 	undefined instruction 0xffffffff
d002fa30:	ffffffff 	undefined instruction 0xffffffff
d002fa34:	ddffffff 	ldclle	15, cr15, [pc, #1020]!	; 0x3fc
d002fa38:	444444d4 	strbmi	r4, [r4], #-1236	; 0x4d4
d002fa3c:	55544444 	ldrbpl	r4, [r4, #-1092]	; 0x444
d002fa40:	ddddddd5 	ldclle	13, cr13, [sp, #852]	; 0x354
d002fa44:	dddddddd 	ldclle	13, cr13, [sp, #884]	; 0x374
d002fa48:	dddddddd 	ldclle	13, cr13, [sp, #884]	; 0x374
d002fa4c:	fffffddd 	undefined instruction 0xfffffddd
d002fa50:	fdffffff 	ldc2l	15, cr15, [pc, #1020]!	; 0x3fc
d002fa54:	44d4dddd 	ldrbmi	sp, [r4], #3549	; 0xddd
d002fa58:	00000040 	andeq	r0, r0, r0, asr #32
	...
d002fa64:	00008000 	andeq	r8, r0, r0
d002fa68:	aa008000 	bge	d004fa70 <bss_end+0x1a4a0>
d002fa6c:	ababaaaa 	blge	ceb1a51c <_start-0x1505af4>
d002fa70:	bbbbabab 	bllt	cef1a924 <_start-0x11056ec>
d002fa74:	bbbbbbbb 	bllt	cef1e968 <_start-0x11016a8>
d002fa78:	fffbfbbb 	undefined instruction 0xfffbfbbb
d002fa7c:	ffffffff 	undefined instruction 0xffffffff
d002fa80:	aaaafbff 	bge	ceaeea84 <_start-0x153158c>
d002fa84:	aaaaaaaa 	bge	ceada534 <_start-0x1545adc>
d002fa88:	aaaaaaaa 	bge	ceada538 <_start-0x1545ad8>
d002fa8c:	aaaaaaaa 	bge	ceada53c <_start-0x1545ad4>
d002fa90:	aaaaaaaa 	bge	ceada540 <_start-0x1545ad0>
d002fa94:	aaaaaaaa 	bge	ceada544 <_start-0x1545acc>
d002fa98:	ababaaaa 	blge	ceb1a548 <_start-0x1505ac8>
d002fa9c:	aaaaaaaa 	bge	ceada54c <_start-0x1545ac4>
d002faa0:	aaaaaaaa 	bge	ceada550 <_start-0x1545ac0>
d002faa4:	88a8a8aa 	stmiahi	r8!, {r1, r3, r5, r7, fp, sp, pc}
d002faa8:	88888888 	stmhi	r8, {r3, r7, fp, pc}
d002faac:	00808888 	addeq	r8, r0, r8, lsl #17
d002fab0:	00000000 	andeq	r0, r0, r0
d002fab4:	57150000 	ldrpl	r0, [r5, -r0]
d002fab8:	ffffffff 	undefined instruction 0xffffffff
d002fabc:	ffffffff 	undefined instruction 0xffffffff
d002fac0:	ffffffff 	undefined instruction 0xffffffff
d002fac4:	ffffffff 	undefined instruction 0xffffffff
d002fac8:	ffffffff 	undefined instruction 0xffffffff
d002facc:	5155f5ff 	ldrshpl	pc, [r5, #-95]	; 0xffffffa1
d002fad0:	11111111 	tstne	r1, r1, lsl r1
d002fad4:	57555555 	undefined instruction 0x57555555
d002fad8:	77775757 	undefined instruction 0x77775757
d002fadc:	77777777 	undefined instruction 0x77777777
d002fae0:	fffff7f7 	undefined instruction 0xfffff7f7
d002fae4:	ffffffff 	undefined instruction 0xffffffff
d002fae8:	77ffffff 	undefined instruction 0x77ffffff
d002faec:	11115155 	tstne	r1, r5, asr r1
	...
d002fb00:	aaaaaa02 	bge	ceada310 <_start-0x1545d00>
d002fb04:	aaaaaaaa 	bge	ceada5b4 <_start-0x1545a5c>
d002fb08:	aeaaaaaa 	vfmage.f32	s20, s21, s21
d002fb0c:	eeeeeeae 	cdp	14, 14, cr14, cr14, cr14, {5}
d002fb10:	efefeeee 	svc	0x00efeeee
d002fb14:	eeeeefef 	cdp	15, 14, cr14, cr14, cr15, {7}
d002fb18:	aaaaaaaa 	bge	ceada5c8 <_start-0x1545a48>
d002fb1c:	aaaaaaaa 	bge	ceada5cc <_start-0x1545a44>
d002fb20:	aaaaaaaa 	bge	ceada5d0 <_start-0x1545a40>
d002fb24:	aaaaaaaa 	bge	ceada5d4 <_start-0x1545a3c>
d002fb28:	aaaaaaaa 	bge	ceada5d8 <_start-0x1545a38>
d002fb2c:	aaaaaaaa 	bge	ceada5dc <_start-0x1545a34>
d002fb30:	aaaaaaaa 	bge	ceada5e0 <_start-0x1545a30>
d002fb34:	aaaaaaaa 	bge	ceada5e4 <_start-0x1545a2c>
d002fb38:	aaaaaaaa 	bge	ceada5e8 <_start-0x1545a28>
d002fb3c:	a2a2aaaa 	adcge	sl, r2, #696320	; 0xaa000
d002fb40:	22a2a2a2 	adccs	sl, r2, #536870922	; 0x2000000a
	...
d002fb4c:	ffdf5f05 	undefined instruction 0xffdf5f05
d002fb50:	ffffffff 	undefined instruction 0xffffffff
d002fb54:	ffffffff 	undefined instruction 0xffffffff
d002fb58:	ffffffff 	undefined instruction 0xffffffff
d002fb5c:	ffffffff 	undefined instruction 0xffffffff
d002fb60:	ddffffff 	ldclle	15, cr15, [pc, #1020]!	; 0x3fc
d002fb64:	04044444 	streq	r4, [r4], #-1092	; 0x444
d002fb68:	45444444 	strbmi	r4, [r4, #-1092]	; 0x444
d002fb6c:	dddddd5d 	ldclle	13, cr13, [sp, #372]	; 0x174
d002fb70:	dddddddd 	ldclle	13, cr13, [sp, #884]	; 0x374
d002fb74:	dddddddd 	ldclle	13, cr13, [sp, #884]	; 0x374
d002fb78:	ffffdfdd 	undefined instruction 0xffffdfdd
d002fb7c:	ffffffff 	undefined instruction 0xffffffff
d002fb80:	44dddddd 	ldrbmi	sp, [sp], #3549	; 0xddd
d002fb84:	00000044 	andeq	r0, r0, r4, asr #32
	...
d002fb94:	aa000000 	bge	d002fb9c <gImage_pic+0xd1d0>
d002fb98:	babaabaa 	blt	ceedaa48 <_start-0x11455c8>
d002fb9c:	aababbbb 	bge	ceedea90 <_start-0x1141580>
d002fba0:	bbbbbbab 	bllt	cef1ea54 <_start-0x11015bc>
d002fba4:	ffbfbbbb 	undefined instruction 0xffbfbbbb
d002fba8:	ffffffff 	undefined instruction 0xffffffff
d002fbac:	aaaabaff 	bge	ceade7b0 <_start-0x1541860>
d002fbb0:	aaaaaaaa 	bge	ceada660 <_start-0x15459b0>
d002fbb4:	aaaaaaaa 	bge	ceada664 <_start-0x15459ac>
d002fbb8:	aaaaaaaa 	bge	ceada668 <_start-0x15459a8>
d002fbbc:	aaaaaaaa 	bge	ceada66c <_start-0x15459a4>
d002fbc0:	aaaaaaaa 	bge	ceada670 <_start-0x15459a0>
d002fbc4:	aaaaaaaa 	bge	ceada674 <_start-0x154599c>
d002fbc8:	aaaaaaaa 	bge	ceada678 <_start-0x1545998>
d002fbcc:	aaaaaaaa 	bge	ceada67c <_start-0x1545994>
d002fbd0:	88aaaaaa 	stmiahi	sl!, {r1, r3, r5, r7, r9, fp, sp, pc}
d002fbd4:	88888888 	stmhi	r8, {r3, r7, fp, pc}
d002fbd8:	00888888 	addeq	r8, r8, r8, lsl #17
d002fbdc:	00000000 	andeq	r0, r0, r0
d002fbe0:	5f150000 	svcpl	0x00150000
d002fbe4:	ffffffff 	undefined instruction 0xffffffff
d002fbe8:	ffffffff 	undefined instruction 0xffffffff
d002fbec:	ffffffff 	undefined instruction 0xffffffff
d002fbf0:	ffffffff 	undefined instruction 0xffffffff
d002fbf4:	ffffffff 	undefined instruction 0xffffffff
d002fbf8:	1155f5ff 	ldrshne	pc, [r5, #-95]	; 0xffffffa1
d002fbfc:	11111111 	tstne	r1, r1, lsl r1
d002fc00:	55555515 	ldrbpl	r5, [r5, #-1301]	; 0x515
d002fc04:	77777575 	undefined instruction 0x77777575
d002fc08:	77757575 	undefined instruction 0x77757575
d002fc0c:	ffff7f77 	undefined instruction 0xffff7f77
d002fc10:	ffffffff 	undefined instruction 0xffffffff
d002fc14:	75ffffff 	ldrbvc	pc, [pc, #4095]!	; d0030c1b <gImage_pic+0xe24f>
d002fc18:	10115555 	andsne	r5, r1, r5, asr r5
	...
d002fc2c:	aaaaaa00 	bge	ceada434 <_start-0x1545bdc>
d002fc30:	aaaaaaaa 	bge	ceada6e0 <_start-0x1545930>
d002fc34:	eaaaaaaa 	b	ceada6e4 <_start-0x154592c>
d002fc38:	aaeeeeee 	bge	cfbeb7f8 <_start-0x434818>
d002fc3c:	eeeeeeae 	cdp	14, 14, cr14, cr14, cr14, {5}
d002fc40:	eaeeeeee 	b	cfbeb800 <_start-0x434810>
d002fc44:	aaaaaaaa 	bge	ceada6f4 <_start-0x154591c>
d002fc48:	aaaaaaaa 	bge	ceada6f8 <_start-0x1545918>
d002fc4c:	aaaaaaaa 	bge	ceada6fc <_start-0x1545914>
d002fc50:	aaaaaaaa 	bge	ceada700 <_start-0x1545910>
d002fc54:	aaaaaaaa 	bge	ceada704 <_start-0x154590c>
d002fc58:	aaaaaaaa 	bge	ceada708 <_start-0x1545908>
d002fc5c:	aaaaaaaa 	bge	ceada70c <_start-0x1545904>
d002fc60:	aaaaaaaa 	bge	ceada710 <_start-0x1545900>
d002fc64:	aaaaaaaa 	bge	ceada714 <_start-0x15458fc>
d002fc68:	a2aaaaaa 	adcge	sl, sl, #696320	; 0xaa000
d002fc6c:	2022222a 	eorcs	r2, r2, sl, lsr #4
	...
d002fc78:	ffdfdd05 	undefined instruction 0xffdfdd05
d002fc7c:	fdffffff 	ldc2l	15, cr15, [pc, #1020]!	; 0x3fc
d002fc80:	ffffffff 	undefined instruction 0xffffffff
d002fc84:	ffffffff 	undefined instruction 0xffffffff
d002fc88:	ffffffff 	undefined instruction 0xffffffff
d002fc8c:	d4fdffff 	ldrbtle	pc, [sp], #4095	; 0xfff
d002fc90:	00000040 	andeq	r0, r0, r0, asr #32
d002fc94:	44444440 	strbmi	r4, [r4], #-1088	; 0x440
d002fc98:	dddddd55 	ldclle	13, cr13, [sp, #340]	; 0x154
d002fc9c:	dddddddd 	ldclle	13, cr13, [sp, #884]	; 0x374
d002fca0:	dddddddd 	ldclle	13, cr13, [sp, #884]	; 0x374
d002fca4:	fffddddd 	undefined instruction 0xfffddddd
d002fca8:	fdfdfffd 	ldc2l	15, cr15, [sp, #1012]!	; 0x3f4
d002fcac:	54d5dddd 	ldrbpl	sp, [r5], #3549	; 0xddd
d002fcb0:	00000040 	andeq	r0, r0, r0, asr #32
	...
d002fcbc:	00000080 	andeq	r0, r0, r0, lsl #1
d002fcc0:	aa000000 	bge	d002fcc8 <gImage_pic+0xd2fc>
d002fcc4:	abababaa 	blge	ceb1ab74 <_start-0x150549c>
d002fcc8:	abaaaabb 	blge	ceada7bc <_start-0x1545854>
d002fccc:	bbbbbbbb 	bllt	cef1ebc0 <_start-0x1101450>
d002fcd0:	fbbbbbbb 	blx	cef1ebc6 <_start-0x110144a>
d002fcd4:	ffffffff 	undefined instruction 0xffffffff
d002fcd8:	aaaabaff 	bge	ceade8dc <_start-0x1541734>
d002fcdc:	aaaaaaaa 	bge	ceada78c <_start-0x1545884>
d002fce0:	aaaaaaaa 	bge	ceada790 <_start-0x1545880>
d002fce4:	aaaaaaaa 	bge	ceada794 <_start-0x154587c>
d002fce8:	aaaaaaaa 	bge	ceada798 <_start-0x1545878>
d002fcec:	aaaaaaaa 	bge	ceada79c <_start-0x1545874>
d002fcf0:	aaaaaaaa 	bge	ceada7a0 <_start-0x1545870>
d002fcf4:	aaaaaaaa 	bge	ceada7a4 <_start-0x154586c>
d002fcf8:	aaaaaaaa 	bge	ceada7a8 <_start-0x1545868>
d002fcfc:	88a8aaaa 	stmiahi	r8!, {r1, r3, r5, r7, r9, fp, sp, pc}
d002fd00:	88888888 	stmhi	r8, {r3, r7, fp, pc}
d002fd04:	00808888 	addeq	r8, r0, r8, lsl #17
d002fd08:	00000000 	andeq	r0, r0, r0
d002fd0c:	7f150000 	svcvc	0x00150000
d002fd10:	ffffffff 	undefined instruction 0xffffffff
d002fd14:	ffffffff 	undefined instruction 0xffffffff
d002fd18:	ffffffff 	undefined instruction 0xffffffff
d002fd1c:	ffffffff 	undefined instruction 0xffffffff
d002fd20:	ffffffff 	undefined instruction 0xffffffff
d002fd24:	0051d5ff 	ldrsheq	sp, [r1], #-95	; 0xffffffa1
d002fd28:	11011101 	tstne	r1, r1, lsl #2
d002fd2c:	55555511 	ldrbpl	r5, [r5, #-1297]	; 0x511
d002fd30:	77775757 	undefined instruction 0x77775757
d002fd34:	57575777 	undefined instruction 0x57575777
d002fd38:	fff77757 	undefined instruction 0xfff77757
d002fd3c:	ffffffff 	undefined instruction 0xffffffff
d002fd40:	f7ffffff 	undefined instruction 0xf7ffffff
d002fd44:	11515555 	cmpne	r1, r5, asr r5
	...
d002fd58:	aaaaaa02 	bge	ceada568 <_start-0x1545aa8>
d002fd5c:	aaaeaaaa 	bge	cebda80c <_start-0x1445804>
d002fd60:	aeaeaeaa 	cdpge	14, 10, cr10, cr14, cr10, {5}
d002fd64:	aaeeeeee 	bge	cfbeb924 <_start-0x4346ec>
d002fd68:	efeeeeae 	svc	0x00eeeeae
d002fd6c:	eaeeefef 	b	cfbebd30 <_start-0x4342e0>
d002fd70:	aaaaaaaa 	bge	ceada820 <_start-0x15457f0>
d002fd74:	aaaaaaaa 	bge	ceada824 <_start-0x15457ec>
d002fd78:	aaaaaaaa 	bge	ceada828 <_start-0x15457e8>
d002fd7c:	aaaaaaaa 	bge	ceada82c <_start-0x15457e4>
d002fd80:	aaaaaaaa 	bge	ceada830 <_start-0x15457e0>
d002fd84:	aaaaaaaa 	bge	ceada834 <_start-0x15457dc>
d002fd88:	aaaaaaaa 	bge	ceada838 <_start-0x15457d8>
d002fd8c:	aaaaaaaa 	bge	ceada83c <_start-0x15457d4>
d002fd90:	aaaaaaaa 	bge	ceada840 <_start-0x15457d0>
d002fd94:	22a2a2aa 	adccs	sl, r2, #-1610612726	; 0xa000000a
d002fd98:	22a2a222 	adccs	sl, r2, #536870914	; 0x20000002
	...
d002fda4:	ffdfdd55 	undefined instruction 0xffdfdd55
d002fda8:	dfdfffff 	svcle	0x00dfffff
d002fdac:	ffffffff 	undefined instruction 0xffffffff
d002fdb0:	ffffffff 	undefined instruction 0xffffffff
d002fdb4:	ffffffff 	undefined instruction 0xffffffff
d002fdb8:	d5fdffff 	ldrble	pc, [sp, #4095]!	; 0xfff
d002fdbc:	00000044 	andeq	r0, r0, r4, asr #32
d002fdc0:	44040000 	strmi	r0, [r4]
d002fdc4:	dd5d5545 	cfldr64le	mvdx5, [sp, #-276]	; 0xfffffeec
d002fdc8:	dddddddd 	ldclle	13, cr13, [sp, #884]	; 0x374
d002fdcc:	dddddddd 	ldclle	13, cr13, [sp, #884]	; 0x374
d002fdd0:	dfdfdddd 	svcle	0x00dfdddd
d002fdd4:	ffffffff 	undefined instruction 0xffffffff
d002fdd8:	44dddddf 	ldrbmi	sp, [sp], #3551	; 0xddf
d002fddc:	00000044 	andeq	r0, r0, r4, asr #32
	...
d002fdec:	aa000000 	bge	d002fdf4 <gImage_pic+0xd428>
d002fdf0:	abaaaaaa 	blge	ceada8a0 <_start-0x1545770>
d002fdf4:	bbabaaba 	bllt	ceb1a8e4 <_start-0x150572c>
d002fdf8:	bfbbbbbb 	svclt	0x00bbbbbb
d002fdfc:	bfbbbbbb 	svclt	0x00bbbbbb
d002fe00:	ffffffff 	undefined instruction 0xffffffff
d002fe04:	aaaabaff 	bge	ceadea08 <_start-0x1541608>
d002fe08:	aaaaaaaa 	bge	ceada8b8 <_start-0x1545758>
d002fe0c:	aaaaaaaa 	bge	ceada8bc <_start-0x1545754>
d002fe10:	aaaaaaaa 	bge	ceada8c0 <_start-0x1545750>
d002fe14:	aaaaaaaa 	bge	ceada8c4 <_start-0x154574c>
d002fe18:	aaaaaaaa 	bge	ceada8c8 <_start-0x1545748>
d002fe1c:	aaaaaaaa 	bge	ceada8cc <_start-0x1545744>
d002fe20:	aaaaaaaa 	bge	ceada8d0 <_start-0x1545740>
d002fe24:	aaaaaaaa 	bge	ceada8d4 <_start-0x154573c>
d002fe28:	8888aaaa 	stmhi	r8, {r1, r3, r5, r7, r9, fp, sp, pc}
d002fe2c:	88888888 	stmhi	r8, {r3, r7, fp, pc}
d002fe30:	00888888 	addeq	r8, r8, r8, lsl #17
d002fe34:	00000000 	andeq	r0, r0, r0
d002fe38:	57150000 	ldrpl	r0, [r5, -r0]
d002fe3c:	ffffff7f 	undefined instruction 0xffffff7f
d002fe40:	ffffffff 	undefined instruction 0xffffffff
d002fe44:	ffffffff 	undefined instruction 0xffffffff
d002fe48:	ffffffff 	undefined instruction 0xffffffff
d002fe4c:	ffffffff 	undefined instruction 0xffffffff
d002fe50:	001155ff 	ldrsheq	r5, [r1], -pc
d002fe54:	11000000 	tstne	r0, r0
d002fe58:	55151111 	ldrpl	r1, [r5, #-273]	; 0x111
d002fe5c:	75575555 	ldrbvc	r5, [r7, #-1365]	; 0x555
d002fe60:	55555575 	ldrbpl	r5, [r5, #-1397]	; 0x575
d002fe64:	7f775555 	svcvc	0x00775555
d002fe68:	ffffff7f 	undefined instruction 0xffffff7f
d002fe6c:	f7ffffff 	undefined instruction 0xf7ffffff
d002fe70:	10515555 	subsne	r5, r1, r5, asr r5
	...
d002fe84:	aaaaaa00 	bge	ceada68c <_start-0x1545984>
d002fe88:	aaaaaaaa 	bge	ceada938 <_start-0x15456d8>
d002fe8c:	eeeeaaaa 	vfma.f32	s21, s29, s21
d002fe90:	eaeeeeee 	b	cfbeba50 <_start-0x4345c0>
d002fe94:	eeeeeeaa 	cdp	14, 14, cr14, cr14, cr10, {5}
d002fe98:	aaeeeeee 	bge	cfbeba58 <_start-0x4345b8>
d002fe9c:	aaaaaaaa 	bge	ceada94c <_start-0x15456c4>
d002fea0:	aaaaaaaa 	bge	ceada950 <_start-0x15456c0>
d002fea4:	aaaaaaaa 	bge	ceada954 <_start-0x15456bc>
d002fea8:	aaaaaaaa 	bge	ceada958 <_start-0x15456b8>
d002feac:	aaaaaaaa 	bge	ceada95c <_start-0x15456b4>
d002feb0:	aaaaaaaa 	bge	ceada960 <_start-0x15456b0>
d002feb4:	aaaaaaaa 	bge	ceada964 <_start-0x15456ac>
d002feb8:	aaaaaaaa 	bge	ceada968 <_start-0x15456a8>
d002febc:	aaaaaaaa 	bge	ceada96c <_start-0x15456a4>
d002fec0:	2022aaaa 	eorcs	sl, r2, sl, lsr #21
d002fec4:	20202222 	eorcs	r2, r0, r2, lsr #4
	...
d002fed0:	fddf4500 	ldc2l	5, cr4, [pc]
d002fed4:	ffddfddd 	undefined instruction 0xffddfddd
d002fed8:	ffffffff 	undefined instruction 0xffffffff
d002fedc:	ffffffff 	undefined instruction 0xffffffff
d002fee0:	ffffffff 	undefined instruction 0xffffffff
d002fee4:	d4fdffff 	ldrbtle	pc, [sp], #4095	; 0xfff
d002fee8:	00000040 	andeq	r0, r0, r0, asr #32
d002feec:	00000000 	andeq	r0, r0, r0
d002fef0:	d5554544 	ldrble	r4, [r5, #-1348]	; 0x544
d002fef4:	d5ddddd5 	ldrble	sp, [sp, #3541]	; 0xdd5
d002fef8:	ddddd5d5 	cfldr64le	mvdx13, [sp, #852]	; 0x354
d002fefc:	dddddddd 	ldclle	13, cr13, [sp, #884]	; 0x374
d002ff00:	fdfdfdfd 	ldc2l	13, cr15, [sp, #1012]!	; 0x3f4
d002ff04:	d4d5ddfd 	ldrble	sp, [r5], #3581	; 0xdfd
d002ff08:	00000044 	andeq	r0, r0, r4, asr #32
	...
d002ff14:	80000000 	andhi	r0, r0, r0
d002ff18:	aa000000 	bge	d002ff20 <gImage_pic+0xd554>
d002ff1c:	aaaaaaaa 	bge	ceada9cc <_start-0x1545644>
d002ff20:	bbabaaaa 	bllt	ceb1a9d0 <_start-0x1505640>
d002ff24:	fbfbbbbb 	blx	cff1ee1a <_start-0x1011f6>
d002ff28:	bbbbfbfb 	bllt	cef2ef1c <_start-0x10f10f4>
d002ff2c:	fffffffb 	undefined instruction 0xfffffffb
d002ff30:	aaaaaafb 	bge	ceadab24 <_start-0x15454ec>
d002ff34:	aaa888a8 	bge	cea521dc <_start-0x15cde34>
d002ff38:	aaaaaaaa 	bge	ceada9e8 <_start-0x1545628>
d002ff3c:	aaaaaaaa 	bge	ceada9ec <_start-0x1545624>
d002ff40:	aaaaaaaa 	bge	ceada9f0 <_start-0x1545620>
d002ff44:	aaaaaaaa 	bge	ceada9f4 <_start-0x154561c>
d002ff48:	aaaaaaaa 	bge	ceada9f8 <_start-0x1545618>
d002ff4c:	aaaaaaaa 	bge	ceada9fc <_start-0x1545614>
d002ff50:	aaaaaaaa 	bge	ceadaa00 <_start-0x1545610>
d002ff54:	8888a8aa 	stmhi	r8, {r1, r3, r5, r7, fp, sp, pc}
d002ff58:	88888888 	stmhi	r8, {r3, r7, fp, pc}
d002ff5c:	00808888 	addeq	r8, r0, r8, lsl #17
d002ff60:	00000000 	andeq	r0, r0, r0
d002ff64:	17000000 	strne	r0, [r0, -r0]
d002ff68:	f7f7ffff 	undefined instruction 0xf7f7ffff
d002ff6c:	fffffff7 	undefined instruction 0xfffffff7
d002ff70:	ffffffff 	undefined instruction 0xffffffff
d002ff74:	ffffffff 	undefined instruction 0xffffffff
d002ff78:	ffffffff 	undefined instruction 0xffffffff
d002ff7c:	001151f5 	ldrsheq	r5, [r1], -r5
d002ff80:	00000000 	andeq	r0, r0, r0
d002ff84:	55511101 	ldrbpl	r1, [r1, #-257]	; 0x101
d002ff88:	57555555 	undefined instruction 0x57555555
d002ff8c:	55555555 	ldrbpl	r5, [r5, #-1365]	; 0x555
d002ff90:	77575555 	undefined instruction 0x77575555
d002ff94:	fffffff7 	undefined instruction 0xfffffff7
d002ff98:	f7ffffff 	undefined instruction 0xf7ffffff
d002ff9c:	11515555 	cmpne	r1, r5, asr r5
	...
d002ffb0:	aaaa2200 	bge	ceab87b8 <_start-0x1567858>
d002ffb4:	aaaaaaaa 	bge	ceadaa64 <_start-0x15455ac>
d002ffb8:	eeeeeaaa 	vfma.f32	s29, s29, s21
d002ffbc:	eeeeeeee 	cdp	14, 14, cr14, cr14, cr14, {7}
d002ffc0:	eeeeeeee 	cdp	14, 14, cr14, cr14, cr14, {7}
d002ffc4:	aaeeeeef 	bge	cfbebb88 <_start-0x434488>
d002ffc8:	aaaaaaaa 	bge	ceadaa78 <_start-0x1545598>
d002ffcc:	aaaaaaaa 	bge	ceadaa7c <_start-0x1545594>
d002ffd0:	aaaaaaaa 	bge	ceadaa80 <_start-0x1545590>
d002ffd4:	aaaaaaaa 	bge	ceadaa84 <_start-0x154558c>
d002ffd8:	aaaaaaaa 	bge	ceadaa88 <_start-0x1545588>
d002ffdc:	aaaaaaaa 	bge	ceadaa8c <_start-0x1545584>
d002ffe0:	aaaaaaaa 	bge	ceadaa90 <_start-0x1545580>
d002ffe4:	aaaaaaaa 	bge	ceadaa94 <_start-0x154557c>
d002ffe8:	aaaaaaaa 	bge	ceadaa98 <_start-0x1545578>
d002ffec:	2222a2aa 	eorcs	sl, r2, #-1610612726	; 0xa000000a
d002fff0:	00222222 	eoreq	r2, r2, r2, lsr #4
	...
d002fffc:	dfdf0d00 	svcle	0x00df0d00
d0030000:	ffdfdddd 	undefined instruction 0xffdfdddd
d0030004:	ffffffff 	undefined instruction 0xffffffff
d0030008:	ffffffff 	undefined instruction 0xffffffff
d003000c:	ffffffff 	undefined instruction 0xffffffff
d0030010:	44ddffff 	ldrbmi	pc, [sp], #4095	; 0xfff
d0030014:	00000000 	andeq	r0, r0, r0
d0030018:	04000000 	streq	r0, [r0]
d003001c:	45454504 	strbmi	r4, [r5, #-1284]	; 0x504
d0030020:	5ddddd5d 	ldclpl	13, cr13, [sp, #372]	; 0x174
d0030024:	5d555555 	cfldr64pl	mvdx5, [r5, #-340]	; 0xfffffeac
d0030028:	dddddddd 	ldclle	13, cr13, [sp, #884]	; 0x374
d003002c:	dfdfdfdf 	svcle	0x00dfdfdf
d0030030:	55dddddf 	ldrbpl	sp, [sp, #3551]	; 0xddf
d0030034:	00000044 	andeq	r0, r0, r4, asr #32
	...
d0030044:	08000000 	stmdaeq	r0, {}
d0030048:	aaaaaaaa 	bge	ceadaaf8 <_start-0x1545518>
d003004c:	bbbbaaaa 	bllt	cef1aafc <_start-0x1105514>
d0030050:	bfbbbbbb 	svclt	0x00bbbbbb
d0030054:	ffbfffbf 	undefined instruction 0xffbfffbf
d0030058:	ffffffbf 	undefined instruction 0xffffffbf
d003005c:	aaaaaaba 	bge	ceadab4c <_start-0x15454c4>
d0030060:	8a8a8aaa 	bhi	ce2d2b10 <_start-0x1d4d500>
d0030064:	aaaaaa8a 	bge	ceadaa94 <_start-0x154557c>
d0030068:	aaaaaaaa 	bge	ceadab18 <_start-0x15454f8>
d003006c:	aaaaaaaa 	bge	ceadab1c <_start-0x15454f4>
d0030070:	aaaaaaaa 	bge	ceadab20 <_start-0x15454f0>
d0030074:	aaaaaaaa 	bge	ceadab24 <_start-0x15454ec>
d0030078:	aaaaaaaa 	bge	ceadab28 <_start-0x15454e8>
d003007c:	aaaaaaaa 	bge	ceadab2c <_start-0x15454e4>
d0030080:	8888aaaa 	stmhi	r8, {r1, r3, r5, r7, r9, fp, sp, pc}
d0030084:	88888888 	stmhi	r8, {r3, r7, fp, pc}
d0030088:	00088888 	andeq	r8, r8, r8, lsl #17
d003008c:	00000000 	andeq	r0, r0, r0
d0030090:	17000000 	strne	r0, [r0, -r0]
d0030094:	77ffffff 	undefined instruction 0x77ffffff
d0030098:	ffffff7f 	undefined instruction 0xffffff7f
d003009c:	ffffffff 	undefined instruction 0xffffffff
d00300a0:	ffffffff 	undefined instruction 0xffffffff
d00300a4:	ffffffff 	undefined instruction 0xffffffff
d00300a8:	101055f5 	ldrshne	r5, [r0], -r5
d00300ac:	00000000 	andeq	r0, r0, r0
d00300b0:	55111100 	ldrpl	r1, [r1, #-256]	; 0x100
d00300b4:	55555555 	ldrbpl	r5, [r5, #-1365]	; 0x555
d00300b8:	55555555 	ldrbpl	r5, [r5, #-1365]	; 0x555
d00300bc:	57555555 	undefined instruction 0x57555555
d00300c0:	ffff7f77 	undefined instruction 0xffff7f77
d00300c4:	ffffffff 	undefined instruction 0xffffffff
d00300c8:	11515575 	cmpne	r1, r5, ror r5
	...
d00300dc:	aaaa0200 	bge	ceab08e4 <_start-0x156f72c>
d00300e0:	aaaaaaaa 	bge	ceadab90 <_start-0x1545480>
d00300e4:	eaeaaaaa 	b	cfadab94 <_start-0x54547c>
d00300e8:	eeeeeeee 	cdp	14, 14, cr14, cr14, cr14, {7}
d00300ec:	eeeeeeee 	cdp	14, 14, cr14, cr14, cr14, {7}
d00300f0:	aaeaeeee 	bge	cfaebcb0 <_start-0x534360>
d00300f4:	aaaaaaaa 	bge	ceadaba4 <_start-0x154546c>
d00300f8:	aaaaaaaa 	bge	ceadaba8 <_start-0x1545468>
d00300fc:	aaaaaaaa 	bge	ceadabac <_start-0x1545464>
d0030100:	aaaaaaaa 	bge	ceadabb0 <_start-0x1545460>
d0030104:	aaaaaaaa 	bge	ceadabb4 <_start-0x154545c>
d0030108:	aaaaaaaa 	bge	ceadabb8 <_start-0x1545458>
d003010c:	aaaaaaaa 	bge	ceadabbc <_start-0x1545454>
d0030110:	aaaaaaaa 	bge	ceadabc0 <_start-0x1545450>
d0030114:	aaaaaaaa 	bge	ceadabc4 <_start-0x154544c>
d0030118:	2020a2aa 	eorcs	sl, r0, sl, lsr #5
d003011c:	00200020 	eoreq	r0, r0, r0, lsr #32
	...
d0030128:	ffff5d00 	undefined instruction 0xffff5d00
d003012c:	ffdddddd 	undefined instruction 0xffdddddd
d0030130:	ffffffff 	undefined instruction 0xffffffff
d0030134:	ffffffff 	undefined instruction 0xffffffff
d0030138:	ffffffff 	undefined instruction 0xffffffff
d003013c:	44d4fdff 	ldrbmi	pc, [r4], #3583	; 0xdff
	...
d0030148:	45444400 	strbmi	r4, [r4, #-1024]	; 0x400
d003014c:	d4d55554 	ldrble	r5, [r5], #1364	; 0x554
d0030150:	55544444 	ldrbpl	r4, [r4, #-1092]	; 0x444
d0030154:	dddddd55 	ldclle	13, cr13, [sp, #340]	; 0x154
d0030158:	fddddddd 	ldc2l	13, cr13, [sp, #884]	; 0x374
d003015c:	d5dddddd 	ldrble	sp, [sp, #3549]	; 0xddd
d0030160:	00004044 	andeq	r4, r0, r4, asr #32
	...
d0030170:	00000080 	andeq	r0, r0, r0, lsl #1
d0030174:	aaaaabaa 	bge	ceadb024 <_start-0x1544fec>
d0030178:	ababaaaa 	blge	ceb1ac28 <_start-0x15053e8>
d003017c:	fbbbbbbb 	blx	cef1f072 <_start-0x1100f9e>
d0030180:	fbfbfbbb 	blx	cff2f076 <_start-0xf0f9a>
d0030184:	fbfffbff 	blx	d002f18a <gImage_pic+0xc7be>
d0030188:	aaaaaaba 	bge	ceadac78 <_start-0x1545398>
d003018c:	888888a8 	stmhi	r8, {r3, r5, r7, fp, pc}
d0030190:	aaaa8888 	bge	cead23b8 <_start-0x154dc58>
d0030194:	aaaaaaaa 	bge	ceadac44 <_start-0x15453cc>
d0030198:	aaaaaaaa 	bge	ceadac48 <_start-0x15453c8>
d003019c:	aaaaaaaa 	bge	ceadac4c <_start-0x15453c4>
d00301a0:	aaaaaaaa 	bge	ceadac50 <_start-0x15453c0>
d00301a4:	aaaaaaaa 	bge	ceadac54 <_start-0x15453bc>
d00301a8:	aaaaaaaa 	bge	ceadac58 <_start-0x15453b8>
d00301ac:	88a8aaaa 	stmiahi	r8!, {r1, r3, r5, r7, r9, fp, sp, pc}
d00301b0:	88888888 	stmhi	r8, {r3, r7, fp, pc}
d00301b4:	00808088 	addeq	r8, r0, r8, lsl #1
d00301b8:	00000000 	andeq	r0, r0, r0
d00301bc:	57000000 	strpl	r0, [r0, -r0]
d00301c0:	f7ffffff 	undefined instruction 0xf7ffffff
d00301c4:	ffffffff 	undefined instruction 0xffffffff
d00301c8:	ffffffff 	undefined instruction 0xffffffff
d00301cc:	ffffffff 	undefined instruction 0xffffffff
d00301d0:	ffffffff 	undefined instruction 0xffffffff
d00301d4:	00115155 	andseq	r5, r1, r5, asr r1
d00301d8:	00000000 	andeq	r0, r0, r0
d00301dc:	11010100 	tstne	r1, r0, lsl #2
d00301e0:	55555151 	ldrbpl	r5, [r5, #-337]	; 0x151
d00301e4:	55555555 	ldrbpl	r5, [r5, #-1365]	; 0x555
d00301e8:	55555555 	ldrbpl	r5, [r5, #-1365]	; 0x555
d00301ec:	ff777757 	undefined instruction 0xff777757
d00301f0:	f7ffffff 	undefined instruction 0xf7ffffff
d00301f4:	515155f7 	ldrshpl	r5, [r1, #-87]	; 0xffffffa9
d00301f8:	00000001 	andeq	r0, r0, r1
	...
d0030208:	aaaa0200 	bge	ceab0a10 <_start-0x156f600>
d003020c:	aaaaaaaa 	bge	ceadacbc <_start-0x1545354>
d0030210:	eeeeaeaa 	cdp	14, 14, cr10, cr14, cr10, {5}
d0030214:	eeeeeeee 	cdp	14, 14, cr14, cr14, cr14, {7}
d0030218:	eeeeeeee 	cdp	14, 14, cr14, cr14, cr14, {7}
d003021c:	aaaaeeee 	bge	ceaebddc <_start-0x1534234>
d0030220:	aaaaaaaa 	bge	ceadacd0 <_start-0x1545340>
d0030224:	a2aaa2aa 	adcge	sl, sl, #-1610612726	; 0xa000000a
d0030228:	aaaaaaaa 	bge	ceadacd8 <_start-0x1545338>
d003022c:	aaaaaaaa 	bge	ceadacdc <_start-0x1545334>
d0030230:	aaaaaaaa 	bge	ceadace0 <_start-0x1545330>
d0030234:	aaaaaaaa 	bge	ceadace4 <_start-0x154532c>
d0030238:	aaaaaaaa 	bge	ceadace8 <_start-0x1545328>
d003023c:	aaaaaaaa 	bge	ceadacec <_start-0x1545324>
d0030240:	aaaaaaaa 	bge	ceadacf0 <_start-0x1545320>
d0030244:	0222a2aa 	eoreq	sl, r2, #-1610612726	; 0xa000000a
d0030248:	00000202 	andeq	r0, r0, r2, lsl #4
	...
d0030254:	ffff5f00 	undefined instruction 0xffff5f00
d0030258:	ffdfffff 	undefined instruction 0xffdfffff
d003025c:	ffffffff 	undefined instruction 0xffffffff
d0030260:	ffffffff 	undefined instruction 0xffffffff
d0030264:	ffffffff 	undefined instruction 0xffffffff
d0030268:	44ddfdff 	ldrbmi	pc, [sp], #3583	; 0xdff
	...
d0030274:	45440400 	strbmi	r0, [r4, #-1024]	; 0x400
d0030278:	44454545 	strbmi	r4, [r5], #-1349	; 0x545
d003027c:	45444444 	strbmi	r4, [r4, #-1092]	; 0x444
d0030280:	dddd5d45 	ldclle	13, cr5, [sp, #276]	; 0x114
d0030284:	dfdfdddd 	svcle	0x00dfdddd
d0030288:	dddddddf 	ldclle	13, cr13, [sp, #892]	; 0x37c
d003028c:	00004444 	andeq	r4, r0, r4, asr #8
	...
d003029c:	08000000 	stmdaeq	r0, {}
d00302a0:	baabaaaa 	blt	ceb1ad50 <_start-0x15052c0>
d00302a4:	bbaaaaaa 	bllt	ceadad54 <_start-0x15452bc>
d00302a8:	bbbbbbbb 	bllt	cef1f19c <_start-0x1100e74>
d00302ac:	bfbbbbbb 	svclt	0x00bbbbbb
d00302b0:	bbbfffff 	bllt	cf0302b4 <_start-0xfefd5c>
d00302b4:	aaaaaaaa 	bge	ceadad64 <_start-0x15452ac>
d00302b8:	88888aaa 	stmhi	r8, {r1, r3, r5, r7, r9, fp, pc}
d00302bc:	aa8a8888 	bge	ce2d24e4 <_start-0x1d4db2c>
d00302c0:	aaaaaaaa 	bge	ceadad70 <_start-0x15452a0>
d00302c4:	aaaaaaaa 	bge	ceadad74 <_start-0x154529c>
d00302c8:	aaaaaaaa 	bge	ceadad78 <_start-0x1545298>
d00302cc:	aaaaaaaa 	bge	ceadad7c <_start-0x1545294>
d00302d0:	aaaaaaaa 	bge	ceadad80 <_start-0x1545290>
d00302d4:	aaaaaaaa 	bge	ceadad84 <_start-0x154528c>
d00302d8:	88a8aaaa 	stmiahi	r8!, {r1, r3, r5, r7, r9, fp, sp, pc}
d00302dc:	88888888 	stmhi	r8, {r3, r7, fp, pc}
d00302e0:	00000888 	andeq	r0, r0, r8, lsl #17
d00302e4:	00000000 	andeq	r0, r0, r0
d00302e8:	7f000000 	svcvc	0x00000000
d00302ec:	ffffffff 	undefined instruction 0xffffffff
d00302f0:	ffffffff 	undefined instruction 0xffffffff
d00302f4:	ffffffff 	undefined instruction 0xffffffff
d00302f8:	ffffffff 	undefined instruction 0xffffffff
d00302fc:	ffffffff 	undefined instruction 0xffffffff
d0030300:	00101175 	andseq	r1, r0, r5, ror r1
d0030304:	00000000 	andeq	r0, r0, r0
d0030308:	11110000 	tstne	r1, r0
d003030c:	55551551 	ldrbpl	r1, [r5, #-1361]	; 0x551
d0030310:	15111115 	ldrne	r1, [r1, #-277]	; 0x115
d0030314:	55551511 	ldrbpl	r1, [r5, #-1297]	; 0x511
d0030318:	7f775555 	svcvc	0x00775555
d003031c:	ffffffff 	undefined instruction 0xffffffff
d0030320:	11555575 	cmpne	r5, r5, ror r5
d0030324:	00000010 	andeq	r0, r0, r0, lsl r0
	...
d0030334:	aaaa0200 	bge	ceab0b3c <_start-0x156f4d4>
d0030338:	aaaaaaaa 	bge	ceadade8 <_start-0x1545228>
d003033c:	eeeaaaaa 	vfma.f32	s21, s21, s21
d0030340:	eeeaeaee 	vfms.f32	s29, s21, s29
d0030344:	eeeeeeee 	cdp	14, 14, cr14, cr14, cr14, {7}
d0030348:	aaaaeaee 	bge	ceaeaf08 <_start-0x1535108>
d003034c:	aaaaaaaa 	bge	ceadadfc <_start-0x1545214>
d0030350:	2a2222aa 	bcs	d08b8e00 <bss_end+0x883830>
d0030354:	aaaaaaaa 	bge	ceadae04 <_start-0x154520c>
d0030358:	aaaaaaaa 	bge	ceadae08 <_start-0x1545208>
d003035c:	aaaaaaaa 	bge	ceadae0c <_start-0x1545204>
d0030360:	aaaaaaaa 	bge	ceadae10 <_start-0x1545200>
d0030364:	aaaaaaaa 	bge	ceadae14 <_start-0x15451fc>
d0030368:	aaaaaaaa 	bge	ceadae18 <_start-0x15451f8>
d003036c:	aaaaaaaa 	bge	ceadae1c <_start-0x15451f4>
d0030370:	2020aaaa 	eorcs	sl, r0, sl, lsr #21
	...
d0030380:	fffd5d00 	undefined instruction 0xfffd5d00
d0030384:	fffdffff 	undefined instruction 0xfffdffff
d0030388:	ffffffff 	undefined instruction 0xffffffff
d003038c:	ffffffff 	undefined instruction 0xffffffff
d0030390:	ffffffff 	undefined instruction 0xffffffff
d0030394:	40d4fdff 	ldrshmi	pc, [r4], #223	; 0xdf
	...
d00303a0:	44440000 	strbmi	r0, [r4]
d00303a4:	44404444 	strbmi	r4, [r0], #-1092	; 0x444
d00303a8:	44444040 	strbmi	r4, [r4], #-64	; 0x40
d00303ac:	ddd55544 	cfldr64le	mvdx5, [r5, #272]	; 0x110
d00303b0:	dddddddd 	ldclle	13, cr13, [sp, #884]	; 0x374
d00303b4:	d5dddddd 	ldrble	sp, [sp, #3549]	; 0xddd
d00303b8:	000040d4 	ldrdeq	r4, [r0], -r4
	...
d00303c8:	80008000 	andhi	r8, r0, r0
d00303cc:	aaabaaaa 	bge	ceb1ae7c <_start-0x1505194>
d00303d0:	bbabaaaa 	bllt	ceb1ae80 <_start-0x1505190>
d00303d4:	bbbbbbbb 	bllt	cef1f2c8 <_start-0x1100d48>
d00303d8:	fbfbbbbb 	blx	cff1f2ce <_start-0x100d42>
d00303dc:	fbfbfbfb 	blx	cff2f3d2 <_start-0xf0c3e>
d00303e0:	aaaaaaaa 	bge	ceadae90 <_start-0x1545180>
d00303e4:	888888a8 	stmhi	r8, {r3, r5, r7, fp, pc}
d00303e8:	8a888888 	bhi	ce252610 <_start-0x1dcda00>
d00303ec:	aaaaaaaa 	bge	ceadae9c <_start-0x1545174>
d00303f0:	aaaaaaaa 	bge	ceadaea0 <_start-0x1545170>
d00303f4:	aaaaaaaa 	bge	ceadaea4 <_start-0x154516c>
d00303f8:	aaaaaaaa 	bge	ceadaea8 <_start-0x1545168>
d00303fc:	aaaaaaaa 	bge	ceadaeac <_start-0x1545164>
d0030400:	aaaaaaaa 	bge	ceadaeb0 <_start-0x1545160>
d0030404:	88a8aaaa 	stmiahi	r8!, {r1, r3, r5, r7, r9, fp, sp, pc}
d0030408:	80888888 	addhi	r8, r8, r8, lsl #17
d003040c:	00008080 	andeq	r8, r0, r0, lsl #1
d0030410:	00000000 	andeq	r0, r0, r0
d0030414:	77010000 	strvc	r0, [r1, -r0]
d0030418:	ffffffff 	undefined instruction 0xffffffff
d003041c:	ffffffff 	undefined instruction 0xffffffff
d0030420:	ffffffff 	undefined instruction 0xffffffff
d0030424:	ffffffff 	undefined instruction 0xffffffff
d0030428:	ffffffff 	undefined instruction 0xffffffff
d003042c:	00115151 	andseq	r5, r1, r1, asr r1
d0030430:	00000000 	andeq	r0, r0, r0
d0030434:	01010000 	tsteq	r1, r0
d0030438:	51151111 	tstpl	r5, r1, lsl r1
d003043c:	11111111 	tstne	r1, r1, lsl r1
d0030440:	55511111 	ldrbpl	r1, [r1, #-273]	; 0x111
d0030444:	77575755 	undefined instruction 0x77575755
d0030448:	f7ffffff 	undefined instruction 0xf7ffffff
d003044c:	515555f7 	ldrshpl	r5, [r5, #-87]	; 0xffffffa9
d0030450:	00000011 	andeq	r0, r0, r1, lsl r0
	...
d0030460:	aaaa0200 	bge	ceab0c68 <_start-0x156f3a8>
d0030464:	aaaaaaaa 	bge	ceadaf14 <_start-0x15450fc>
d0030468:	eeeeaeaa 	cdp	14, 14, cr10, cr14, cr10, {5}
d003046c:	aeaeeeee 	cdpge	14, 10, cr14, cr14, cr14, {7}
d0030470:	eeeeeeee 	cdp	14, 14, cr14, cr14, cr14, {7}
d0030474:	aaaaeaee 	bge	ceaeb034 <_start-0x1534fdc>
d0030478:	aaaaaaaa 	bge	ceadaf28 <_start-0x15450e8>
d003047c:	a222a2a2 	eorge	sl, r2, #536870922	; 0x2000000a
d0030480:	aaaaaaa2 	bge	ceadaf10 <_start-0x1545100>
d0030484:	aaaaaaaa 	bge	ceadaf34 <_start-0x15450dc>
d0030488:	aaaaaaaa 	bge	ceadaf38 <_start-0x15450d8>
d003048c:	aaaaaaaa 	bge	ceadaf3c <_start-0x15450d4>
d0030490:	aaaaaaaa 	bge	ceadaf40 <_start-0x15450d0>
d0030494:	aaaaaaaa 	bge	ceadaf44 <_start-0x15450cc>
d0030498:	aaaaaaaa 	bge	ceadaf48 <_start-0x15450c8>
d003049c:	2222a2aa 	eorcs	sl, r2, #-1610612726	; 0xa000000a
	...
d00304ac:	dfdd5d00 	svcle	0x00dd5d00
d00304b0:	ffffdfdf 	undefined instruction 0xffffdfdf
d00304b4:	ffffffff 	undefined instruction 0xffffffff
d00304b8:	ffffffff 	undefined instruction 0xffffffff
d00304bc:	ffffffff 	undefined instruction 0xffffffff
d00304c0:	40d4ddff 	ldrshmi	sp, [r4], #223	; 0xdf
	...
d00304cc:	44040000 	strmi	r0, [r4]
d00304d0:	04440445 	strbeq	r0, [r4], #-1093	; 0x445
d00304d4:	04040400 	streq	r0, [r4], #-1024	; 0x400
d00304d8:	5d554544 	cfldr64pl	mvdx4, [r5, #-272]	; 0xfffffef0
d00304dc:	dfdddddd 	svcle	0x00dddddd
d00304e0:	dddddddf 	ldclle	13, cr13, [sp, #892]	; 0x37c
d00304e4:	00004455 	andeq	r4, r0, r5, asr r4
	...
d00304f8:	aaaaaaaa 	bge	ceadafa8 <_start-0x1545068>
d00304fc:	bbbaaaaa 	bllt	ceedafac <_start-0x1145064>
d0030500:	bbbfbbbb 	bllt	cf01f3f4 <_start-0x1000c1c>
d0030504:	bfbbbbbb 	svclt	0x00bbbbbb
d0030508:	baffffff 	blt	d003050c <gImage_pic+0xdb40>
d003050c:	aaaaaaaa 	bge	ceadafbc <_start-0x1545054>
d0030510:	888888a8 	stmhi	r8, {r3, r5, r7, fp, pc}
d0030514:	88888888 	stmhi	r8, {r3, r7, fp, pc}
d0030518:	aaaaaa8a 	bge	ceadaf48 <_start-0x15450c8>
d003051c:	aa8aaaaa 	bge	ce2dafcc <_start-0x1d45044>
d0030520:	aaaaaaaa 	bge	ceadafd0 <_start-0x1545040>
d0030524:	aaaaaaaa 	bge	ceadafd4 <_start-0x154503c>
d0030528:	aaaaaaaa 	bge	ceadafd8 <_start-0x1545038>
d003052c:	aaaaaaaa 	bge	ceadafdc <_start-0x1545034>
d0030530:	88aaaaaa 	stmiahi	sl!, {r1, r3, r5, r7, r9, fp, sp, pc}
d0030534:	88888888 	stmhi	r8, {r3, r7, fp, pc}
	...
d0030540:	57000000 	strpl	r0, [r0, -r0]
d0030544:	ffff7f7f 	undefined instruction 0xffff7f7f
d0030548:	ffffffff 	undefined instruction 0xffffffff
d003054c:	ffffffff 	undefined instruction 0xffffffff
d0030550:	ffffffff 	undefined instruction 0xffffffff
d0030554:	fdffffff 	ldc2l	15, cr15, [pc, #1020]!	; 0x3fc
d0030558:	00101555 	andseq	r1, r0, r5, asr r5
	...
d0030564:	11111111 	tstne	r1, r1, lsl r1
d0030568:	11110155 	tstne	r1, r5, asr r1
d003056c:	15111115 	ldrne	r1, [r1, #-277]	; 0x115
d0030570:	77555555 	undefined instruction 0x77555555
d0030574:	ffffff7f 	undefined instruction 0xffffff7f
d0030578:	55555577 	ldrbpl	r5, [r5, #-1399]	; 0x577
d003057c:	00000010 	andeq	r0, r0, r0, lsl r0
	...
d003058c:	aaaa0200 	bge	ceab0d94 <_start-0x156f27c>
d0030590:	aaaaaaaa 	bge	ceadb040 <_start-0x1544fd0>
d0030594:	eeeeaaaa 	vfma.f32	s21, s29, s21
d0030598:	eaeeeeee 	b	cfbec158 <_start-0x433eb8>
d003059c:	eeeeeeaa 	cdp	14, 14, cr14, cr14, cr10, {5}
d00305a0:	aaaaeaee 	bge	ceaeb160 <_start-0x1534eb0>
d00305a4:	aaaaaaaa 	bge	ceadb054 <_start-0x1544fbc>
d00305a8:	20002020 	andcs	r2, r0, r0, lsr #32
d00305ac:	aaaa2a22 	bge	ceabae3c <_start-0x15651d4>
d00305b0:	aaaaaaaa 	bge	ceadb060 <_start-0x1544fb0>
d00305b4:	aaaaaaaa 	bge	ceadb064 <_start-0x1544fac>
d00305b8:	aaaaaaaa 	bge	ceadb068 <_start-0x1544fa8>
d00305bc:	aaaaaaaa 	bge	ceadb06c <_start-0x1544fa4>
d00305c0:	aaaaaaaa 	bge	ceadb070 <_start-0x1544fa0>
d00305c4:	aaaaaaaa 	bge	ceadb074 <_start-0x1544f9c>
d00305c8:	2020a2aa 	eorcs	sl, r0, sl, lsr #5
	...
d00305d8:	dddd5d00 	ldclle	13, cr5, [sp]
d00305dc:	fffddddd 	undefined instruction 0xfffddddd
d00305e0:	ffffffff 	undefined instruction 0xffffffff
d00305e4:	ffffffff 	undefined instruction 0xffffffff
d00305e8:	ffffffff 	undefined instruction 0xffffffff
d00305ec:	44c4fdff 	strbmi	pc, [r4], #3583	; 0xdff
	...
d00305f8:	40000000 	andmi	r0, r0, r0
d00305fc:	40404000 	submi	r4, r0, r0
d0030600:	00004040 	andeq	r4, r0, r0, asr #32
d0030604:	55444400 	strbpl	r4, [r4, #-1024]	; 0x400
d0030608:	ddddddd5 	ldclle	13, cr13, [sp, #852]	; 0x354
d003060c:	dddddddd 	ldclle	13, cr13, [sp, #884]	; 0x374
d0030610:	004044d4 	ldrdeq	r4, [r0], #-68	; 0xffffffbc
	...
d0030624:	aaaaaaaa 	bge	ceadb0d4 <_start-0x1544f3c>
d0030628:	ababaaaa 	blge	ceb1b0d8 <_start-0x1504f38>
d003062c:	bbfbbbbb 	bllt	cff1f520 <_start-0x100af0>
d0030630:	bbbbfbbb 	bllt	cef2f524 <_start-0x10f0aec>
d0030634:	bbfbffff 	bllt	cff30638 <_start-0xef9d8>
d0030638:	aaaaaaaa 	bge	ceadb0e8 <_start-0x1544f28>
d003063c:	888888a8 	stmhi	r8, {r3, r5, r7, fp, pc}
d0030640:	88888888 	stmhi	r8, {r3, r7, fp, pc}
d0030644:	aaaaaaa8 	bge	ceadb0ec <_start-0x1544f24>
d0030648:	aaaaaaaa 	bge	ceadb0f8 <_start-0x1544f18>
d003064c:	aaaaaaaa 	bge	ceadb0fc <_start-0x1544f14>
d0030650:	aaaaaaaa 	bge	ceadb100 <_start-0x1544f10>
d0030654:	aaaaaaaa 	bge	ceadb104 <_start-0x1544f0c>
d0030658:	aaaaaaaa 	bge	ceadb108 <_start-0x1544f08>
d003065c:	88a8aaaa 	stmiahi	r8!, {r1, r3, r5, r7, r9, fp, sp, pc}
d0030660:	80888888 	addhi	r8, r8, r8, lsl #17
d0030664:	00800080 	addeq	r0, r0, r0, lsl #1
d0030668:	00000000 	andeq	r0, r0, r0
d003066c:	15000000 	strne	r0, [r0]
d0030670:	fff7f757 	undefined instruction 0xfff7f757
d0030674:	ffffffff 	undefined instruction 0xffffffff
d0030678:	ffffffff 	undefined instruction 0xffffffff
d003067c:	ffffffff 	undefined instruction 0xffffffff
d0030680:	f7ffffff 	undefined instruction 0xf7ffffff
d0030684:	00011151 	andeq	r1, r1, r1, asr r1
	...
d0030690:	11011101 	tstne	r1, r1, lsl #2
d0030694:	11010110 	tstne	r1, r0, lsl r1
d0030698:	11110100 	tstne	r1, r0, lsl #2
d003069c:	57555555 	undefined instruction 0x57555555
d00306a0:	ffffff77 	undefined instruction 0xffffff77
d00306a4:	515555f7 	ldrshpl	r5, [r5, #-87]	; 0xffffffa9
d00306a8:	00000011 	andeq	r0, r0, r1, lsl r0
	...
d00306b8:	aaaa0200 	bge	ceab0ec0 <_start-0x156f150>
d00306bc:	aaaaaaaa 	bge	ceadb16c <_start-0x1544ea4>
d00306c0:	eeaeaaaa 	vfma.f32	s20, s29, s21
d00306c4:	eeeeeeee 	cdp	14, 14, cr14, cr14, cr14, {7}
d00306c8:	eeeeeeee 	cdp	14, 14, cr14, cr14, cr14, {7}
d00306cc:	aaaaaaee 	bge	ceadb28c <_start-0x1544d84>
d00306d0:	aaaaaaaa 	bge	ceadb180 <_start-0x1544e90>
d00306d4:	020002a2 	andeq	r0, r0, #536870922	; 0x2000000a
d00306d8:	aaaa2202 	bge	ceab8ee8 <_start-0x1567128>
d00306dc:	aaaaaaaa 	bge	ceadb18c <_start-0x1544e84>
d00306e0:	aaaaaaaa 	bge	ceadb190 <_start-0x1544e80>
d00306e4:	aaaaaaaa 	bge	ceadb194 <_start-0x1544e7c>
d00306e8:	aaaaaaaa 	bge	ceadb198 <_start-0x1544e78>
d00306ec:	aaaaaaaa 	bge	ceadb19c <_start-0x1544e74>
d00306f0:	aaaaaaaa 	bge	ceadb1a0 <_start-0x1544e70>
d00306f4:	0202a2aa 	andeq	sl, r2, #-1610612726	; 0xa000000a
	...
d0030704:	dd5d0500 	cfldr64le	mvdx0, [sp]
d0030708:	dfffdfdf 	svcle	0x00ffdfdf
d003070c:	ffffffff 	undefined instruction 0xffffffff
d0030710:	ffffffff 	undefined instruction 0xffffffff
d0030714:	ffffffff 	undefined instruction 0xffffffff
d0030718:	40d4fdff 	ldrshmi	pc, [r4], #223	; 0xdf
	...
d0030728:	00000404 	andeq	r0, r0, r4, lsl #8
d003072c:	00000000 	andeq	r0, r0, r0
d0030730:	45440400 	strbmi	r0, [r4, #-1024]	; 0x400
d0030734:	dfdddd5d 	svcle	0x00dddd5d
d0030738:	dddddddf 	ldclle	13, cr13, [sp, #892]	; 0x37c
d003073c:	00004455 	andeq	r4, r0, r5, asr r4
	...
d003074c:	08000000 	stmdaeq	r0, {}
d0030750:	aaaaaaaa 	bge	ceadb200 <_start-0x1544e10>
d0030754:	bbaaaaaa 	bllt	ceadb204 <_start-0x1544e0c>
d0030758:	bfbbbbbb 	svclt	0x00bbbbbb
d003075c:	bfbbbbbb 	svclt	0x00bbbbbb
d0030760:	babbffff 	blt	cef30764 <_start-0x10ef8ac>
d0030764:	aaaaaaaa 	bge	ceadb214 <_start-0x1544dfc>
d0030768:	8888aaaa 	stmhi	r8, {r1, r3, r5, r7, r9, fp, sp, pc}
d003076c:	88888888 	stmhi	r8, {r3, r7, fp, pc}
d0030770:	aaaaaa88 	bge	ceadb198 <_start-0x1544e78>
d0030774:	aaaaaaaa 	bge	ceadb224 <_start-0x1544dec>
d0030778:	aaaaaaaa 	bge	ceadb228 <_start-0x1544de8>
d003077c:	aaaaaaaa 	bge	ceadb22c <_start-0x1544de4>
d0030780:	aaaaaaaa 	bge	ceadb230 <_start-0x1544de0>
d0030784:	aaaaaaaa 	bge	ceadb234 <_start-0x1544ddc>
d0030788:	88aaaaaa 	stmiahi	sl!, {r1, r3, r5, r7, r9, fp, sp, pc}
d003078c:	80888888 	addhi	r8, r8, r8, lsl #17
	...
d0030798:	11000000 	tstne	r0, r0
d003079c:	ffff5755 	undefined instruction 0xffff5755
d00307a0:	ffffffff 	undefined instruction 0xffffffff
d00307a4:	ffffffff 	undefined instruction 0xffffffff
d00307a8:	ffffffff 	undefined instruction 0xffffffff
d00307ac:	ffffffff 	undefined instruction 0xffffffff
d00307b0:	11111155 	tstne	r1, r5, asr r1
	...
d00307bc:	00111700 	andseq	r1, r1, r0, lsl #14
d00307c0:	00010000 	andeq	r0, r1, r0
d00307c4:	11110010 	tstne	r1, r0, lsl r0
d00307c8:	55555511 	ldrbpl	r5, [r5, #-1297]	; 0x511
d00307cc:	ffffff7f 	undefined instruction 0xffffff7f
d00307d0:	51555577 	cmppl	r5, r7, ror r5
d00307d4:	00000010 	andeq	r0, r0, r0, lsl r0
	...
d00307e4:	aaaa0000 	bge	ceab07ec <_start-0x156f824>
d00307e8:	aaaaaaaa 	bge	ceadb298 <_start-0x1544d78>
d00307ec:	aaaaaaaa 	bge	ceadb29c <_start-0x1544d74>
d00307f0:	eeeeeeee 	cdp	14, 14, cr14, cr14, cr14, {7}
d00307f4:	eeeeeeee 	cdp	14, 14, cr14, cr14, cr14, {7}
d00307f8:	aaaaaaea 	bge	ceadb3a8 <_start-0x1544c68>
d00307fc:	aaaaaaaa 	bge	ceadb2ac <_start-0x1544d64>
d0030800:	000020aa 	andeq	r2, r0, sl, lsr #1
d0030804:	aa2a2000 	bge	d0ab880c <bss_end+0xa8323c>
d0030808:	aaaaaaaa 	bge	ceadb2b8 <_start-0x1544d58>
d003080c:	aaaaaaaa 	bge	ceadb2bc <_start-0x1544d54>
d0030810:	aaaaaaaa 	bge	ceadb2c0 <_start-0x1544d50>
d0030814:	aaaaaaaa 	bge	ceadb2c4 <_start-0x1544d4c>
d0030818:	aaaaaaaa 	bge	ceadb2c8 <_start-0x1544d48>
d003081c:	aaaaaaaa 	bge	ceadb2cc <_start-0x1544d44>
d0030820:	0000a0aa 	andeq	sl, r0, sl, lsr #1
	...
d0030830:	d5550000 	ldrble	r0, [r5]
d0030834:	ffffffdd 	undefined instruction 0xffffffdd
d0030838:	ffffffff 	undefined instruction 0xffffffff
d003083c:	ffffffff 	undefined instruction 0xffffffff
d0030840:	ffffffff 	undefined instruction 0xffffffff
d0030844:	00d4fdff 	ldrsheq	pc, [r4], #223	; 0xdf
	...
d003085c:	44000000 	strmi	r0, [r0]
d0030860:	dddddd55 	ldclle	13, cr13, [sp, #340]	; 0x154
d0030864:	ddddddfd 	ldclle	13, cr13, [sp, #1012]	; 0x3f4
d0030868:	000040d4 	ldrdeq	r4, [r0], -r4
	...
d0030878:	80008000 	andhi	r8, r0, r0
d003087c:	aaaaaaaa 	bge	ceadb32c <_start-0x1544ce4>
d0030880:	abababab 	blge	ceb1b734 <_start-0x15048dc>
d0030884:	ffbbbbab 	undefined instruction 0xffbbbbab
d0030888:	bbfbbbfb 	bllt	cff1f87c <_start-0x100794>
d003088c:	bbbbfbfb 	bllt	cef2f880 <_start-0x10f0790>
d0030890:	aaaaaaaa 	bge	ceadb340 <_start-0x1544cd0>
d0030894:	8888aaaa 	stmhi	r8, {r1, r3, r5, r7, r9, fp, sp, pc}
d0030898:	88888888 	stmhi	r8, {r3, r7, fp, pc}
d003089c:	aaaa8888 	bge	cead2ac4 <_start-0x154d54c>
d00308a0:	a8a8aa88 	stmiage	r8!, {r3, r7, r9, fp, sp, pc}
d00308a4:	aaa8a8aa 	bge	cea5ab54 <_start-0x15c54bc>
d00308a8:	aaaaaaaa 	bge	ceadb358 <_start-0x1544cb8>
d00308ac:	aaaaaaaa 	bge	ceadb35c <_start-0x1544cb4>
d00308b0:	aaaaaaaa 	bge	ceadb360 <_start-0x1544cb0>
d00308b4:	8888aaaa 	stmhi	r8, {r1, r3, r5, r7, r9, fp, sp, pc}
d00308b8:	80808888 	addhi	r8, r0, r8, lsl #17
	...
d00308c4:	01000000 	tsteq	r0, r0
d00308c8:	ffff5755 	undefined instruction 0xffff5755
d00308cc:	ffffffff 	undefined instruction 0xffffffff
d00308d0:	ffffffff 	undefined instruction 0xffffffff
d00308d4:	ffffffff 	undefined instruction 0xffffffff
d00308d8:	ffffffff 	undefined instruction 0xffffffff
d00308dc:	10010151 	andne	r0, r1, r1, asr r1
	...
d00308e8:	00010000 	andeq	r0, r1, r0
d00308ec:	01000000 	tsteq	r0, r0
d00308f0:	01000000 	tsteq	r0, r0
d00308f4:	57551111 	smmlapl	r5, r1, r1, r1
d00308f8:	f7ffff77 	undefined instruction 0xf7ffff77
d00308fc:	515555f7 	ldrshpl	r5, [r5, #-87]	; 0xffffffa9
d0030900:	00000010 	andeq	r0, r0, r0, lsl r0
	...
d0030910:	aaaa0200 	bge	ceab1118 <_start-0x156eef8>
d0030914:	aaaaaaaa 	bge	ceadb3c4 <_start-0x1544c4c>
d0030918:	aaaaaaae 	bge	ceadb3d8 <_start-0x1544c38>
d003091c:	eeeeeeae 	cdp	14, 14, cr14, cr14, cr14, {5}
d0030920:	eeeeeeee 	cdp	14, 14, cr14, cr14, cr14, {7}
d0030924:	aaaaaeae 	bge	ceadc3e4 <_start-0x1543c2c>
d0030928:	aaaaaaaa 	bge	ceadb3d8 <_start-0x1544c38>
d003092c:	0000a2a2 	andeq	sl, r0, r2, lsr #5
d0030930:	aa220202 	bge	d08b1140 <bss_end+0x87bb70>
d0030934:	aaaaaaaa 	bge	ceadb3e4 <_start-0x1544c2c>
d0030938:	aaaaaaaa 	bge	ceadb3e8 <_start-0x1544c28>
d003093c:	aaaaaaaa 	bge	ceadb3ec <_start-0x1544c24>
d0030940:	aaaaaaaa 	bge	ceadb3f0 <_start-0x1544c20>
d0030944:	aaaaaaaa 	bge	ceadb3f4 <_start-0x1544c1c>
d0030948:	aaaaaaaa 	bge	ceadb3f8 <_start-0x1544c18>
d003094c:	0000a0a2 	andeq	sl, r0, r2, lsr #1
	...
d003095c:	dd5d0400 	cfldrdle	mvd0, [sp]
d0030960:	ffffdffd 	undefined instruction 0xffffdffd
d0030964:	ffffffff 	undefined instruction 0xffffffff
d0030968:	ffffffff 	undefined instruction 0xffffffff
d003096c:	ffffffff 	undefined instruction 0xffffffff
d0030970:	0044fdff 	strdeq	pc, [r4], #-223	; 0xffffff21
d0030974:	00000044 	andeq	r0, r0, r4, asr #32
	...
d0030988:	44000000 	strmi	r0, [r0]
d003098c:	dfdd5d45 	svcle	0x00dd5d45
d0030990:	dddddddf 	ldclle	13, cr13, [sp, #892]	; 0x37c
d0030994:	00004444 	andeq	r4, r0, r4, asr #8
	...
d00309a8:	aaaaaaaa 	bge	ceadb458 <_start-0x1544bb8>
d00309ac:	bbbbbaaa 	bllt	cef1f45c <_start-0x1100bb4>
d00309b0:	bfbbbbbb 	svclt	0x00bbbbbb
d00309b4:	bbbbbbbb 	bllt	cef1f8a8 <_start-0x1100768>
d00309b8:	bbbbbbbb 	bllt	cef1f8ac <_start-0x1100764>
d00309bc:	aaaaaaaa 	bge	ceadb46c <_start-0x1544ba4>
d00309c0:	88aaaaaa 	stmiahi	sl!, {r1, r3, r5, r7, r9, fp, sp, pc}
d00309c4:	88880888 	stmhi	r8, {r3, r7, fp}
d00309c8:	aa8a8a88 	bge	ce2d33f0 <_start-0x1d4cc20>
d00309cc:	a88aa8aa 	stmge	sl, {r1, r3, r5, r7, fp, sp, pc}
d00309d0:	8a8a8a8a 	bhi	ce2d3400 <_start-0x1d4cc10>
d00309d4:	aaaaaa8a 	bge	ceadb404 <_start-0x1544c0c>
d00309d8:	aaaaaaaa 	bge	ceadb488 <_start-0x1544b88>
d00309dc:	aaaaaaaa 	bge	ceadb48c <_start-0x1544b84>
d00309e0:	8888aaaa 	stmhi	r8, {r1, r3, r5, r7, r9, fp, sp, pc}
d00309e4:	00088888 	andeq	r8, r8, r8, lsl #17
	...
d00309f0:	01000000 	tsteq	r0, r0
d00309f4:	7fffff17 	svcvc	0x00ffff17
d00309f8:	ffffffff 	undefined instruction 0xffffffff
d00309fc:	ffffffff 	undefined instruction 0xffffffff
d0030a00:	ffffffff 	undefined instruction 0xffffffff
d0030a04:	fdffffff 	ldc2l	15, cr15, [pc, #1020]!	; 0x3fc
d0030a08:	11511151 	cmpne	r1, r1, asr r1
d0030a0c:	00000011 	andeq	r0, r0, r1, lsl r0
	...
d0030a20:	55151101 	ldrpl	r1, [r5, #-257]	; 0x101
d0030a24:	ffffff77 	undefined instruction 0xffffff77
d0030a28:	11557575 	cmpne	r5, r5, ror r5
	...
d0030a3c:	aaaa0000 	bge	ceab0a44 <_start-0x156f5cc>
d0030a40:	aaaaaaaa 	bge	ceadb4f0 <_start-0x1544b20>
d0030a44:	eaaaeaaa 	b	ceaeb4f4 <_start-0x1534b1c>
d0030a48:	eeeeeeea 	cdp	14, 14, cr14, cr14, cr10, {7}
d0030a4c:	aaeaeeee 	bge	cfaec60c <_start-0x533a04>
d0030a50:	aaaaeeaa 	bge	ceaec500 <_start-0x1533b10>
d0030a54:	aaaaaaaa 	bge	ceadb504 <_start-0x1544b0c>
d0030a58:	0020aaaa 	eoreq	sl, r0, sl, lsr #21
d0030a5c:	2a080000 	bcs	d0230a64 <bss_end+0x1fb494>
d0030a60:	aaaaaaaa 	bge	ceadb510 <_start-0x1544b00>
d0030a64:	aaaaaaaa 	bge	ceadb514 <_start-0x1544afc>
d0030a68:	aaaaaaaa 	bge	ceadb518 <_start-0x1544af8>
d0030a6c:	aaaaaaaa 	bge	ceadb51c <_start-0x1544af4>
d0030a70:	aaaaaaaa 	bge	ceadb520 <_start-0x1544af0>
d0030a74:	aaaaaaaa 	bge	ceadb524 <_start-0x1544aec>
d0030a78:	000000a2 	andeq	r0, r0, r2, lsr #1
	...
d0030a88:	fd450000 	stc2l	0, cr0, [r5]
d0030a8c:	ffffdfdd 	undefined instruction 0xffffdfdd
d0030a90:	ffffffff 	undefined instruction 0xffffffff
d0030a94:	ffffffff 	undefined instruction 0xffffffff
d0030a98:	ffffffff 	undefined instruction 0xffffffff
d0030a9c:	45c4fdff 	strbmi	pc, [r4, #3583]	; 0xdff
d0030aa0:	00404044 	subeq	r4, r0, r4, asr #32
	...
d0030ab8:	dddd5544 	cfldr64le	mvdx5, [sp, #272]	; 0x110
d0030abc:	d4dddddd 	ldrble	sp, [sp], #3549	; 0xddd
d0030ac0:	00004044 	andeq	r4, r0, r4, asr #32
	...
d0030ad0:	00800080 	addeq	r0, r0, r0, lsl #1
d0030ad4:	aaaaaa8a 	bge	ceadb504 <_start-0x1544b0c>
d0030ad8:	bbabbbab 	bllt	ceb1f98c <_start-0x1500684>
d0030adc:	bbbbbbbb 	bllt	cef1f9d0 <_start-0x1100640>
d0030ae0:	bbbbfbfb 	bllt	cef2fad4 <_start-0x10f053c>
d0030ae4:	bbbbbbbb 	bllt	cef1f9d8 <_start-0x1100638>
d0030ae8:	aaaaaaaa 	bge	ceadb598 <_start-0x1544a78>
d0030aec:	a8aaaaaa 	stmiage	sl!, {r1, r3, r5, r7, r9, fp, sp, pc}
d0030af0:	88808088 	stmhi	r0, {r3, r7, pc}
d0030af4:	88888888 	stmhi	r8, {r3, r7, fp, pc}
d0030af8:	88a8aaa8 	stmiahi	r8!, {r3, r5, r7, r9, fp, sp, pc}
d0030afc:	88888888 	stmhi	r8, {r3, r7, fp, pc}
d0030b00:	aaaaaaa8 	bge	ceadb5a8 <_start-0x1544a68>
d0030b04:	aaaaaaaa 	bge	ceadb5b4 <_start-0x1544a5c>
d0030b08:	aaaaaaaa 	bge	ceadb5b8 <_start-0x1544a58>
d0030b0c:	8088a8aa 	addhi	sl, r8, sl, lsr #17
d0030b10:	80808080 	addhi	r8, r0, r0, lsl #1
	...
d0030b1c:	01000000 	tsteq	r0, r0
d0030b20:	ffffff17 	undefined instruction 0xffffff17
d0030b24:	ffffffff 	undefined instruction 0xffffffff
d0030b28:	ffffffff 	undefined instruction 0xffffffff
d0030b2c:	ffffffff 	undefined instruction 0xffffffff
d0030b30:	ffffffff 	undefined instruction 0xffffffff
d0030b34:	11155551 	tstne	r5, r1, asr r5
d0030b38:	00011111 	andeq	r1, r1, r1, lsl r1
d0030b3c:	00000000 	andeq	r0, r0, r0
d0030b40:	00010000 	andeq	r0, r1, r0
d0030b44:	00000001 	andeq	r0, r0, r1
d0030b48:	00000000 	andeq	r0, r0, r0
d0030b4c:	55110101 	ldrpl	r0, [r1, #-257]	; 0x101
d0030b50:	f7ffff57 	undefined instruction 0xf7ffff57
d0030b54:	00515577 	subseq	r5, r1, r7, ror r5
	...
d0030b68:	aa2a0000 	bge	d0ab0b70 <bss_end+0xa7b5a0>
d0030b6c:	aaaaaaaa 	bge	ceadb61c <_start-0x15449f4>
d0030b70:	aeaaaaaa 	vfmage.f32	s20, s21, s21
d0030b74:	eeeeeeee 	cdp	14, 14, cr14, cr14, cr14, {7}
d0030b78:	aaaaaaee 	bge	ceadb738 <_start-0x15448d8>
d0030b7c:	aaaaeeae 	bge	ceaec63c <_start-0x15339d4>
d0030b80:	aaaaaaaa 	bge	ceadb630 <_start-0x15449e0>
d0030b84:	02a2aaaa 	adceq	sl, r2, #696320	; 0xaa000
d0030b88:	a2020200 	andge	r0, r2, #0
d0030b8c:	aaaaaaa2 	bge	ceadb61c <_start-0x15449f4>
d0030b90:	aaaaaaaa 	bge	ceadb640 <_start-0x15449d0>
d0030b94:	aaaaaaa2 	bge	ceadb624 <_start-0x15449ec>
d0030b98:	aaaaaaaa 	bge	ceadb648 <_start-0x15449c8>
d0030b9c:	aaaaaaaa 	bge	ceadb64c <_start-0x15449c4>
d0030ba0:	aaaaaaaa 	bge	ceadb650 <_start-0x15449c0>
d0030ba4:	000000a0 	andeq	r0, r0, r0, lsr #1
	...
d0030bb4:	ff050000 	undefined instruction 0xff050000
d0030bb8:	ffffffdf 	undefined instruction 0xffffffdf
d0030bbc:	ffffffff 	undefined instruction 0xffffffff
d0030bc0:	ffffffff 	undefined instruction 0xffffffff
d0030bc4:	ffffffff 	undefined instruction 0xffffffff
d0030bc8:	4cc4ddff 	stclmi	13, cr13, [r4], {255}	; 0xff
d0030bcc:	04040444 	streq	r0, [r4], #-1092	; 0x444
	...
d0030be4:	dd5d5544 	cfldr64le	mvdx5, [sp, #-272]	; 0xfffffef0
d0030be8:	d4dddddf 	ldrble	sp, [sp], #3551	; 0xddf
d0030bec:	00000044 	andeq	r0, r0, r4, asr #32
	...
d0030c00:	aaaaaa8a 	bge	ceadb630 <_start-0x15449e0>
d0030c04:	bbbbbabb 	bllt	cef1f6f8 <_start-0x1100918>
d0030c08:	bbbbbbbb 	bllt	cef1fafc <_start-0x1100514>
d0030c0c:	babbbbbf 	blt	cef1fb10 <_start-0x1100500>
d0030c10:	fbbbbbaa 	blx	cef1fac2 <_start-0x110054e>
d0030c14:	aaaaaaaa 	bge	ceadb6c4 <_start-0x154494c>
d0030c18:	aaaaaaaa 	bge	ceadb6c8 <_start-0x1544948>
d0030c1c:	88808888 	stmhi	r0, {r3, r7, fp, pc}
d0030c20:	8a888888 	bhi	ce252e48 <_start-0x1dcd1c8>
d0030c24:	8aaaaaaa 	bhi	ceadb6d4 <_start-0x154493c>
d0030c28:	88888888 	stmhi	r8, {r3, r7, fp, pc}
d0030c2c:	aaaa8a88 	bge	cead3654 <_start-0x154c9bc>
d0030c30:	aaaaaaaa 	bge	ceadb6e0 <_start-0x1544930>
d0030c34:	aaaaaaaa 	bge	ceadb6e4 <_start-0x154492c>
d0030c38:	088888aa 	stmeq	r8, {r1, r3, r5, r7, fp, pc}
	...
d0030c4c:	ffffff17 	undefined instruction 0xffffff17
d0030c50:	ffffffff 	undefined instruction 0xffffffff
d0030c54:	ffffffff 	undefined instruction 0xffffffff
d0030c58:	ffffffff 	undefined instruction 0xffffffff
d0030c5c:	ffffffff 	undefined instruction 0xffffffff
d0030c60:	11115155 	tstne	r1, r5, asr r1
d0030c64:	00515115 	subseq	r5, r1, r5, lsl r1
	...
d0030c70:	00000010 	andeq	r0, r0, r0, lsl r0
d0030c74:	00000000 	andeq	r0, r0, r0
d0030c78:	55150100 	ldrpl	r0, [r5, #-256]	; 0x100
d0030c7c:	ffff7f55 	undefined instruction 0xffff7f55
d0030c80:	00115575 	andseq	r5, r1, r5, ror r5
	...
d0030c94:	aa2a0000 	bge	d0ab0c9c <bss_end+0xa7b6cc>
d0030c98:	aaaaaaaa 	bge	ceadb748 <_start-0x15448c8>
d0030c9c:	aaaaaaaa 	bge	ceadb74c <_start-0x15448c4>
d0030ca0:	eeeeeeaa 	cdp	14, 14, cr14, cr14, cr10, {5}
d0030ca4:	aaaaeaea 	bge	ceaeb854 <_start-0x15347bc>
d0030ca8:	aaaaeeae 	bge	ceaec768 <_start-0x15338a8>
d0030cac:	aaaaaaaa 	bge	ceadb75c <_start-0x15448b4>
d0030cb0:	20aaaaaa 	adccs	sl, sl, sl, lsr #21
d0030cb4:	02000000 	andeq	r0, r0, #0
d0030cb8:	aaaaaa22 	bge	ceadb548 <_start-0x1544ac8>
d0030cbc:	aaaaaaaa 	bge	ceadb76c <_start-0x15448a4>
d0030cc0:	aaaaaaaa 	bge	ceadb770 <_start-0x15448a0>
d0030cc4:	aaaaaaaa 	bge	ceadb774 <_start-0x154489c>
d0030cc8:	aaaaaaaa 	bge	ceadb778 <_start-0x1544898>
d0030ccc:	20aaaaaa 	adccs	sl, sl, sl, lsr #21
	...
d0030ce0:	ff050000 	undefined instruction 0xff050000
d0030ce4:	ffffffff 	undefined instruction 0xffffffff
d0030ce8:	ffffffff 	undefined instruction 0xffffffff
d0030cec:	ffffffff 	undefined instruction 0xffffffff
d0030cf0:	fffffdff 	undefined instruction 0xfffffdff
d0030cf4:	4444fdff 	strbmi	pc, [r4], #-3583	; 0xdff
d0030cf8:	45440044 	strbmi	r0, [r4, #-68]	; 0x44
d0030cfc:	000000d0 	ldrdeq	r0, [r0], r0
	...
d0030d10:	dd554444 	cfldrdle	mvd4, [r5, #-272]	; 0xfffffef0
d0030d14:	d4dddddd 	ldrble	sp, [sp], #3549	; 0xddd
	...
d0030d2c:	ababaa88 	blge	ceb1b754 <_start-0x15048bc>
d0030d30:	aaaaaaaa 	bge	ceadb7e0 <_start-0x1544830>
d0030d34:	bbabbbab 	bllt	ceb1fbe8 <_start-0x1500428>
d0030d38:	bbbbfbbb 	bllt	cef2fc2c <_start-0x10f03e4>
d0030d3c:	fbbbabaa 	blx	cef1bbee <_start-0x1104422>
d0030d40:	aaaaaaaa 	bge	ceadb7f0 <_start-0x1544820>
d0030d44:	a8aaaaaa 	stmiage	sl!, {r1, r3, r5, r7, r9, fp, sp, pc}
d0030d48:	808088a8 	addhi	r8, r0, r8, lsr #17
d0030d4c:	88888888 	stmhi	r8, {r3, r7, fp, pc}
d0030d50:	a8a8aa88 	stmiage	r8!, {r3, r7, r9, fp, sp, pc}
d0030d54:	8888a888 	stmhi	r8, {r3, r7, fp, sp, pc}
d0030d58:	aaaa8888 	bge	cead2f80 <_start-0x154d090>
d0030d5c:	aaaaaaaa 	bge	ceadb80c <_start-0x1544804>
d0030d60:	aaaaaaaa 	bge	ceadb810 <_start-0x1544800>
d0030d64:	88a8aa88 	stmiahi	r8!, {r3, r7, r9, fp, sp, pc}
d0030d68:	00008080 	andeq	r8, r0, r0, lsl #1
	...
d0030d78:	ffffff17 	undefined instruction 0xffffff17
d0030d7c:	ffffffff 	undefined instruction 0xffffffff
d0030d80:	ffffffff 	undefined instruction 0xffffffff
d0030d84:	ffffffff 	undefined instruction 0xffffffff
d0030d88:	ffffffff 	undefined instruction 0xffffffff
d0030d8c:	01515155 	cmpeq	r1, r5, asr r1
d0030d90:	00505155 	subseq	r5, r0, r5, asr r1
	...
d0030d9c:	00000001 	andeq	r0, r0, r1
d0030da0:	00000000 	andeq	r0, r0, r0
d0030da4:	55110100 	ldrpl	r0, [r1, #-256]	; 0x100
d0030da8:	f7ff7755 	undefined instruction 0xf7ff7755
d0030dac:	01005155 	tsteq	r0, r5, asr r1
d0030db0:	00001011 	andeq	r1, r0, r1, lsl r0
	...
d0030dc0:	aa020000 	bge	d00b0dc8 <bss_end+0x7b7f8>
d0030dc4:	aaaaaaaa 	bge	ceadb874 <_start-0x154479c>
d0030dc8:	aaaaaaaa 	bge	ceadb878 <_start-0x1544798>
d0030dcc:	eeaeaeaa 	cdp	14, 10, cr10, cr14, cr10, {5}
d0030dd0:	aaaaeeee 	bge	ceaec990 <_start-0x1533680>
d0030dd4:	aaaaeaee 	bge	ceaeb994 <_start-0x153467c>
d0030dd8:	aaaaaaaa 	bge	ceadb888 <_start-0x1544788>
d0030ddc:	80aaaaaa 	adchi	sl, sl, sl, lsr #21
d0030de0:	02020000 	andeq	r0, r2, #0
d0030de4:	aaaaa202 	bge	cead95f4 <_start-0x1546a1c>
d0030de8:	aaa2aaaa 	bge	ce8db898 <_start-0x1744778>
d0030dec:	aaaaa2a2 	bge	cead987c <_start-0x1546794>
d0030df0:	aaaaaaaa 	bge	ceadb8a0 <_start-0x1544770>
d0030df4:	aaaaaaaa 	bge	ceadb8a4 <_start-0x154476c>
d0030df8:	aaaaaaaa 	bge	ceadb8a8 <_start-0x1544768>
d0030dfc:	0000a2aa 	andeq	sl, r0, sl, lsr #5
	...
d0030e0c:	df050000 	svcle	0x00050000
d0030e10:	ddffffff 	ldclle	15, cr15, [pc, #1020]!	; 0x3fc
d0030e14:	ffffffdf 	undefined instruction 0xffffffdf
d0030e18:	ffffffff 	undefined instruction 0xffffffff
d0030e1c:	ffffffff 	undefined instruction 0xffffffff
d0030e20:	4544ddff 	strbmi	sp, [r4, #-3583]	; 0xdff
d0030e24:	45440001 	strbmi	r0, [r4, #-1]
d0030e28:	000000d8 	ldrdeq	r0, [r0], -r8
	...
d0030e3c:	dd554404 	cfldrdle	mvd4, [r5, #-16]
d0030e40:	44dddddf 	ldrbmi	sp, [sp], #3551	; 0xddf
d0030e44:	44dd0500 	ldrbmi	r0, [sp], #1280	; 0x500
	...
d0030e58:	aaaa8a08 	bge	cead3680 <_start-0x154c990>
d0030e5c:	aaaaaaba 	bge	ceadb94c <_start-0x15446c4>
d0030e60:	bbbaaaaa 	bllt	ceedb910 <_start-0x1144700>
d0030e64:	bbbbbbbb 	bllt	cef1fd58 <_start-0x11002b8>
d0030e68:	babfbbbb 	blt	cf01fd5c <_start-0x10002b4>
d0030e6c:	aaaaaaba 	bge	ceadb95c <_start-0x15446b4>
d0030e70:	baaaaaaa 	blt	ceadb920 <_start-0x15446f0>
d0030e74:	080888aa 	stmdaeq	r8, {r1, r3, r5, r7, fp, pc}
d0030e78:	88888888 	stmhi	r8, {r3, r7, fp, pc}
d0030e7c:	88aa8a88 	stmiahi	sl!, {r3, r7, r9, fp, pc}
d0030e80:	8a8888aa 	bhi	ce253130 <_start-0x1dccee0>
d0030e84:	aa8a8a8a 	bge	ce2d38b4 <_start-0x1d4c75c>
d0030e88:	aaaaaaaa 	bge	ceadb938 <_start-0x15446d8>
d0030e8c:	8aaaaaaa 	bhi	ceadb93c <_start-0x15446d4>
d0030e90:	a8aaaaaa 	stmiage	sl!, {r1, r3, r5, r7, r9, fp, sp, pc}
d0030e94:	00000088 	andeq	r0, r0, r8, lsl #1
	...
d0030ea4:	ffffff07 	undefined instruction 0xffffff07
d0030ea8:	ffffffff 	undefined instruction 0xffffffff
d0030eac:	ffffffff 	undefined instruction 0xffffffff
d0030eb0:	ffffffff 	undefined instruction 0xffffffff
d0030eb4:	f5ffffff 	undefined instruction 0xf5ffffff
d0030eb8:	01110515 	tsteq	r1, r5, lsl r5
d0030ebc:	10711515 	rsbsne	r1, r1, r5, lsl r5
	...
d0030ec8:	00100000 	andseq	r0, r0, r0
d0030ecc:	00000000 	andeq	r0, r0, r0
d0030ed0:	15110000 	ldrne	r0, [r1]
d0030ed4:	ffff5755 	undefined instruction 0xffff5755
d0030ed8:	17005055 	smlsdne	r0, r5, r0, r5
d0030edc:	001075ff 	ldrsheq	r7, [r0], -pc
	...
d0030eec:	2a000000 	bcs	d0030ef4 <gImage_pic+0xe528>
d0030ef0:	aaaaaaaa 	bge	ceadb9a0 <_start-0x1544670>
d0030ef4:	aaaaaaaa 	bge	ceadb9a4 <_start-0x154466c>
d0030ef8:	aaaaaaaa 	bge	ceadb9a8 <_start-0x1544668>
d0030efc:	eeeeeeea 	cdp	14, 14, cr14, cr14, cr10, {7}
d0030f00:	aaaaeaea 	bge	ceaebab0 <_start-0x1534560>
d0030f04:	aaaaaaaa 	bge	ceadb9b4 <_start-0x154465c>
d0030f08:	a0aaaaaa 	adcge	sl, sl, sl, lsr #21
d0030f0c:	00000000 	andeq	r0, r0, r0
d0030f10:	aa220200 	bge	d08b1718 <bss_end+0x87c148>
d0030f14:	aaaaaaaa 	bge	ceadb9c4 <_start-0x154464c>
d0030f18:	aa2aaaaa 	bge	d0adb9c8 <bss_end+0xaa63f8>
d0030f1c:	aaaaaaaa 	bge	ceadb9cc <_start-0x1544644>
d0030f20:	aaaaaaaa 	bge	ceadb9d0 <_start-0x1544640>
d0030f24:	aaaaaaaa 	bge	ceadb9d4 <_start-0x154463c>
d0030f28:	0020aaaa 	eoreq	sl, r0, sl, lsr #21
	...
d0030f38:	ff050000 	undefined instruction 0xff050000
d0030f3c:	fdffffff 	ldc2l	15, cr15, [pc, #1020]!	; 0x3fc
d0030f40:	fffdffff 	undefined instruction 0xfffdffff
d0030f44:	ffffffff 	undefined instruction 0xffffffff
d0030f48:	ffffffff 	undefined instruction 0xffffffff
d0030f4c:	1040dcfd 	strdne	sp, [r0], #-205	; 0xffffff33
d0030f50:	45440004 	strbmi	r0, [r4, #-4]
d0030f54:	000040e4 	andeq	r4, r0, r4, ror #1
	...
d0030f68:	dd544400 	cfldrdle	mvd4, [r4]
d0030f6c:	40d4dddd 	ldrsbmi	sp, [r4], #221	; 0xdd
d0030f70:	fdff4500 	ldc2l	5, cr4, [pc]
d0030f74:	000000c0 	andeq	r0, r0, r0, asr #1
	...
d0030f80:	00000080 	andeq	r0, r0, r0, lsl #1
d0030f84:	abaa8a80 	blge	cead398c <_start-0x154c684>
d0030f88:	abaabbab 	blge	ceadfe3c <_start-0x15401d4>
d0030f8c:	bbabaabb 	bllt	ceb1ba80 <_start-0x1504590>
d0030f90:	bbbbbbbb 	bllt	cef1fe84 <_start-0x110018c>
d0030f94:	bbfbfbfb 	bllt	cff2ff88 <_start-0xf0088>
d0030f98:	a8aaaaaa 	stmiage	sl!, {r1, r3, r5, r7, r9, fp, sp, pc}
d0030f9c:	aaaaaaa8 	bge	ceadba44 <_start-0x15445cc>
d0030fa0:	808088a8 	addhi	r8, r0, r8, lsr #17
d0030fa4:	88888080 	stmhi	r8, {r7, pc}
d0030fa8:	a8888888 	stmge	r8, {r3, r7, fp, pc}
d0030fac:	88888888 	stmhi	r8, {r3, r7, fp, pc}
d0030fb0:	aaaa8888 	bge	cead31d8 <_start-0x154ce38>
d0030fb4:	aaaaaaaa 	bge	ceadba64 <_start-0x15445ac>
d0030fb8:	88a8aaaa 	stmiahi	r8!, {r1, r3, r5, r7, r9, fp, sp, pc}
d0030fbc:	aaaaabaa 	bge	ceadbe6c <_start-0x15441a4>
d0030fc0:	00800088 	addeq	r0, r0, r8, lsl #1
	...
d0030fd0:	ffffff07 	undefined instruction 0xffffff07
d0030fd4:	ffffffff 	undefined instruction 0xffffffff
d0030fd8:	ffffffff 	undefined instruction 0xffffffff
d0030fdc:	ffffffff 	undefined instruction 0xffffffff
d0030fe0:	d5ffffff 	ldrble	pc, [pc, #4095]!	; d0031fe7 <gImage_pic+0xf61b>
d0030fe4:	05010111 	streq	r0, [r1, #-273]	; 0x111
d0030fe8:	40f15751 	rscsmi	r5, r1, r1, asr r7
	...
d0030ffc:	11010100 	tstne	r1, r0, lsl #2
d0031000:	f7ff5755 	undefined instruction 0xf7ff5755
d0031004:	15000055 	strne	r0, [r0, #-85]	; 0x55
d0031008:	0051ff7f 	subseq	pc, r1, pc, ror pc
	...
d0031018:	2a000000 	bcs	d0031020 <gImage_pic+0xe654>
d003101c:	aaaaaaaa 	bge	ceadbacc <_start-0x1544544>
d0031020:	aaaeaeaa 	bge	cebdcad0 <_start-0x1443540>
d0031024:	aeaeaeaa 	cdpge	14, 10, cr10, cr14, cr10, {5}
d0031028:	eeeeeeae 	cdp	14, 14, cr14, cr14, cr14, {5}
d003102c:	aaaaeeee 	bge	ceaecbec <_start-0x1533424>
d0031030:	aaaaaaaa 	bge	ceadbae0 <_start-0x1544530>
d0031034:	00aaeaaa 	adceq	lr, sl, sl, lsr #21
d0031038:	02000000 	andeq	r0, r0, #0
d003103c:	22020202 	andcs	r0, r2, #536870912	; 0x20000000
d0031040:	a2aaa2a2 	adcge	sl, sl, #536870922	; 0x2000000a
d0031044:	aaa2aaa2 	bge	ce8dbad4 <_start-0x174453c>
d0031048:	aaaaaaaa 	bge	ceadbaf8 <_start-0x1544518>
d003104c:	aaaaaaaa 	bge	ceadbafc <_start-0x1544514>
d0031050:	aaaa22aa 	bge	ceab9b00 <_start-0x1566510>
d0031054:	00a0aaaa 	adceq	sl, r0, sl, lsr #21
	...
d0031064:	df050000 	svcle	0x00050000
d0031068:	ffffffff 	undefined instruction 0xffffffff
d003106c:	ffffffff 	undefined instruction 0xffffffff
d0031070:	ffffffff 	undefined instruction 0xffffffff
d0031074:	ffffffff 	undefined instruction 0xffffffff
d0031078:	400054fd 	strdmi	r5, [r0], -sp
d003107c:	45040040 	strmi	r0, [r4, #-64]	; 0x40
d0031080:	000040dd 	ldrdeq	r4, [r0], -sp
	...
d0031094:	5d454404 	cfstrdpl	mvd4, [r5, #-16]
d0031098:	00c4dddf 	ldrdeq	sp, [r4], #223	; 0xdf
d003109c:	ff5f0500 	undefined instruction 0xff5f0500
d00310a0:	000000dc 	ldrdeq	r0, [r0], -ip
	...
d00310b0:	aaaa8a00 	bge	cead38b8 <_start-0x154c758>
d00310b4:	bbbbbbba 	bllt	cef1ffa4 <_start-0x110006c>
d00310b8:	bbbabbbb 	bllt	ceedffac <_start-0x1140064>
d00310bc:	bfbbbbbb 	svclt	0x00bbbbbb
d00310c0:	babbbbff 	blt	cef200c4 <_start-0x10fff4c>
d00310c4:	8aaaaaaa 	bhi	ceadbb74 <_start-0x154449c>
d00310c8:	aaaaaa8a 	bge	ceadbaf8 <_start-0x1544518>
d00310cc:	008888a8 	addeq	r8, r8, r8, lsr #17
d00310d0:	88880800 	stmhi	r8, {fp}
d00310d4:	88a88a88 	stmiahi	r8!, {r3, r7, r9, fp, pc}
d00310d8:	8a8a8888 	bhi	ce2d3300 <_start-0x1d4cd10>
d00310dc:	aaaa8a88 	bge	cead3b04 <_start-0x154c50c>
d00310e0:	aaaaaaaa 	bge	ceadbb90 <_start-0x1544480>
d00310e4:	8888aaaa 	stmhi	r8, {r1, r3, r5, r7, r9, fp, sp, pc}
d00310e8:	aaaaaaaa 	bge	ceadbb98 <_start-0x1544478>
d00310ec:	000080a8 	andeq	r8, r0, r8, lsr #1
	...
d00310fc:	ffffff05 	undefined instruction 0xffffff05
d0031100:	ffffffff 	undefined instruction 0xffffffff
d0031104:	ffffffff 	undefined instruction 0xffffffff
d0031108:	ffffffff 	undefined instruction 0xffffffff
d003110c:	50fdffff 	ldrshtpl	pc, [sp], #255	; 0xff
d0031110:	01000101 	tsteq	r0, r1, lsl #2
d0031114:	50f51511 	rscspl	r1, r5, r1, lsl r5
	...
d0031128:	11110000 	tstne	r1, r0
d003112c:	ff7f5515 	undefined instruction 0xff7f5515
d0031130:	01000050 	qaddeq	r0, r0, r0
d0031134:	10f57f15 	rscsne	r7, r5, r5, lsl pc
	...
d0031144:	2a000000 	bcs	d003114c <gImage_pic+0xe780>
d0031148:	aaaaaaaa 	bge	ceadbbf8 <_start-0x1544418>
d003114c:	eaaaaaaa 	b	ceadbbfc <_start-0x1544414>
d0031150:	eaaaaaea 	b	ceadbd00 <_start-0x1544310>
d0031154:	eaeeeeee 	b	cfbecd14 <_start-0x4332fc>
d0031158:	2aaaeaee 	bcs	ceaebd18 <_start-0x15342f8>
d003115c:	aaaaaaaa 	bge	ceadbc0c <_start-0x1544404>
d0031160:	00aaaaaa 	adceq	sl, sl, sl, lsr #21
d0031164:	00000000 	andeq	r0, r0, r0
d0031168:	22000000 	andcs	r0, r0, #0
d003116c:	aa2a2aaa 	bge	d0abbc1c <bss_end+0xa8664c>
d0031170:	aaaaaaaa 	bge	ceadbc20 <_start-0x15443f0>
d0031174:	aaaaaaaa 	bge	ceadbc24 <_start-0x15443ec>
d0031178:	aaaaaaaa 	bge	ceadbc28 <_start-0x15443e8>
d003117c:	aaaa2220 	bge	ceab9a04 <_start-0x156660c>
d0031180:	00aaaaaa 	adceq	sl, sl, sl, lsr #21
	...
d0031190:	df050000 	svcle	0x00050000
d0031194:	fffffdff 	undefined instruction 0xfffffdff
d0031198:	ffffffff 	undefined instruction 0xffffffff
d003119c:	ffffffff 	undefined instruction 0xffffffff
d00311a0:	ffffffff 	undefined instruction 0xffffffff
d00311a4:	040400f4 	streq	r0, [r4], #-244	; 0xf4
d00311a8:	55040040 	strpl	r0, [r4, #-64]	; 0x40
d00311ac:	000040f4 	strdeq	r4, [r0], -r4
	...
d00311c0:	55440000 	strbpl	r0, [r4]
d00311c4:	00c0dddd 	ldrdeq	sp, [r0], #221	; 0xdd
d00311c8:	5d040000 	stcpl	0, cr0, [r4]
d00311cc:	0000c0fd 	strdeq	ip, [r0], -sp
	...
d00311dc:	aaab8a00 	bge	ceb139e4 <_start-0x150c62c>
d00311e0:	bbababaa 	bllt	ceb1c090 <_start-0x1503f80>
d00311e4:	bbbbbbbb 	bllt	cef200d8 <_start-0x10fff38>
d00311e8:	fbbbbbab 	blx	cef2009e <_start-0x10fff72>
d00311ec:	aafbbbfb 	bge	cff201e0 <_start-0xffe30>
d00311f0:	a8aa88a8 	stmiage	sl!, {r3, r5, r7, fp, pc}
d00311f4:	aaabaa8a 	bge	ceb1bc24 <_start-0x15043ec>
d00311f8:	008088aa 	addeq	r8, r0, sl, lsr #17
d00311fc:	88808000 	stmhi	r0, {pc}
d0031200:	88888888 	stmhi	r8, {r3, r7, fp, pc}
d0031204:	88888888 	stmhi	r8, {r3, r7, fp, pc}
d0031208:	aaaaa888 	bge	ceadb430 <_start-0x1544be0>
d003120c:	aaaaaaaa 	bge	ceadbcbc <_start-0x1544354>
d0031210:	8888a8aa 	stmhi	r8, {r1, r3, r5, r7, fp, sp, pc}
d0031214:	aaaaaa88 	bge	ceadbc3c <_start-0x15443d4>
d0031218:	008088aa 	addeq	r8, r0, sl, lsr #17
	...
d0031228:	ffff5701 	undefined instruction 0xffff5701
d003122c:	ffffffff 	undefined instruction 0xffffffff
d0031230:	ffffffff 	undefined instruction 0xffffffff
d0031234:	ffffffff 	undefined instruction 0xffffffff
d0031238:	01f5ffff 	ldrsheq	pc, [r5, #255]!	; 0xff
d003123c:	11405000 	cmpne	r0, r0
d0031240:	50f55711 	rscspl	r5, r5, r1, lsl r7
	...
d0031254:	11110100 	tstne	r1, r0, lsl #2
d0031258:	ff775511 	undefined instruction 0xff775511
d003125c:	00000040 	andeq	r0, r0, r0, asr #32
d0031260:	517f5701 	cmnpl	pc, r1, lsl #14
	...
d0031270:	2a000000 	bcs	d0031278 <gImage_pic+0xe8ac>
d0031274:	aaaaaaaa 	bge	ceadbd24 <_start-0x15442ec>
d0031278:	aeaeaaaa 	vfmage.f32	s20, s29, s21
d003127c:	eeaeeeee 	cdp	14, 10, cr14, cr14, cr14, {7}
d0031280:	eaeeeeee 	b	cfbece40 <_start-0x4331d0>
d0031284:	aaa2aaee 	bge	ce8dbe44 <_start-0x17441cc>
d0031288:	aaaaaaaa 	bge	ceadbd38 <_start-0x15442d8>
d003128c:	80aaaaaa 	adchi	sl, sl, sl, lsr #21
d0031290:	00000000 	andeq	r0, r0, r0
d0031294:	02020000 	andeq	r0, r2, #0
d0031298:	a2a2aa22 	adcge	sl, r2, #139264	; 0x22000
d003129c:	aaaaaa2a 	bge	ceadbb4c <_start-0x15444c4>
d00312a0:	aaaaaaaa 	bge	ceadbd50 <_start-0x15442c0>
d00312a4:	aaaaaaaa 	bge	ceadbd54 <_start-0x15442bc>
d00312a8:	aa020202 	bge	d00b1ab8 <bss_end+0x7c4e8>
d00312ac:	aaaaaaaa 	bge	ceadbd5c <_start-0x15442b4>
	...
d00312bc:	df050000 	svcle	0x00050000
d00312c0:	ffdfdfff 	undefined instruction 0xffdfdfff
d00312c4:	ffffffff 	undefined instruction 0xffffffff
d00312c8:	ffffffff 	undefined instruction 0xffffffff
d00312cc:	ffffffff 	undefined instruction 0xffffffff
d00312d0:	040000f0 	streq	r0, [r0], #-240	; 0xf0
d00312d4:	4f040000 	svcmi	0x00040000
d00312d8:	000044d4 	ldrdeq	r4, [r0], -r4
	...
d00312ec:	55040400 	strpl	r0, [r4, #-1024]	; 0x400
d00312f0:	0040dddd 	ldrdeq	sp, [r0], #-221	; 0xffffff23
d00312f4:	05000000 	streq	r0, [r0]
d00312f8:	0040dd5d 	subeq	sp, r0, sp, asr sp
	...
d0031308:	aaab0a00 	bge	ceaf3b10 <_start-0x152c500>
d003130c:	bbaaaaaa 	bllt	ceadbdbc <_start-0x1544254>
d0031310:	bbbbbbbb 	bllt	cef20204 <_start-0x10ffe0c>
d0031314:	bbbbbbbb 	bllt	cef20208 <_start-0x10ffe08>
d0031318:	aababfbf 	bge	ceee121c <_start-0x113edf4>
d003131c:	a8aa8aaa 	stmiage	sl!, {r1, r3, r5, r7, r9, fp, pc}
d0031320:	aaabaaaa 	bge	ceb1bdd0 <_start-0x1504240>
d0031324:	000088aa 	andeq	r8, r0, sl, lsr #17
d0031328:	80080000 	andhi	r0, r8, r0
d003132c:	88888808 	stmhi	r8, {r3, fp, pc}
d0031330:	88888a88 	stmhi	r8, {r3, r7, r9, fp, pc}
d0031334:	aaaa8aaa 	bge	cead3de4 <_start-0x154c22c>
d0031338:	aaaaaaaa 	bge	ceadbde8 <_start-0x1544228>
d003133c:	8888a8aa 	stmhi	r8, {r1, r3, r5, r7, fp, sp, pc}
d0031340:	aaaa8a88 	bge	cead3d68 <_start-0x154c2a8>
d0031344:	8088aaaa 	addhi	sl, r8, sl, lsr #21
	...
d0031354:	ffff5701 	undefined instruction 0xffff5701
d0031358:	ffffffff 	undefined instruction 0xffffffff
d003135c:	ffffffff 	undefined instruction 0xffffffff
d0031360:	ffffffff 	undefined instruction 0xffffffff
d0031364:	00d4ffff 	ldrsheq	pc, [r4], #255	; 0xff
d0031368:	01101000 	tsteq	r0, r0
d003136c:	50d15715 	sbcspl	r5, r1, r5, lsl r7
	...
d0031380:	11110000 	tstne	r1, r0
d0031384:	7f575511 	svcvc	0x00575511
d0031388:	00000000 	andeq	r0, r0, r0
d003138c:	75551100 	ldrbvc	r1, [r5, #-256]	; 0x100
d0031390:	00000051 	andeq	r0, r0, r1, asr r0
	...
d003139c:	0a000000 	beq	d00313a4 <gImage_pic+0xe9d8>
d00313a0:	aaaaaaaa 	bge	ceadbe50 <_start-0x15441c0>
d00313a4:	eeaaaaaa 	vfma.f32	s20, s21, s21
d00313a8:	eeeeeeee 	cdp	14, 14, cr14, cr14, cr14, {7}
d00313ac:	eaeeeeee 	b	cfbecf6c <_start-0x4330a4>
d00313b0:	0a8aaaaa 	beq	ce2dbe60 <_start-0x1d441b0>
d00313b4:	aa22aaaa 	bge	d08dbe64 <bss_end+0x8a6894>
d00313b8:	a0aaaaaa 	adcge	sl, sl, sl, lsr #21
	...
d00313c4:	2a2a2200 	bcs	d0ab9bcc <bss_end+0xa845fc>
d00313c8:	aaaaaa2a 	bge	ceadbc78 <_start-0x1544398>
d00313cc:	aaaaaaaa 	bge	ceadbe7c <_start-0x1544194>
d00313d0:	a8aaaaaa 	stmiage	sl!, {r1, r3, r5, r7, r9, fp, sp, pc}
d00313d4:	22200000 	eorcs	r0, r0, #0
d00313d8:	aaaaaaaa 	bge	ceadbe88 <_start-0x1544188>
d00313dc:	0000a0aa 	andeq	sl, r0, sl, lsr #1
	...
d00313e8:	d5010000 	strle	r0, [r1]
d00313ec:	ddfdddff 	ldclle	13, cr13, [sp, #1020]!	; 0x3fc
d00313f0:	ffffffff 	undefined instruction 0xffffffff
d00313f4:	ffffffff 	undefined instruction 0xffffffff
d00313f8:	dffdffff 	svcle	0x00fdffff
d00313fc:	440000d0 	strmi	r0, [r0], #-208	; 0xd0
d0031400:	1f400000 	svcne	0x00400000
d0031404:	000050dc 	ldrdeq	r5, [r0], -ip
	...
d0031418:	55040000 	strpl	r0, [r4]
d003141c:	00c0dddd 	ldrdeq	sp, [r0], #221	; 0xdd
d0031420:	00000000 	andeq	r0, r0, r0
d0031424:	40d4d504 	sbcsmi	sp, r4, r4, lsl #10
	...
d0031430:	00000080 	andeq	r0, r0, r0, lsl #1
d0031434:	aaab8a80 	bge	ceb13e3c <_start-0x150c1d4>
d0031438:	abaaaaaa 	blge	ceadbee8 <_start-0x1544128>
d003143c:	fbfbbbab 	blx	cff202f2 <_start-0xffd1e>
d0031440:	bbbbbbbb 	bllt	cef20334 <_start-0x10ffcdc>
d0031444:	a8abfafb 	stmiage	fp!, {r0, r1, r3, r4, r5, r6, r7, r9, fp, ip, sp, lr, pc}
d0031448:	a8888aa0 	stmge	r8, {r5, r7, r9, fp, pc}
d003144c:	aaaaaa88 	bge	ceadbe74 <_start-0x154419c>
d0031450:	808088aa 	addhi	r8, r0, sl, lsr #17
d0031454:	80800080 	addhi	r0, r0, r0, lsl #1
d0031458:	88888888 	stmhi	r8, {r3, r7, fp, pc}
d003145c:	88888888 	stmhi	r8, {r3, r7, fp, pc}
d0031460:	aaaa8888 	bge	cead3688 <_start-0x154c988>
d0031464:	aaaaaaaa 	bge	ceadbf14 <_start-0x15440fc>
d0031468:	8888a8aa 	stmhi	r8, {r1, r3, r5, r7, fp, sp, pc}
d003146c:	aa888888 	bge	ce253694 <_start-0x1dcc97c>
d0031470:	a8aaaaaa 	stmiage	sl!, {r1, r3, r5, r7, r9, fp, sp, pc}
d0031474:	00808088 	addeq	r8, r0, r8, lsl #1
	...
d0031480:	ffff5701 	undefined instruction 0xffff5701
d0031484:	ffffffff 	undefined instruction 0xffffffff
d0031488:	ffffffff 	undefined instruction 0xffffffff
d003148c:	ffffffff 	undefined instruction 0xffffffff
d0031490:	0010ffff 	ldrsheq	pc, [r0], -pc
d0031494:	00001100 	andeq	r1, r0, r0, lsl #2
d0031498:	10f15f55 	rscsne	r5, r1, r5, asr pc
	...
d00314ac:	11010100 	tstne	r1, r0, lsl #2
d00314b0:	ff575511 	undefined instruction 0xff575511
d00314b4:	00000040 	andeq	r0, r0, r0, asr #32
d00314b8:	55010000 	strpl	r0, [r1]
d00314bc:	00105555 	andseq	r5, r0, r5, asr r5
	...
d00314c8:	02000000 	andeq	r0, r0, #0
d00314cc:	aaaaaeaa 	bge	ceadcf7c <_start-0x1543094>
d00314d0:	aeaaaaaa 	vfmage.f32	s20, s21, s21
d00314d4:	aeeeeeee 	cdpge	14, 14, cr14, cr14, cr14, {7}
d00314d8:	aaaeeaae 	bge	cebebf98 <_start-0x1434078>
d00314dc:	aaaaaaaa 	bge	ceadbf8c <_start-0x1544084>
d00314e0:	aa2aaaaa 	bge	d0adbf90 <bss_end+0xaa69c0>
d00314e4:	a0aaaaae 	adcge	sl, sl, lr, lsr #21
d00314e8:	00000000 	andeq	r0, r0, r0
d00314ec:	02000000 	andeq	r0, r0, #0
d00314f0:	22220220 	eorcs	r0, r2, #2
d00314f4:	aaa2a222 	bge	ce8d9d84 <_start-0x174628c>
d00314f8:	aaaaaaaa 	bge	ceadbfa8 <_start-0x1544068>
d00314fc:	a2aaaaaa 	adcge	sl, sl, #696320	; 0xaa000
d0031500:	02000000 	andeq	r0, r0, #0
d0031504:	aaaaaa02 	bge	ceadbd14 <_start-0x15442fc>
d0031508:	a2aaaaaa 	adcge	sl, sl, #696320	; 0xaa000
d003150c:	000000a2 	andeq	r0, r0, r2, lsr #1
d0031510:	00000000 	andeq	r0, r0, r0
d0031514:	c5010000 	strgt	r0, [r1]
d0031518:	dddffdff 	ldclle	13, cr15, [pc, #1020]	; 0x3fc
d003151c:	ffffffdf 	undefined instruction 0xffffffdf
d0031520:	ffffffff 	undefined instruction 0xffffffff
d0031524:	fcffffff 	ldc2l	15, cr15, [pc], #1020	; 0x3fc
d0031528:	c0450000 	subgt	r0, r5, r0
d003152c:	1f040000 	svcne	0x00040000
d0031530:	000004cc 	andeq	r0, r0, ip, asr #9
	...
d0031544:	45040000 	strmi	r0, [r4]
d0031548:	00c0dd5d 	sbceq	sp, r0, sp, asr sp
d003154c:	00000000 	andeq	r0, r0, r0
d0031550:	55450400 	strbpl	r0, [r5, #-1024]	; 0x400
d0031554:	00004054 	andeq	r4, r0, r4, asr r0
	...
d0031560:	bbaa0a00 	bllt	ceab3d68 <_start-0x156c2a8>
d0031564:	aaaaaaaa 	bge	ceadc014 <_start-0x1543ffc>
d0031568:	bbbbbbba 	bllt	cef20458 <_start-0x10ffbb8>
d003156c:	bbbbbbbb 	bllt	cef20460 <_start-0x10ffbb0>
d0031570:	aaaabbbb 	bge	ceae0464 <_start-0x153fbac>
d0031574:	2aaa8a82 	bcs	cead3f84 <_start-0x154c08c>
d0031578:	aaaaaa88 	bge	ceadbfa0 <_start-0x1544070>
d003157c:	0000888a 	andeq	r8, r0, sl, lsl #17
d0031580:	08000000 	stmdaeq	r0, {}
d0031584:	88888808 	stmhi	r8, {r3, fp, pc}
d0031588:	88888888 	stmhi	r8, {r3, r7, fp, pc}
d003158c:	aaaa8a88 	bge	cead3fb4 <_start-0x154c05c>
d0031590:	aaaaaaaa 	bge	ceadc040 <_start-0x1543fd0>
d0031594:	8888a8aa 	stmhi	r8, {r1, r3, r5, r7, fp, sp, pc}
d0031598:	8a888888 	bhi	ce2537c0 <_start-0x1dcc850>
d003159c:	aaaaaaaa 	bge	ceadc04c <_start-0x1543fc4>
d00315a0:	00aaaaaa 	adceq	sl, sl, sl, lsr #21
	...
d00315ac:	ffff5501 	undefined instruction 0xffff5501
d00315b0:	ffffffff 	undefined instruction 0xffffffff
d00315b4:	ffffffff 	undefined instruction 0xffffffff
d00315b8:	ffffffff 	undefined instruction 0xffffffff
d00315bc:	0110f5ff 	ldrsheq	pc, [r0, -pc]
d00315c0:	01104111 	tsteq	r0, r1, lsl r1
d00315c4:	10c05f10 	sbcne	r5, r0, r0, lsl pc
	...
d00315dc:	7f551511 	svcvc	0x00551511
d00315e0:	00000040 	andeq	r0, r0, r0, asr #32
d00315e4:	01000000 	tsteq	r0, r0
d00315e8:	55755511 	ldrbpl	r5, [r5, #-1297]!	; 0x511
d00315ec:	00001111 	andeq	r1, r0, r1, lsl r1
d00315f0:	00000000 	andeq	r0, r0, r0
d00315f4:	02000000 	andeq	r0, r0, #0
d00315f8:	aaaaaaaa 	bge	ceadc0a8 <_start-0x1543f68>
d00315fc:	aaaaaaaa 	bge	ceadc0ac <_start-0x1543f64>
d0031600:	eaeaeeee 	b	cfaed1c0 <_start-0x532e50>
d0031604:	eaaaeeae 	b	ceaed0c4 <_start-0x1532f4c>
d0031608:	aa8aaaaa 	bge	ce2dc0b8 <_start-0x1d43f58>
d003160c:	aa2aaaaa 	bge	d0adc0bc <bss_end+0xaa6aec>
d0031610:	a0aaaaae 	adcge	sl, sl, lr, lsr #21
	...
d003161c:	20200000 	eorcs	r0, r0, r0
d0031620:	2a2a2a22 	bcs	d0abbeb0 <bss_end+0xa868e0>
d0031624:	aaaaaaaa 	bge	ceadc0d4 <_start-0x1543f3c>
d0031628:	aaaaaaaa 	bge	ceadc0d8 <_start-0x1543f38>
d003162c:	00000000 	andeq	r0, r0, r0
d0031630:	aa2a2200 	bge	d0ab9e38 <bss_end+0xa84868>
d0031634:	aaaaaaaa 	bge	ceadc0e4 <_start-0x1543f2c>
d0031638:	000000aa 	andeq	r0, r0, sl, lsr #1
d003163c:	00000000 	andeq	r0, r0, r0
d0031640:	55000000 	strpl	r0, [r0]
d0031644:	ddddfdff 	ldclle	13, cr15, [sp, #1020]	; 0x3fc
d0031648:	ffffffff 	undefined instruction 0xffffffff
d003164c:	ffffffff 	undefined instruction 0xffffffff
d0031650:	d0ffffff 	ldrshtle	pc, [pc, #255]	; d0031757 <gImage_pic+0xed8b>
d0031654:	00440400 	subeq	r0, r4, r0, lsl #8
d0031658:	5f000000 	svcpl	0x00000000
d003165c:	000000c0 	andeq	r0, r0, r0, asr #1
	...
d0031670:	44000000 	strmi	r0, [r0]
d0031674:	00c0dd55 	sbceq	sp, r0, r5, asr sp
d0031678:	00000000 	andeq	r0, r0, r0
d003167c:	45000000 	strmi	r0, [r0]
d0031680:	54d5dddd 	ldrbpl	sp, [r5], #3549	; 0xddd
d0031684:	00008000 	andeq	r8, r0, r0
d0031688:	80000000 	andhi	r0, r0, r0
d003168c:	bbaa8800 	bllt	cead3694 <_start-0x154c97c>
d0031690:	aaaaaaaa 	bge	ceadc140 <_start-0x1543ed0>
d0031694:	fbbbabab 	blx	cef1c54a <_start-0x1103ac6>
d0031698:	bbbbbbbb 	bllt	cef2058c <_start-0x10ffa84>
d003169c:	a8aabafb 	stmiage	sl!, {r0, r1, r3, r4, r5, r6, r7, r9, fp, ip, sp, pc}
d00316a0:	88aaaaaa 	stmiahi	sl!, {r1, r3, r5, r7, r9, fp, sp, pc}
d00316a4:	a8bba888 	ldmge	fp!, {r3, r7, fp, sp, pc}
d00316a8:	808080aa 	addhi	r8, r0, sl, lsr #1
d00316ac:	00000000 	andeq	r0, r0, r0
d00316b0:	88888800 	stmhi	r8, {fp, pc}
d00316b4:	88888888 	stmhi	r8, {r3, r7, fp, pc}
d00316b8:	a8a88888 	stmiage	r8!, {r3, r7, fp, pc}
d00316bc:	aaaaaaaa 	bge	ceadc16c <_start-0x1543ea4>
d00316c0:	8888a8aa 	stmhi	r8, {r1, r3, r5, r7, fp, sp, pc}
d00316c4:	88888888 	stmhi	r8, {r3, r7, fp, pc}
d00316c8:	aaaa8888 	bge	cead38f0 <_start-0x154c720>
d00316cc:	00aaaaaa 	adceq	sl, sl, sl, lsr #21
	...
d00316d8:	ffff5501 	undefined instruction 0xffff5501
d00316dc:	fffff7ff 	undefined instruction 0xfffff7ff
d00316e0:	ffffffff 	undefined instruction 0xffffffff
d00316e4:	ffffffff 	undefined instruction 0xffffffff
d00316e8:	110171ff 	strdne	r7, [r1, -pc]
d00316ec:	01000507 	tsteq	r0, r7, lsl #10
d00316f0:	10c47f01 	sbcne	r7, r4, r1, lsl #30
	...
d0031704:	01000000 	tsteq	r0, r0
d0031708:	77551101 	ldrbvc	r1, [r5, -r1, lsl #2]
d003170c:	000000d0 	ldrdeq	r0, [r0], r0
d0031710:	00000000 	andeq	r0, r0, r0
d0031714:	ff571100 	undefined instruction 0xff571100
d0031718:	0000f7f7 	strdeq	pc, [r0], -r7
d003171c:	00000000 	andeq	r0, r0, r0
d0031720:	02000000 	andeq	r0, r0, #0
d0031724:	aaaaaeaa 	bge	ceadd1d4 <_start-0x1542e3c>
d0031728:	aeaaaaaa 	vfmage.f32	s20, s21, s21
d003172c:	aaeeeeae 	bge	cfbed1ec <_start-0x432e24>
d0031730:	aaaaaaea 	bge	ceadc2e0 <_start-0x1543d30>
d0031734:	aaa2aaaa 	bge	ce8dc1e4 <_start-0x1743e2c>
d0031738:	aa0aa2aa 	bge	d02da1e8 <bss_end+0x2a4c18>
d003173c:	80aaa2aa 	adchi	sl, sl, sl, lsr #5
	...
d0031748:	22020200 	andcs	r0, r2, #0
d003174c:	aaaaa222 	bge	cead9fdc <_start-0x1546034>
d0031750:	aaaaaaaa 	bge	ceadc200 <_start-0x1543e10>
d0031754:	aaaaaaaa 	bge	ceadc204 <_start-0x1543e0c>
d0031758:	00000002 	andeq	r0, r0, r2
d003175c:	22020000 	andcs	r0, r2, #0
d0031760:	aaaaaaaa 	bge	ceadc210 <_start-0x1543e00>
d0031764:	000000aa 	andeq	r0, r0, sl, lsr #1
d0031768:	00000000 	andeq	r0, r0, r0
d003176c:	45000000 	strmi	r0, [r0]
d0031770:	ddffffff 	ldclle	15, cr15, [pc, #1020]!	; 0x3fc
d0031774:	ffffffff 	undefined instruction 0xffffffff
d0031778:	ffffffff 	undefined instruction 0xffffffff
d003177c:	c4dddddf 	ldrbgt	sp, [sp], #3551	; 0xddf
d0031780:	04780440 	ldrbteq	r0, [r8], #-1088	; 0x440
d0031784:	7f000040 	svcvc	0x00000040
d0031788:	000000c4 	andeq	r0, r0, r4, asr #1
	...
d003179c:	05000000 	streq	r0, [r0]
d00317a0:	00c0dd5d 	sbceq	sp, r0, sp, asr sp
	...
d00317ac:	dfdddd45 	svcle	0x00dddd45
	...
d00317b8:	bbaa0800 	bllt	ceab37c0 <_start-0x156c850>
d00317bc:	aaaaaaba 	bge	ceadc2ac <_start-0x1543d64>
d00317c0:	bfbbbbbb 	svclt	0x00bbbbbb
d00317c4:	aabbbbbb 	bge	cef206b8 <_start-0x10ff958>
d00317c8:	88a8aaaa 	stmiahi	r8!, {r1, r3, r5, r7, r9, fp, sp, pc}
d00317cc:	a8aaaa88 	stmiage	sl!, {r3, r7, r9, fp, sp, pc}
d00317d0:	8abb0a8a 	bhi	ceef4200 <_start-0x112be10>
d00317d4:	0008888a 	andeq	r8, r8, sl, lsl #17
d00317d8:	00000000 	andeq	r0, r0, r0
d00317dc:	08080008 	stmdaeq	r8, {r3}
d00317e0:	88888888 	stmhi	r8, {r3, r7, fp, pc}
d00317e4:	8aaa8888 	bhi	cead3a0c <_start-0x154c604>
d00317e8:	aaaaaa8a 	bge	ceadc218 <_start-0x1543df8>
d00317ec:	8888a8aa 	stmhi	r8, {r1, r3, r5, r7, fp, sp, pc}
d00317f0:	88888888 	stmhi	r8, {r3, r7, fp, pc}
d00317f4:	aa8a8888 	bge	ce2d3a1c <_start-0x1d4c5f4>
d00317f8:	00aaaaaa 	adceq	sl, sl, sl, lsr #21
	...
d0031804:	ff7f1500 	undefined instruction 0xff7f1500
d0031808:	ffffffff 	undefined instruction 0xffffffff
d003180c:	ffffffff 	undefined instruction 0xffffffff
d0031810:	57ffffff 	undefined instruction 0x57ffffff
d0031814:	110050ff 	strdne	r5, [r0, -pc]
d0031818:	00405551 	subeq	r5, r0, r1, asr r5
d003181c:	00c07f11 	sbceq	r7, r0, r1, lsl pc
	...
d0031834:	7f551100 	svcvc	0x00551100
d0031838:	000000d0 	ldrdeq	r0, [r0], r0
d003183c:	00000000 	andeq	r0, r0, r0
d0031840:	55110000 	ldrpl	r0, [r1]
d0031844:	00007f55 	andeq	r7, r0, r5, asr pc
	...
d0031850:	aaeaaaaa 	bge	cfadc300 <_start-0x543d10>
d0031854:	aaaaaaaa 	bge	ceadc304 <_start-0x1543d0c>
d0031858:	eaeaeeea 	b	cfaed408 <_start-0x532c08>
d003185c:	aaaaeaee 	bge	ceaec41c <_start-0x1533bf4>
d0031860:	2aaa82aa 	bcs	cead2310 <_start-0x154dd00>
d0031864:	8a2280aa 	bhi	d08d1b14 <bss_end+0x89c544>
d0031868:	002a8aae 	eoreq	r8, sl, lr, lsr #21
	...
d0031874:	00200000 	eoreq	r0, r0, r0
d0031878:	a2222222 	eorge	r2, r2, #536870914	; 0x20000002
d003187c:	aaaaaaaa 	bge	ceadc32c <_start-0x1543ce4>
d0031880:	aaaaaaaa 	bge	ceadc330 <_start-0x1543ce0>
d0031884:	00000020 	andeq	r0, r0, r0, lsr #32
d0031888:	00000000 	andeq	r0, r0, r0
d003188c:	aaaaaa22 	bge	ceadc11c <_start-0x1543ef4>
d0031890:	000000aa 	andeq	r0, r0, sl, lsr #1
d0031894:	00000000 	andeq	r0, r0, r0
d0031898:	04000000 	streq	r0, [r0]
d003189c:	ddffffff 	ldclle	15, cr15, [pc, #1020]!	; 0x3fc
d00318a0:	ffffffff 	undefined instruction 0xffffffff
d00318a4:	ffffffff 	undefined instruction 0xffffffff
d00318a8:	d4ddddfd 	ldrble	sp, [sp], #3581	; 0xdfd
d00318ac:	5d580004 	ldclpl	0, cr0, [r8, #-16]
d00318b0:	ff000000 	undefined instruction 0xff000000
d00318b4:	000000c0 	andeq	r0, r0, r0, asr #1
	...
d00318cc:	00c0dd55 	sbceq	sp, r0, r5, asr sp
	...
d00318d8:	55440400 	strbpl	r0, [r4, #-1024]	; 0x400
d00318dc:	00800000 	addeq	r0, r0, r0
d00318e0:	00000000 	andeq	r0, r0, r0
d00318e4:	abaa0000 	blge	ceab18ec <_start-0x156e724>
d00318e8:	abaabbbb 	blge	ceae07dc <_start-0x153f834>
d00318ec:	bbbbabbb 	bllt	cef1c7e0 <_start-0x1103830>
d00318f0:	babbbbbb 	blt	cef207e4 <_start-0x10ff82c>
d00318f4:	a8aaaaaa 	stmiage	sl!, {r1, r3, r5, r7, r9, fp, sp, pc}
d00318f8:	80aaaa2a 	adchi	sl, sl, sl, lsr #20
d00318fc:	88fb8a88 	ldmhi	fp!, {r3, r7, r9, fp, pc}^
d0031900:	80808088 	addhi	r8, r0, r8, lsl #1
d0031904:	00000000 	andeq	r0, r0, r0
d0031908:	80808080 	addhi	r8, r0, r0, lsl #1
d003190c:	88888888 	stmhi	r8, {r3, r7, fp, pc}
d0031910:	88a888a8 	stmiahi	r8!, {r3, r5, r7, fp, pc}
d0031914:	aaaaaaa8 	bge	ceadc3bc <_start-0x1543c54>
d0031918:	8888a8aa 	stmhi	r8, {r1, r3, r5, r7, fp, sp, pc}
d003191c:	88888888 	stmhi	r8, {r3, r7, fp, pc}
d0031920:	88888888 	stmhi	r8, {r3, r7, fp, pc}
d0031924:	00aaaaaa 	adceq	sl, sl, sl, lsr #21
	...
d0031930:	ff7f1100 	undefined instruction 0xff7f1100
d0031934:	ffffffff 	undefined instruction 0xffffffff
d0031938:	ffffffff 	undefined instruction 0xffffffff
d003193c:	f7ffffff 	undefined instruction 0xf7ffffff
d0031940:	01555175 	cmpeq	r5, r5, ror r1
d0031944:	00007f01 	andeq	r7, r0, r1, lsl #30
d0031948:	0000ff01 	andeq	pc, r0, r1, lsl #30
	...
d0031960:	57551100 	ldrbpl	r1, [r5, -r0, lsl #2]
d0031964:	000000d0 	ldrdeq	r0, [r0], r0
	...
d0031970:	00001101 	andeq	r1, r0, r1, lsl #2
d0031974:	00000000 	andeq	r0, r0, r0
d0031978:	02000000 	andeq	r0, r0, #0
d003197c:	aaaaaaaa 	bge	ceadc42c <_start-0x1543be4>
d0031980:	aaaaaaaa 	bge	ceadc430 <_start-0x1543be0>
d0031984:	aeaaaeae 	cdpge	14, 10, cr10, cr10, cr14, {5}
d0031988:	aaaaaaae 	bge	ceadc448 <_start-0x1543bc8>
d003198c:	aaaa2aaa 	bge	ceabc43c <_start-0x1563bd4>
d0031990:	0200a0aa 	andeq	sl, r0, #170	; 0xaa
d0031994:	00aa8aea 	adceq	r8, sl, sl, ror #21
	...
d00319a0:	02000000 	andeq	r0, r0, #0
d00319a4:	a2a22222 	adcge	r2, r2, #536870914	; 0x20000002
d00319a8:	aaaaaaaa 	bge	ceadc458 <_start-0x1543bb8>
d00319ac:	aaaaaaaa 	bge	ceadc45c <_start-0x1543bb4>
d00319b0:	000022a2 	andeq	r2, r0, r2, lsr #5
d00319b4:	00000000 	andeq	r0, r0, r0
d00319b8:	aaaa0200 	bge	ceab21c0 <_start-0x156de50>
d00319bc:	000000aa 	andeq	r0, r0, sl, lsr #1
d00319c0:	00000000 	andeq	r0, r0, r0
d00319c4:	04000000 	streq	r0, [r0]
d00319c8:	ffffff5f 	undefined instruction 0xffffff5f
d00319cc:	ffffffdf 	undefined instruction 0xffffffdf
d00319d0:	ffffffff 	undefined instruction 0xffffffff
d00319d4:	40dcd5fd 	ldrshmi	sp, [ip], #93	; 0x5d
d00319d8:	dc550c00 	mrrcle	12, 0, r0, r5, cr0
d00319dc:	fc010000 	stc2	0, cr0, [r1], {0}
	...
d00319f4:	04000000 	streq	r0, [r0]
d00319f8:	00c0dd45 	sbceq	sp, r0, r5, asr #26
	...
d0031a10:	abaa0800 	blge	ceab3a18 <_start-0x156c5f8>
d0031a14:	aaaabbbb 	bge	ceae0908 <_start-0x153f708>
d0031a18:	bbabbaaa 	bllt	ceb204c8 <_start-0x14ffb48>
d0031a1c:	aabbbbba 	bge	cef2090c <_start-0x10ff704>
d0031a20:	88aaaaaa 	stmiahi	sl!, {r1, r3, r5, r7, r9, fp, sp, pc}
d0031a24:	88aaaa28 	stmiahi	sl!, {r3, r5, r9, fp, sp, pc}
d0031a28:	88b88888 	ldmhi	r8!, {r3, r7, fp, pc}
d0031a2c:	00000888 	andeq	r0, r0, r8, lsl #17
d0031a30:	00000000 	andeq	r0, r0, r0
d0031a34:	08080800 	stmdaeq	r8, {fp}
d0031a38:	88888888 	stmhi	r8, {r3, r7, fp, pc}
d0031a3c:	8a888888 	bhi	ce253c64 <_start-0x1dcc3ac>
d0031a40:	aaaa8a88 	bge	cead4468 <_start-0x154bba8>
d0031a44:	8888aaaa 	stmhi	r8, {r1, r3, r5, r7, r9, fp, sp, pc}
d0031a48:	88888888 	stmhi	r8, {r3, r7, fp, pc}
d0031a4c:	88888888 	stmhi	r8, {r3, r7, fp, pc}
d0031a50:	008a8888 	addeq	r8, sl, r8, lsl #17
	...
d0031a5c:	ff7f1100 	undefined instruction 0xff7f1100
d0031a60:	ffffffff 	undefined instruction 0xffffffff
d0031a64:	ffffffff 	undefined instruction 0xffffffff
d0031a68:	7dffffff 	ldclvc	15, cr15, [pc, #1020]!	; 0x3fc
d0031a6c:	00001155 	andeq	r1, r0, r5, asr r1
d0031a70:	00007015 	andeq	r7, r0, r5, lsl r0
d0031a74:	0000fc01 	andeq	pc, r0, r1, lsl #24
	...
d0031a8c:	55150100 	ldrpl	r0, [r5, #-256]	; 0x100
d0031a90:	00000070 	andeq	r0, r0, r0, ror r0
	...
d0031aa8:	aaaaaa2a 	bge	ceadc358 <_start-0x1543cb8>
d0031aac:	aaaaaaaa 	bge	ceadc55c <_start-0x1543ab4>
d0031ab0:	aaaaaaaa 	bge	ceadc560 <_start-0x1543ab0>
d0031ab4:	aaaaaaaa 	bge	ceadc564 <_start-0x1543aac>
d0031ab8:	aa822aaa 	bge	ce0bc568 <_start-0x1f63aa8>
d0031abc:	0a00a0aa 	beq	d0059d6c <bss_end+0x2479c>
d0031ac0:	0020aaaa 	eoreq	sl, r0, sl, lsr #21
	...
d0031ad0:	22222020 	eorcs	r2, r2, #32
d0031ad4:	aaaa2a22 	bge	ceabc364 <_start-0x1563cac>
d0031ad8:	aaaaaaaa 	bge	ceadc588 <_start-0x1543a88>
d0031adc:	00202222 	eoreq	r2, r0, r2, lsr #4
d0031ae0:	00000000 	andeq	r0, r0, r0
d0031ae4:	20000000 	andcs	r0, r0, r0
d0031ae8:	00000022 	andeq	r0, r0, r2, lsr #32
	...
d0031af4:	ffffff5f 	undefined instruction 0xffffff5f
d0031af8:	fdffffff 	ldc2l	15, cr15, [pc, #1020]!	; 0x3fc
d0031afc:	ffffffff 	undefined instruction 0xffffffff
d0031b00:	40545cfd 	ldrshmi	r5, [r4], #-205	; 0xffffff33
d0031b04:	f4050040 	vst4.16	{d0-d3}, [r5], r0
d0031b08:	fc010000 	stc2	0, cr0, [r1], {0}
	...
d0031b24:	00d05d44 	sbcseq	r5, r0, r4, asr #26
	...
d0031b3c:	ab8a0000 	blge	ce2b1b44 <_start-0x1d6e4cc>
d0031b40:	abbbbbbb 	blge	cef20a34 <_start-0x10ff5dc>
d0031b44:	abaaabab 	blge	ceadc9f8 <_start-0x1543618>
d0031b48:	baababbb 	blt	ceb1ca3c <_start-0x15035d4>
d0031b4c:	80aaaaaa 	adchi	sl, sl, sl, lsr #21
d0031b50:	a8aaaa08 	stmiage	sl!, {r3, r9, fp, sp, pc}
d0031b54:	88ba8888 	ldmhi	sl!, {r3, r7, fp, pc}
d0031b58:	80808080 	addhi	r8, r0, r0, lsl #1
d0031b5c:	80800000 	addhi	r0, r0, r0
d0031b60:	80808000 	addhi	r8, r0, r0
d0031b64:	88888080 	stmhi	r8, {r7, pc}
d0031b68:	88888888 	stmhi	r8, {r3, r7, fp, pc}
d0031b6c:	aa8a8888 	bge	ce2d3d94 <_start-0x1d4c27c>
d0031b70:	8888a8aa 	stmhi	r8, {r1, r3, r5, r7, fp, sp, pc}
d0031b74:	88888888 	stmhi	r8, {r3, r7, fp, pc}
d0031b78:	88808888 	stmhi	r0, {r3, r7, fp, pc}
d0031b7c:	00888888 	addeq	r8, r8, r8, lsl #17
	...
d0031b88:	ff570100 	undefined instruction 0xff570100
d0031b8c:	ffffffff 	undefined instruction 0xffffffff
d0031b90:	ffffffff 	undefined instruction 0xffffffff
d0031b94:	51ffffff 	ldrshpl	pc, [pc, #255]	; d0031c9b <gImage_pic+0xf2cf>
d0031b98:	000010d1 	ldrdeq	r1, [r0], -r1
d0031b9c:	0040fd07 	subeq	pc, r0, r7, lsl #26
d0031ba0:	0000fc05 	andeq	pc, r0, r5, lsl #24
	...
d0031bb8:	57110100 	ldrpl	r0, [r1, -r0, lsl #2]
d0031bbc:	00000050 	andeq	r0, r0, r0, asr r0
	...
d0031bd4:	aaaeaa02 	bge	cebdc3e4 <_start-0x1443c2c>
d0031bd8:	aaaaaaae 	bge	ceadc698 <_start-0x1543978>
d0031bdc:	aaaeaaaa 	bge	cebdc68c <_start-0x1443984>
d0031be0:	aaaaaaaa 	bge	ceadc690 <_start-0x1543980>
d0031be4:	aa0200aa 	bge	d00b1e94 <bss_end+0x7c8c4>
d0031be8:	0a22aaaa 	beq	d08dc698 <bss_end+0x8a70c8>
d0031bec:	000022aa 	andeq	r2, r0, sl, lsr #5
	...
d0031bf8:	22000000 	andcs	r0, r0, #0
d0031bfc:	02020282 	andeq	r0, r2, #536870920	; 0x20000008
d0031c00:	a2a2aa22 	adcge	sl, r2, #139264	; 0x22000
d0031c04:	aaaaaaaa 	bge	ceadc6b4 <_start-0x154395c>
d0031c08:	222222a2 	eorcs	r2, r2, #536870922	; 0x2000000a
d0031c0c:	00000002 	andeq	r0, r0, r2
d0031c10:	02020000 	andeq	r0, r2, #0
d0031c14:	00000002 	andeq	r0, r0, r2
	...
d0031c20:	ffffff0f 	undefined instruction 0xffffff0f
d0031c24:	ffffffff 	undefined instruction 0xffffffff
d0031c28:	fdffffdf 	ldc2l	15, cr15, [pc, #892]!	; 0x37c
d0031c2c:	0040dcff 	strdeq	sp, [r0], #-207	; 0xffffff31
d0031c30:	fd050000 	stc2	0, cr0, [r5]
d0031c34:	1c000040 	stcne	0, cr0, [r0], {64}	; 0x40
	...
d0031c50:	00c05d04 	sbceq	r5, r0, r4, lsl #26
	...
d0031c68:	aa080000 	bge	d0231c70 <bss_end+0x1fc6a0>
d0031c6c:	baabbabb 	blt	ceb20760 <_start-0x14ff8b0>
d0031c70:	aabaaaba 	bge	ceedc760 <_start-0x11438b0>
d0031c74:	babababb 	blt	ceee0768 <_start-0x113f8a8>
d0031c78:	8888aaaa 	stmhi	r8, {r1, r3, r5, r7, r9, fp, sp, pc}
d0031c7c:	aaaaaa88 	bge	ceadc6a4 <_start-0x154396c>
d0031c80:	888a8888 	stmhi	sl, {r3, r7, fp, pc}
d0031c84:	00088808 	andeq	r8, r8, r8, lsl #16
d0031c88:	08080008 	stmdaeq	r8, {r3}
d0031c8c:	00088008 	andeq	r8, r8, r8
d0031c90:	88880808 	stmhi	r8, {r3, fp}
d0031c94:	888a8888 	stmhi	sl, {r3, r7, fp, pc}
d0031c98:	aa8a8888 	bge	ce2d3ec0 <_start-0x1d4c150>
d0031c9c:	8888a8aa 	stmhi	r8, {r1, r3, r5, r7, fp, sp, pc}
d0031ca0:	88888888 	stmhi	r8, {r3, r7, fp, pc}
d0031ca4:	88888888 	stmhi	r8, {r3, r7, fp, pc}
d0031ca8:	00888888 	addeq	r8, r8, r8, lsl #17
	...
d0031cb4:	ff170000 	undefined instruction 0xff170000
d0031cb8:	ffffffff 	undefined instruction 0xffffffff
d0031cbc:	ffffffff 	undefined instruction 0xffffffff
d0031cc0:	557fffff 	ldrbpl	pc, [pc, #-4095]!	; d0030cc9 <gImage_pic+0xe2fd>
d0031cc4:	00000014 	andeq	r0, r0, r4, lsl r0
d0031cc8:	00d0ff17 	sbcseq	pc, r0, r7, lsl pc
	...
d0031cdc:	00000001 	andeq	r0, r0, r1
d0031ce0:	00000000 	andeq	r0, r0, r0
d0031ce4:	55150000 	ldrpl	r0, [r5]
d0031ce8:	00000050 	andeq	r0, r0, r0, asr r0
	...
d0031d00:	aaaaaa00 	bge	ceadc508 <_start-0x1543b08>
d0031d04:	aaaaaaaa 	bge	ceadc7b4 <_start-0x154385c>
d0031d08:	aaaaaaaa 	bge	ceadc7b8 <_start-0x1543858>
d0031d0c:	a2aaaaaa 	adcge	sl, sl, #696320	; 0xaa000
d0031d10:	2a0080a0 	bcs	d0051f98 <bss_end+0x1c9c8>
d0031d14:	a2aaaaaa 	adcge	sl, sl, #696320	; 0xaa000
d0031d18:	0000002a 	andeq	r0, r0, sl, lsr #32
	...
d0031d24:	00080000 	andeq	r0, r8, r0
d0031d28:	a0202022 	eorge	r2, r0, r2, lsr #32
d0031d2c:	2222aaaa 	eorcs	sl, r2, #696320	; 0xaa000
d0031d30:	aaaaaa2a 	bge	ceadc5e0 <_start-0x1543a30>
d0031d34:	222a2220 	eorcs	r2, sl, #2
d0031d38:	00000020 	andeq	r0, r0, r0, lsr #32
d0031d3c:	00000000 	andeq	r0, r0, r0
d0031d40:	00000020 	andeq	r0, r0, r0, lsr #32
	...
d0031d4c:	ffffff05 	undefined instruction 0xffffff05
d0031d50:	fffdffff 	undefined instruction 0xfffdffff
d0031d54:	fffffffd 	undefined instruction 0xfffffffd
d0031d58:	00c0c5df 	ldrdeq	ip, [r0], #95	; 0x5f
d0031d5c:	ff070000 	undefined instruction 0xff070000
d0031d60:	000000c0 	andeq	r0, r0, r0, asr #1
	...
d0031d74:	000000c0 	andeq	r0, r0, r0, asr #1
d0031d78:	00000000 	andeq	r0, r0, r0
d0031d7c:	00c05d04 	sbceq	r5, r0, r4, lsl #26
	...
d0031d8c:	00000080 	andeq	r0, r0, r0, lsl #1
d0031d90:	00800000 	addeq	r0, r0, r0
d0031d94:	aa800000 	bge	ce031d9c <_start-0x1fee274>
d0031d98:	bbababab 	bllt	ceb1cc4c <_start-0x15033c4>
d0031d9c:	abaaaabb 	blge	ceadc890 <_start-0x1543780>
d0031da0:	abababab 	blge	ceb1cc54 <_start-0x15033bc>
d0031da4:	0088a8aa 	addeq	sl, r8, sl, lsr #17
d0031da8:	aaaa8b88 	bge	cead4bd0 <_start-0x154b440>
d0031dac:	8888a88a 	stmhi	r8, {r1, r3, r7, fp, sp, pc}
d0031db0:	88888880 	stmhi	r8, {r7, fp, pc}
d0031db4:	88888888 	stmhi	r8, {r3, r7, fp, pc}
d0031db8:	80808088 	addhi	r8, r0, r8, lsl #1
d0031dbc:	a8898880 	stmge	r9, {r7, fp, pc}
d0031dc0:	a8888888 	stmge	r8, {r3, r7, fp, pc}
d0031dc4:	aa888888 	bge	ce253fec <_start-0x1dcc024>
d0031dc8:	8888a8aa 	stmhi	r8, {r1, r3, r5, r7, fp, sp, pc}
d0031dcc:	88888888 	stmhi	r8, {r3, r7, fp, pc}
d0031dd0:	88808088 	stmhi	r0, {r3, r7, pc}
d0031dd4:	00888888 	addeq	r8, r8, r8, lsl #17
	...
d0031de0:	ff010000 	undefined instruction 0xff010000
d0031de4:	ffffffff 	undefined instruction 0xffffffff
d0031de8:	ffffffff 	undefined instruction 0xffffffff
d0031dec:	f5ffffff 	undefined instruction 0xf5ffffff
d0031df0:	00004010 	andeq	r4, r0, r0, lsl r0
d0031df4:	00d1fd01 	sbcseq	pc, r1, r1, lsl #26
	...
d0031e08:	00000300 	andeq	r0, r0, r0, lsl #6
d0031e0c:	00000000 	andeq	r0, r0, r0
d0031e10:	57110000 	ldrpl	r0, [r1, -r0]
d0031e14:	00000040 	andeq	r0, r0, r0, asr #32
	...
d0031e2c:	aeaa2a00 	vfmage.f32	s4, s20, s0
d0031e30:	aaaaaaae 	bge	ceadc8f0 <_start-0x1543720>
d0031e34:	aaaaaaaa 	bge	ceadc8e4 <_start-0x154372c>
d0031e38:	aaaaaaaa 	bge	ceadc8e8 <_start-0x1543728>
d0031e3c:	0a000022 	beq	d0031ecc <gImage_pic+0xf500>
d0031e40:	aaaaaaaa 	bge	ceadc8f0 <_start-0x1543720>
d0031e44:	0222aaa2 	eoreq	sl, r2, #663552	; 0xa2000
d0031e48:	aaa228a2 	bge	ce8bc0d8 <_start-0x1763f38>
d0031e4c:	00a2aaaa 	adceq	sl, r2, sl, lsr #21
d0031e50:	22220000 	eorcs	r0, r2, #0
d0031e54:	aaaaa222 	bge	ceada6e4 <_start-0x154592c>
d0031e58:	22a2aaaa 	adccs	sl, r2, #696320	; 0xaa000
d0031e5c:	a0aaaa22 	adcge	sl, sl, r2, lsr #20
d0031e60:	a2a22200 	adcge	r2, r2, #0
d0031e64:	000022a2 	andeq	r2, r0, r2, lsr #5
d0031e68:	02000000 	andeq	r0, r0, #0
d0031e6c:	00000002 	andeq	r0, r0, r2
	...
d0031e78:	ffffdf01 	undefined instruction 0xffffdf01
d0031e7c:	ddffffff 	ldclle	15, cr15, [pc, #1020]!	; 0x3fc
d0031e80:	ffffffff 	undefined instruction 0xffffffff
d0031e84:	0050fdff 	ldrsheq	pc, [r0], #-223	; 0xffffff21
d0031e88:	fd010000 	stc2	0, cr0, [r1]
d0031e8c:	000000c4 	andeq	r0, r0, r4, asr #1
d0031e90:	00000000 	andeq	r0, r0, r0
d0031e94:	05000000 	streq	r0, [r0]
d0031e98:	00000054 	andeq	r0, r0, r4, asr r0
d0031e9c:	0f000000 	svceq	0x00000000
d0031ea0:	00000040 	andeq	r0, r0, r0, asr #32
d0031ea4:	00000000 	andeq	r0, r0, r0
d0031ea8:	00405d04 	subeq	r5, r0, r4, lsl #26
	...
d0031ec0:	8a000000 	bhi	d0031ec8 <gImage_pic+0xf4fc>
d0031ec4:	baaabaaa 	blt	ceae0974 <_start-0x153f69c>
d0031ec8:	aaaabaab 	bge	ceae097c <_start-0x153f694>
d0031ecc:	aaabbbba 	bge	ceb20dbc <_start-0x14ff254>
d0031ed0:	008aaaaa 	addeq	sl, sl, sl, lsr #21
d0031ed4:	aaaa8800 	bge	cead3edc <_start-0x154c134>
d0031ed8:	8888aaaa 	stmhi	r8, {r1, r3, r5, r7, r9, fp, sp, pc}
d0031edc:	888a8888 	stmhi	sl, {r3, r7, fp, pc}
d0031ee0:	aaaaaa88 	bge	ceadc908 <_start-0x1543708>
d0031ee4:	888888a8 	stmhi	r8, {r3, r5, r7, fp, pc}
d0031ee8:	aa8a8808 	bge	ce2d3f10 <_start-0x1d4c100>
d0031eec:	888aaa8a 	stmhi	sl, {r1, r3, r7, r9, fp, sp, pc}
d0031ef0:	aa888888 	bge	ce254118 <_start-0x1dcbef8>
d0031ef4:	880888aa 	stmdahi	r8, {r1, r3, r5, r7, fp, pc}
d0031ef8:	88888888 	stmhi	r8, {r3, r7, fp, pc}
d0031efc:	88888888 	stmhi	r8, {r3, r7, fp, pc}
d0031f00:	00888888 	addeq	r8, r8, r8, lsl #17
	...
d0031f0c:	7f010000 	svcvc	0x00010000
d0031f10:	ffffffff 	undefined instruction 0xffffffff
d0031f14:	ff7fffff 	undefined instruction 0xff7fffff
d0031f18:	ffffffff 	undefined instruction 0xffffffff
d0031f1c:	0000005c 	andeq	r0, r0, ip, asr r0
d0031f20:	00503700 	subseq	r3, r0, r0, lsl #14
d0031f24:	00000010 	andeq	r0, r0, r0, lsl r0
d0031f28:	01000000 	tsteq	r0, r0
d0031f2c:	507f5515 	rsbspl	r5, pc, r5, lsl r5
d0031f30:	00000000 	andeq	r0, r0, r0
d0031f34:	00d11f00 	sbcseq	r1, r1, r0, lsl #30
d0031f38:	00000010 	andeq	r0, r0, r0, lsl r0
d0031f3c:	55110000 	ldrpl	r0, [r1]
	...
d0031f58:	aaaa2a00 	bge	ceabc760 <_start-0x15638b0>
d0031f5c:	aaaaaaaa 	bge	ceadca0c <_start-0x1543604>
d0031f60:	aaaaaaaa 	bge	ceadca10 <_start-0x1543600>
d0031f64:	a8aaaaea 	stmiage	sl!, {r1, r3, r5, r6, r7, r9, fp, sp, pc}
d0031f68:	020000a2 	andeq	r0, r0, #162	; 0xa2
d0031f6c:	aaaaaaaa 	bge	ceadca1c <_start-0x15435f4>
d0031f70:	22002aaa 	andcs	r2, r0, #696320	; 0xaa000
d0031f74:	aaaaaaaa 	bge	ceadca24 <_start-0x15435ec>
d0031f78:	20aaaaaa 	adccs	sl, sl, sl, lsr #21
d0031f7c:	00080000 	andeq	r0, r8, r0
d0031f80:	aaaaaaaa 	bge	ceadca30 <_start-0x15435e0>
d0031f84:	2020aaaa 	eorcs	sl, r0, sl, lsr #21
d0031f88:	a0aaaa22 	adcge	sl, sl, r2, lsr #20
d0031f8c:	2a220000 	bcs	d08b1f94 <bss_end+0x87c9c4>
d0031f90:	002022a2 	eoreq	r2, r0, r2, lsr #5
	...
d0031fa4:	ddff5d00 	ldclle	13, cr5, [pc]
d0031fa8:	fdffffff 	ldc2l	15, cr15, [pc, #1020]!	; 0x3fc
d0031fac:	ffffffdd 	undefined instruction 0xffffffdd
d0031fb0:	00e4fdff 	strdeq	pc, [r4], #223	; 0xdf
d0031fb4:	04000000 	streq	r0, [r0]
d0031fb8:	00000054 	andeq	r0, r0, r4, asr r0
d0031fbc:	00000000 	andeq	r0, r0, r0
d0031fc0:	dd550000 	ldclle	0, cr0, [r5]
d0031fc4:	0000f4dd 	ldrdeq	pc, [r0], -sp
d0031fc8:	5c000000 	stcpl	0, cr0, [r0], {0}
d0031fcc:	000040d4 	ldrdeq	r4, [r0], -r4
d0031fd0:	00000000 	andeq	r0, r0, r0
d0031fd4:	00005400 	andeq	r5, r0, r0, lsl #8
	...
d0031fe8:	00008000 	andeq	r8, r0, r0
d0031fec:	8a000000 	bhi	d0031ff4 <gImage_pic+0xf628>
d0031ff0:	abaaaaaa 	blge	ceadcaa0 <_start-0x1543570>
d0031ff4:	aaaaabab 	bge	ceadcea8 <_start-0x1543168>
d0031ff8:	ebbbaaab 	bl	cef1caac <_start-0x1103564>
d0031ffc:	80a8aaaa 	adchi	sl, r8, sl, lsr #21
d0032000:	aaaa8080 	bge	cead2208 <_start-0x154de08>
d0032004:	a888aaa8 	stmge	r8, {r3, r5, r7, r9, fp, sp, pc}
d0032008:	a8888888 	stmge	r8, {r3, r7, fp, pc}
d003200c:	aaaaaaaa 	bge	ceadcabc <_start-0x1543554>
d0032010:	808888aa 	addhi	r8, r8, sl, lsr #17
d0032014:	aaaa8888 	bge	cead423c <_start-0x154bdd4>
d0032018:	a8aaaaa8 	stmiage	sl!, {r3, r5, r7, r9, fp, sp, pc}
d003201c:	aa888888 	bge	ce254244 <_start-0x1dcbdcc>
d0032020:	888080aa 	stmhi	r0, {r1, r3, r5, r7, pc}
d0032024:	88888888 	stmhi	r8, {r3, r7, fp, pc}
d0032028:	80808888 	addhi	r8, r0, r8, lsl #17
d003202c:	00888880 	addeq	r8, r8, r0, lsl #17
	...
d0032038:	17010000 	strne	r0, [r1, -r0]
d003203c:	ffffffff 	undefined instruction 0xffffffff
d0032040:	fff7ffff 	undefined instruction 0xfff7ffff
d0032044:	ffffffff 	undefined instruction 0xffffffff
d0032048:	0000005c 	andeq	r0, r0, ip, asr r0
d003204c:	00510100 	subseq	r0, r1, r0, lsl #2
d0032050:	00000001 	andeq	r0, r0, r1
d0032054:	11000000 	tstne	r0, r0
d0032058:	fdfff757 	ldc2l	7, cr15, [pc, #348]!	; 0x15c
d003205c:	00000000 	andeq	r0, r0, r0
d0032060:	41557f01 	cmpmi	r5, r1, lsl #30
d0032064:	00000111 	andeq	r0, r0, r1, lsl r1
d0032068:	55010000 	strpl	r0, [r1]
	...
d0032084:	aaaa0200 	bge	ceab288c <_start-0x156d784>
d0032088:	aaaaaaaa 	bge	ceadcb38 <_start-0x15434d8>
d003208c:	aaaaaaaa 	bge	ceadcb3c <_start-0x15434d4>
d0032090:	aaaaeaaa 	bge	ceaecb40 <_start-0x15334d0>
d0032094:	000000a8 	andeq	r0, r0, r8, lsr #1
d0032098:	aaaaaa0a 	bge	ceadc8c8 <_start-0x1543748>
d003209c:	22a2a2aa 	adccs	sl, r2, #-1610612726	; 0xa000000a
d00320a0:	aaaaaaaa 	bge	ceadcb50 <_start-0x15434c0>
d00320a4:	a2aaaaaa 	adcge	sl, sl, #696320	; 0xaa000
d00320a8:	22020020 	andcs	r0, r2, #32
d00320ac:	aaaaaaaa 	bge	ceadcb5c <_start-0x15434b4>
d00320b0:	02a2aaaa 	adceq	sl, r2, #696320	; 0xaa000
d00320b4:	80aaaa22 	adchi	sl, sl, r2, lsr #20
d00320b8:	a2020000 	andge	r0, r2, #0
d00320bc:	00a2a2a2 	adceq	sl, r2, r2, lsr #5
	...
d00320d0:	dddd0500 	cfldr64le	mvdx0, [sp]
d00320d4:	ddffdfdd 	ldclle	15, cr13, [pc, #884]!	; 0x374
d00320d8:	ffffdfdd 	undefined instruction 0xffffdfdd
d00320dc:	40d5fdff 	ldrshmi	pc, [r5], #223	; 0xdf
d00320e0:	05000000 	streq	r0, [r0]
d00320e4:	00000084 	andeq	r0, r0, r4, lsl #1
d00320e8:	00000000 	andeq	r0, r0, r0
d00320ec:	dd5d4400 	cfldrdle	mvd4, [sp]
d00320f0:	0000dddf 	ldrdeq	sp, [r0], -pc
d00320f4:	5d000000 	stcpl	0, cr0, [r0]
d00320f8:	00040484 	andeq	r0, r4, r4, lsl #9
d00320fc:	00000000 	andeq	r0, r0, r0
d0032100:	00005c04 	andeq	r5, r0, r4, lsl #24
	...
d0032118:	08000000 	stmdaeq	r0, {}
d003211c:	aaaaaaaa 	bge	ceadcbcc <_start-0x1543444>
d0032120:	aaaaaaaa 	bge	ceadcbd0 <_start-0x1543440>
d0032124:	bbbbbaaa 	bllt	cef20bd4 <_start-0x10ff43c>
d0032128:	00a8a8ba 	strheq	sl, [r8], sl
d003212c:	880a0000 	stmdahi	sl, {}
d0032130:	88aa8a88 	stmiahi	sl!, {r3, r7, r9, fp, pc}
d0032134:	8a888888 	bhi	ce25435c <_start-0x1dcbcb4>
d0032138:	aaaaaaaa 	bge	ceadcbe8 <_start-0x1543428>
d003213c:	888888aa 	stmhi	r8, {r1, r3, r5, r7, fp, pc}
d0032140:	aaaa8a88 	bge	cead4b68 <_start-0x154b4a8>
d0032144:	88aaaaaa 	stmiahi	sl!, {r1, r3, r5, r7, r9, fp, sp, pc}
d0032148:	8a888888 	bhi	ce254370 <_start-0x1dcbca0>
d003214c:	080080aa 	stmdaeq	r0, {r1, r3, r5, r7, pc}
d0032150:	888a8888 	stmhi	sl, {r3, r7, fp, pc}
d0032154:	88888888 	stmhi	r8, {r3, r7, fp, pc}
d0032158:	00888808 	addeq	r8, r8, r8, lsl #16
	...
d0032164:	15000000 	strne	r0, [r0]
d0032168:	7f77ff77 	svcvc	0x0077ff77
d003216c:	7f57ffff 	svcvc	0x0057ffff
d0032170:	f5ffffff 	undefined instruction 0xf5ffffff
d0032174:	00001050 	andeq	r1, r0, r0, asr r0
d0032178:	00100100 	andseq	r0, r0, r0, lsl #2
d003217c:	00100000 	andseq	r0, r0, r0
d0032180:	11010000 	tstne	r1, r0
d0032184:	fd777757 	ldc2l	7, cr7, [r7, #-348]!	; 0xfffffea4
d0032188:	00000000 	andeq	r0, r0, r0
d003218c:	51557d01 	cmppl	r5, r1, lsl #26
d0032190:	00000105 	andeq	r0, r0, r5, lsl #2
d0032194:	50010000 	andpl	r0, r1, r0
	...
d00321b0:	aa2a0000 	bge	d0ab21b8 <bss_end+0xa7cbe8>
d00321b4:	aaaaaaaa 	bge	ceadcc64 <_start-0x15433ac>
d00321b8:	aaaaaaaa 	bge	ceadcc68 <_start-0x15433a8>
d00321bc:	aaaaaaae 	bge	ceadcc7c <_start-0x1543394>
d00321c0:	0000800a 	andeq	r8, r0, sl
d00321c4:	80202002 	eorhi	r2, r0, r2
d00321c8:	2020aaaa 	eorcs	sl, r0, sl, lsr #21
d00321cc:	aaaaaa22 	bge	ceadca5c <_start-0x15435b4>
d00321d0:	a0aaaaaa 	adcge	sl, sl, sl, lsr #21
d00321d4:	2a000822 	bcs	d0034264 <gImage_pic+0x11898>
d00321d8:	aaaaaaaa 	bge	ceadcc88 <_start-0x1543388>
d00321dc:	0020a2aa 	eoreq	sl, r0, sl, lsr #5
d00321e0:	00aaaa22 	adceq	sl, sl, r2, lsr #20
d00321e4:	22000000 	andcs	r0, r0, #0
d00321e8:	20a2aa2a 	adccs	sl, r2, sl, lsr #20
	...
d00321fc:	dd5d0000 	ldclle	0, cr0, [sp]
d0032200:	dddddddd 	ldclle	13, cr13, [sp, #884]	; 0x374
d0032204:	ffffdddd 	undefined instruction 0xffffdddd
d0032208:	0000d4fd 	strdeq	sp, [r0], -sp
	...
d0032218:	dd454000 	stclle	0, cr4, [r5]
d003221c:	0000dddd 	ldrdeq	sp, [r0], -sp
d0032220:	fd000000 	stc2	0, cr0, [r0]
d0032224:	0000c445 	andeq	ip, r0, r5, asr #8
d0032228:	00000000 	andeq	r0, r0, r0
d003222c:	00005000 	andeq	r5, r0, r0
	...
d003223c:	00000080 	andeq	r0, r0, r0, lsl #1
d0032240:	00800000 	addeq	r0, r0, r0
d0032244:	80000080 	andhi	r0, r0, r0, lsl #1
d0032248:	aaaaaa8a 	bge	ceadcc78 <_start-0x1543398>
d003224c:	aaaaaaaa 	bge	ceadccfc <_start-0x1543314>
d0032250:	baababaa 	blt	ceb1d100 <_start-0x1502f10>
d0032254:	8088a8aa 	addhi	sl, r8, sl, lsr #17
d0032258:	88808080 	stmhi	r0, {r7, pc}
d003225c:	88888888 	stmhi	r8, {r3, r7, fp, pc}
d0032260:	aa888888 	bge	ce254488 <_start-0x1dcbb88>
d0032264:	aaaaaaaa 	bge	ceadcd14 <_start-0x15432fc>
d0032268:	a088a8aa 	addge	sl, r8, sl, lsr #17
d003226c:	aaaa8a80 	bge	cead4c74 <_start-0x154b39c>
d0032270:	88a8aaaa 	stmiahi	r8!, {r1, r3, r5, r7, r9, fp, sp, pc}
d0032274:	aa888888 	bge	ce25449c <_start-0x1dcbb74>
d0032278:	000080a8 	andeq	r8, r0, r8, lsr #1
d003227c:	88888880 	stmhi	r8, {r7, fp, pc}
d0032280:	80888888 	addhi	r8, r8, r8, lsl #17
d0032284:	00808080 	addeq	r8, r0, r0, lsl #1
	...
d0032294:	f7777757 	undefined instruction 0xf7777757
d0032298:	7ff7f777 	svcvc	0x00f7f777
d003229c:	75ffffff 	ldrbvc	pc, [pc, #4095]!	; d00332a3 <gImage_pic+0x108d7>
d00322a0:	00000040 	andeq	r0, r0, r0, asr #32
	...
d00322ac:	11110000 	tstne	r1, r0
d00322b0:	57d75755 	undefined instruction 0x57d75755
d00322b4:	00000000 	andeq	r0, r0, r0
d00322b8:	51057101 	tstpl	r5, r1, lsl #2
d00322bc:	00000011 	andeq	r0, r0, r1, lsl r0
d00322c0:	50110000 	andspl	r0, r1, r0
	...
d00322dc:	aa020000 	bge	d00b22e4 <bss_end+0x7cd14>
d00322e0:	aaaaaaaa 	bge	ceadcd90 <_start-0x1543280>
d00322e4:	aaaaaaaa 	bge	ceadcd94 <_start-0x154327c>
d00322e8:	a2aaaeaa 	adcge	sl, sl, #2720	; 0xaa0
	...
d00322f4:	02a2a222 	adceq	sl, r2, #536870914	; 0x20000002
d00322f8:	aaaaaa2a 	bge	ceadcba8 <_start-0x1543468>
d00322fc:	a2aaaaaa 	adcge	sl, sl, #696320	; 0xaa000
d0032300:	22020022 	andcs	r0, r2, #34	; 0x22
d0032304:	aaaaaaaa 	bge	ceadcdb4 <_start-0x154325c>
d0032308:	0222a2a2 	eoreq	sl, r2, #536870922	; 0x2000000a
d003230c:	00a0aaaa 	adceq	sl, r0, sl, lsr #21
d0032310:	02000000 	andeq	r0, r0, #0
d0032314:	a2aaaa22 	adcge	sl, sl, #139264	; 0x22000
	...
d0032328:	dd050000 	stcle	0, cr0, [r5]
d003232c:	dddddddd 	ldclle	13, cr13, [sp, #884]	; 0x374
d0032330:	fdffdfdd 	ldc2l	15, cr13, [pc, #884]!	; 0x374
d0032334:	0000dddf 	ldrdeq	sp, [r0], -pc
	...
d0032344:	dd454404 	cfstrdle	mvd4, [r5, #-16]
d0032348:	0000dddd 	ldrdeq	sp, [r0], -sp
d003234c:	f5050000 	undefined instruction 0xf5050000
d0032350:	0004c445 	andeq	ip, r4, r5, asr #8
d0032354:	00000000 	andeq	r0, r0, r0
d0032358:	00004005 	andeq	r4, r0, r5
	...
d0032374:	aaaa8a88 	bge	cead4d9c <_start-0x154b274>
d0032378:	aaaaaaaa 	bge	ceadce28 <_start-0x15431e8>
d003237c:	abbabaaa 	blge	ceee0e2c <_start-0x113f1e4>
d0032380:	0088a8ba 	strheq	sl, [r8], sl
d0032384:	00000000 	andeq	r0, r0, r0
d0032388:	88080000 	stmdahi	r8, {}
d003238c:	8a8a8888 	bhi	ce2d45b4 <_start-0x1d4ba5c>
d0032390:	aaaaaaaa 	bge	ceadce40 <_start-0x15431d0>
d0032394:	8888a8aa 	stmhi	r8, {r1, r3, r5, r7, fp, sp, pc}
d0032398:	aaaa8a08 	bge	cead4bc0 <_start-0x154b450>
d003239c:	88a8aaaa 	stmiahi	r8!, {r1, r3, r5, r7, r9, fp, sp, pc}
d00323a0:	aa8a8a88 	bge	ce2d4dc8 <_start-0x1d4b248>
d00323a4:	00000088 	andeq	r0, r0, r8, lsl #1
d00323a8:	8a888808 	bhi	ce2543d0 <_start-0x1dcbc40>
d00323ac:	88888888 	stmhi	r8, {r3, r7, fp, pc}
d00323b0:	00080888 	andeq	r0, r8, r8, lsl #17
	...
d00323c0:	75775501 	ldrbvc	r5, [r7, #-1281]!	; 0x501
d00323c4:	5577ff77 	ldrbpl	pc, [r7, #-3959]!	; 0xf77
d00323c8:	ffffffff 	undefined instruction 0xffffffff
d00323cc:	00000050 	andeq	r0, r0, r0, asr r0
	...
d00323d8:	11010000 	tstne	r1, r0
d00323dc:	57551511 	smmlapl	r5, r1, r5, r1
d00323e0:	00000010 	andeq	r0, r0, r0, lsl r0
d00323e4:	51157015 	tstpl	r5, r5, lsl r0
d00323e8:	00000015 	andeq	r0, r0, r5, lsl r0
d00323ec:	00150000 	andseq	r0, r5, r0
	...
d0032408:	2a000000 	bcs	d0032410 <gImage_pic+0xfa44>
d003240c:	aaaaaaaa 	bge	ceadcebc <_start-0x1543154>
d0032410:	aaaaaaaa 	bge	ceadcec0 <_start-0x1543150>
d0032414:	a8aaaaaa 	stmiage	sl!, {r1, r3, r5, r7, r9, fp, sp, pc}
	...
d0032420:	02222200 	eoreq	r2, r2, #0
d0032424:	aaaaaa2a 	bge	ceadccd4 <_start-0x154333c>
d0032428:	aaaaaaaa 	bge	ceadced8 <_start-0x1543138>
d003242c:	2a002080 	bcs	d003a634 <bss_end+0x5064>
d0032430:	aaaa22aa 	bge	ceabaee0 <_start-0x1565130>
d0032434:	222220aa 	eorcs	r2, r2, #170	; 0xaa
d0032438:	0080aaaa 	addeq	sl, r0, sl, lsr #21
d003243c:	00000000 	andeq	r0, r0, r0
d0032440:	aaaa2a22 	bge	ceabccd0 <_start-0x1563340>
d0032444:	00000020 	andeq	r0, r0, r0, lsr #32
	...
d0032454:	5d000000 	stcpl	0, cr0, [r0]
d0032458:	dddddddd 	ldclle	13, cr13, [sp, #884]	; 0x374
d003245c:	fdffdddd 	ldc2l	13, cr13, [pc, #884]!	; 0x374
d0032460:	00c0fffd 	strdeq	pc, [r0], #253	; 0xfd
	...
d0032470:	00000001 	andeq	r0, r0, r1
d0032474:	40c05c44 	sbcmi	r5, r0, r4, asr #24
d0032478:	c0050000 	andgt	r0, r5, r0
d003247c:	0004c405 	andeq	ip, r4, r5, lsl #8
d0032480:	00000000 	andeq	r0, r0, r0
d0032484:	00000004 	andeq	r0, r0, r4
	...
d003249c:	80008000 	andhi	r8, r0, r0
d00324a0:	aaaa8880 	bge	cead46a8 <_start-0x154b968>
d00324a4:	aaaaaaaa 	bge	ceadcf54 <_start-0x15430bc>
d00324a8:	aaaaabaa 	bge	ceadd358 <_start-0x1542cb8>
d00324ac:	8080a8bb 	strhhi	sl, [r0], fp
d00324b0:	a88a8080 	stmge	sl, {r7, pc}
d00324b4:	88000080 	stmdahi	r0, {r7}
d00324b8:	aa888888 	bge	ce2546e0 <_start-0x1dcb930>
d00324bc:	aaaaa8aa 	bge	ceadc76c <_start-0x15438a4>
d00324c0:	80a8a8aa 	adchi	sl, r8, sl, lsr #17
d00324c4:	aaa8aa80 	bge	cea5cecc <_start-0x15c3144>
d00324c8:	8888aaaa 	stmhi	r8, {r1, r3, r5, r7, r9, fp, sp, pc}
d00324cc:	aa8a8888 	bge	ce2d46f4 <_start-0x1d4b91c>
d00324d0:	00008080 	andeq	r8, r0, r0, lsl #1
d00324d4:	88888000 	stmhi	r8, {pc}
d00324d8:	88888888 	stmhi	r8, {r3, r7, fp, pc}
d00324dc:	00808080 	addeq	r8, r0, r0, lsl #1
	...
d00324ec:	57771500 	ldrbpl	r1, [r7, -r0, lsl #10]!
d00324f0:	d7775755 	undefined instruction 0xd7775755
d00324f4:	ffffff7f 	undefined instruction 0xffffff7f
d00324f8:	000000f0 	strdeq	r0, [r0], r0
d00324fc:	00c01700 	sbceq	r1, r0, r0, lsl #14
d0032500:	00000000 	andeq	r0, r0, r0
d0032504:	11110000 	tstne	r1, r0
d0032508:	d5510100 	ldrble	r0, [r1, #-256]	; 0x100
d003250c:	00000050 	andeq	r0, r0, r0, asr r0
d0032510:	51017015 	tstpl	r1, r5, lsl r0
d0032514:	00000015 	andeq	r0, r0, r5, lsl r0
d0032518:	00100100 	andseq	r0, r0, r0, lsl #2
	...
d0032534:	02000000 	andeq	r0, r0, #0
d0032538:	aaaaaaaa 	bge	ceadcfe8 <_start-0x1543028>
d003253c:	aaaaaaaa 	bge	ceadcfec <_start-0x1543024>
d0032540:	aaeeaaaa 	bge	cfbdcff0 <_start-0x443020>
d0032544:	00000000 	andeq	r0, r0, r0
d0032548:	a022a22a 	eorge	sl, r2, sl, lsr #4
d003254c:	22220000 	eorcs	r0, r2, #0
d0032550:	aaaaaa82 	bge	ceadcf60 <_start-0x15430b0>
d0032554:	aaaaaaaa 	bge	ceadd004 <_start-0x154300c>
d0032558:	aa0200a0 	bge	d00b27e0 <bss_end+0x7d210>
d003255c:	aaaaaaaa 	bge	ceadd00c <_start-0x1543004>
d0032560:	2a2202a2 	bcs	d08b2ff0 <bss_end+0x87da20>
d0032564:	0000aaaa 	andeq	sl, r0, sl, lsr #21
d0032568:	00000000 	andeq	r0, r0, r0
d003256c:	aaa22202 	bge	ce8bad7c <_start-0x1765294>
d0032570:	000000a2 	andeq	r0, r0, r2, lsr #1
	...
d0032580:	05000000 	streq	r0, [r0]
d0032584:	5ddddddd 	ldclpl	13, cr13, [sp, #884]	; 0x374
d0032588:	ffdfdddd 	undefined instruction 0xffdfdddd
d003258c:	00fcffff 	ldrshteq	pc, [ip], #255	; 0xff
d0032590:	7f000000 	svcvc	0x00000000
d0032594:	005c0000 	subseq	r0, ip, r0
d0032598:	00000000 	andeq	r0, r0, r0
d003259c:	00004000 	andeq	r4, r0, r0
d00325a0:	0040c503 	subeq	ip, r0, r3, lsl #10
d00325a4:	c0050000 	andgt	r0, r5, r0
d00325a8:	00044401 	andeq	r4, r4, r1, lsl #8
d00325ac:	00000000 	andeq	r0, r0, r0
d00325b0:	00000040 	andeq	r0, r0, r0, asr #32
	...
d00325cc:	aa8a0800 	bge	ce2b45d4 <_start-0x1d6ba3c>
d00325d0:	aaaaaaaa 	bge	ceadd080 <_start-0x1542f90>
d00325d4:	aabaaaaa 	bge	ceedd084 <_start-0x1142f8c>
d00325d8:	0088babb 	strheq	fp, [r8], fp
d00325dc:	88aa0000 	stmiahi	sl!, {}
d00325e0:	0000be8a 	andeq	fp, r0, sl, lsl #29
d00325e4:	aa888808 	bge	ce25460c <_start-0x1dcba04>
d00325e8:	ae8aaaa8 	vdivge.f32	s20, s21, s17
d00325ec:	8888a8aa 	stmhi	r8, {r1, r3, r5, r7, fp, sp, pc}
d00325f0:	8aa8aa0a 	bhi	cea5ce20 <_start-0x15c31f0>
d00325f4:	8888aaaa 	stmhi	r8, {r1, r3, r5, r7, r9, fp, sp, pc}
d00325f8:	a8aa8888 	stmiage	sl!, {r3, r7, fp, pc}
d00325fc:	00000000 	andeq	r0, r0, r0
d0032600:	88080000 	stmdahi	r8, {}
d0032604:	88888888 	stmhi	r8, {r3, r7, fp, pc}
d0032608:	00088888 	andeq	r8, r8, r8, lsl #17
	...
d0032618:	77550100 	ldrbvc	r0, [r5, -r0, lsl #2]
d003261c:	7f555555 	svcvc	0x00555555
d0032620:	ffffffff 	undefined instruction 0xffffffff
d0032624:	000000f8 	strdeq	r0, [r0], -r8
d0032628:	0100fc01 	tstpeq	r0, r1, lsl #24
d003262c:	0000c03f 	andeq	ip, r0, pc, lsr r0
d0032630:	10110000 	andsne	r0, r1, r0
d0032634:	110f0100 	tstne	pc, r0, lsl #2
d0032638:	01000010 	tsteq	r0, r0, lsl r0
d003263c:	5101c015 	tstpl	r1, r5, lsl r0
d0032640:	00000010 	andeq	r0, r0, r0, lsl r0
d0032644:	00001100 	andeq	r1, r0, r0, lsl #2
	...
d0032664:	aaaaaa22 	bge	ceadcef4 <_start-0x154311c>
d0032668:	aaaaaaaa 	bge	ceadd118 <_start-0x1542ef8>
d003266c:	e8eaaaaa 	stmia	sl!, {r1, r3, r5, r7, r9, fp, sp, pc}^
d0032670:	2a000000 	bcs	d0032678 <gImage_pic+0xfcac>
d0032674:	aa2200aa 	bge	d08b2924 <bss_end+0x87d354>
d0032678:	220200e0 	andcs	r0, r2, #224	; 0xe0
d003267c:	aaaaaaaa 	bge	ceadd12c <_start-0x1542ee4>
d0032680:	aaaaaa2a 	bge	ceadcf30 <_start-0x15430e0>
d0032684:	aa2a0080 	bge	d0ab288c <bss_end+0xa7d2bc>
d0032688:	aaaa0aa8 	bge	ceab5130 <_start-0x156aee0>
d003268c:	aa220000 	bge	d08b2694 <bss_end+0x87d0c4>
d0032690:	0000a0aa 	andeq	sl, r0, sl, lsr #1
d0032694:	00000000 	andeq	r0, r0, r0
d0032698:	2a220000 	bcs	d08b26a0 <bss_end+0x87d0d0>
d003269c:	0020202a 	eoreq	r2, r0, sl, lsr #32
	...
d00326b0:	d5d5dd05 	ldrble	sp, [r5, #3333]	; 0xd05
d00326b4:	ffffddd5 	undefined instruction 0xffffddd5
d00326b8:	00f0ffdd 	ldrsbteq	pc, [r0], #253	; 0xfd
d00326bc:	f81d0000 	undefined instruction 0xf81d0000
d00326c0:	f07f0000 	undefined instruction 0xf07f0000
d00326c4:	00000000 	andeq	r0, r0, r0
d00326c8:	00004000 	andeq	r4, r0, r0
d00326cc:	0000c01f 	andeq	ip, r0, pc, lsl r0
d00326d0:	c0410000 	subgt	r0, r1, r0
d00326d4:	0000c400 	andeq	ip, r0, r0, lsl #8
d00326d8:	04000000 	streq	r0, [r0]
	...
d00326f8:	aa880000 	bge	ce232700 <_start-0x1ded910>
d00326fc:	aaaaaaaa 	bge	ceadd1ac <_start-0x1542e64>
d0032700:	aaabaaaa 	bge	ceb1d1b0 <_start-0x1502e60>
d0032704:	8080a8bb 	strhhi	sl, [r0], fp
d0032708:	88a8aa88 	stmiahi	r8!, {r3, r7, r9, fp, sp, pc}
d003270c:	00a0bb82 	adceq	fp, r0, r2, lsl #23
d0032710:	aa888880 	bge	ce254918 <_start-0x1dcb6f8>
d0032714:	baaa88aa 	blt	cead49c4 <_start-0x154b64c>
d0032718:	8088a8aa 	addhi	sl, r8, sl, lsr #17
d003271c:	8aa8aa8a 	bhi	cea5d14c <_start-0x15c2ec4>
d0032720:	8880a8aa 	stmhi	r0, {r1, r3, r5, r7, fp, sp, pc}
d0032724:	80aa8a88 	adchi	r8, sl, r8, lsl #21
d0032728:	00000080 	andeq	r0, r0, r0, lsl #1
d003272c:	88800080 	stmhi	r0, {r7}
d0032730:	88888888 	stmhi	r8, {r3, r7, fp, pc}
d0032734:	00808888 	addeq	r8, r0, r8, lsl #17
	...
d0032744:	57010000 	strpl	r0, [r1, -r0]
d0032748:	77575575 	undefined instruction 0x77575575
d003274c:	fff7ffff 	undefined instruction 0xfff7ffff
d0032750:	010000f0 	strdeq	r0, [r0, r0]
d0032754:	0400d057 	streq	sp, [r0], #-87	; 0x57
d0032758:	0000007f 	andeq	r0, r0, pc, ror r0
d003275c:	00110000 	andseq	r0, r1, r0
d0032760:	d57f0100 	ldrble	r0, [pc, #-256]!	; d0032668 <gImage_pic+0xfc9c>
d0032764:	01000000 	tsteq	r0, r0
d0032768:	5101c015 	tstpl	r1, r5, lsl r0
d003276c:	00000000 	andeq	r0, r0, r0
d0032770:	00001000 	andeq	r1, r0, r0
	...
d0032790:	aaaa2a02 	bge	ceabcfa0 <_start-0x1563070>
d0032794:	aaaaaaaa 	bge	ceadd244 <_start-0x1542dcc>
d0032798:	a8aeeaaa 	stmiage	lr!, {r1, r3, r5, r7, r9, fp, sp, lr, pc}
d003279c:	aaaa0200 	bge	ceab2fa4 <_start-0x156d06c>
d00327a0:	aa8a00a8 	bge	ce2b2a48 <_start-0x1d6d5c8>
d00327a4:	220000aa 	andcs	r0, r0, #170	; 0xaa
d00327a8:	aaaa2a2a 	bge	ceabd058 <_start-0x1562fb8>
d00327ac:	a2aa2aaa 	adcge	r2, sl, #696320	; 0xaa000
d00327b0:	aa220202 	bge	d08b2fc0 <bss_end+0x87d9f0>
d00327b4:	a0aa0aa0 	adcge	r0, sl, r0, lsr #21
d00327b8:	aa2a0200 	bge	d0ab2fc0 <bss_end+0xa7d9f0>
d00327bc:	000000aa 	andeq	r0, r0, sl, lsr #1
d00327c0:	00000000 	andeq	r0, r0, r0
d00327c4:	22020000 	andcs	r0, r2, #0
d00327c8:	a2aaa2a2 	adcge	sl, sl, #536870922	; 0x2000000a
	...
d00327dc:	dddd5d00 	ldclle	13, cr5, [sp]
d00327e0:	dfffdfdd 	svcle	0x00ffdfdd
d00327e4:	00c0ffff 	strdeq	pc, [r0], #255	; 0xff
d00327e8:	c0450500 	subgt	r0, r5, r0, lsl #10
d00327ec:	00dc0400 	sbcseq	r0, ip, r0, lsl #8
	...
d00327f8:	0000d47f 	andeq	sp, r0, pc, ror r4
d00327fc:	c0450000 	subgt	r0, r5, r0
d0032800:	00004400 	andeq	r4, r0, r0, lsl #8
	...
d0032824:	88080000 	stmdahi	r8, {}
d0032828:	aaaaaaaa 	bge	ceadd2d8 <_start-0x1542d38>
d003282c:	baaabaaa 	blt	ceae12dc <_start-0x153ed34>
d0032830:	0000a0bb 	strheq	sl, [r0], -fp
d0032834:	08a8aaaa 	stmiaeq	r8!, {r1, r3, r5, r7, r9, fp, sp, pc}
d0032838:	80a8aa88 	adchi	sl, r8, r8, lsl #21
d003283c:	8a888800 	bhi	ce254844 <_start-0x1dcb7cc>
d0032840:	faaa8a8a 	blx	cead5270 <_start-0x154ada0>
d0032844:	088888aa 	stmeq	r8, {r1, r3, r5, r7, fp, pc}
d0032848:	0aa8aa8a 	beq	cea5d278 <_start-0x15c2d98>
d003284c:	880888aa 	stmdahi	r8, {r1, r3, r5, r7, fp, pc}
d0032850:	00888a88 	addeq	r8, r8, r8, lsl #21
d0032854:	00000000 	andeq	r0, r0, r0
d0032858:	08000000 	stmdaeq	r0, {}
d003285c:	88888888 	stmhi	r8, {r3, r7, fp, pc}
d0032860:	00888888 	addeq	r8, r8, r8, lsl #17
	...
d0032870:	15000000 	strne	r0, [r0]
d0032874:	ff7f7555 	undefined instruction 0xff7f7555
d0032878:	ffffffff 	undefined instruction 0xffffffff
d003287c:	15000080 	strne	r0, [r0, #-128]	; 0x80
d0032880:	01005055 	qaddeq	r5, r5, r0
d0032884:	00000075 	andeq	r0, r0, r5, ror r0
d0032888:	00110000 	andseq	r0, r1, r0
d003288c:	f47f1101 	undefined instruction 0xf47f1101
d0032890:	11000000 	tstne	r0, r0
d0032894:	1101d055 	qaddne	sp, r5, r1
	...
d00328bc:	aa2a0000 	bge	d0ab28c4 <bss_end+0xa7d2f4>
d00328c0:	aaaaaaaa 	bge	ceadd370 <_start-0x1542ca0>
d00328c4:	80aaaaaa 	adchi	sl, sl, sl, lsr #21
d00328c8:	aa2a0000 	bge	d0ab28d0 <bss_end+0xa7d300>
d00328cc:	aa0200a0 	bge	d00b2b54 <bss_end+0x7d584>
d00328d0:	000000a0 	andeq	r0, r0, r0, lsr #1
d00328d4:	aaaaaa20 	bge	ceadd15c <_start-0x1542eb4>
d00328d8:	20aaeaaa 	adccs	lr, sl, sl, lsr #21
d00328dc:	aa2a0220 	bge	d0ab3164 <bss_end+0xa7db94>
d00328e0:	80aa0aa0 	adchi	r0, sl, r0, lsr #21
d00328e4:	aa2aaa00 	bge	d0add0ec <bss_end+0xaa7b1c>
	...
d00328f4:	aaaa2220 	bge	ceabb17c <_start-0x1564e94>
d00328f8:	000000a2 	andeq	r0, r0, r2, lsr #1
	...
d0032908:	dd5d0000 	ldclle	0, cr0, [sp]
d003290c:	fdffdddd 	ldc2l	13, cr13, [pc, #884]!	; 0x374
d0032910:	0000fdff 	strdeq	pc, [r0], -pc
d0032914:	40550000 	subsmi	r0, r5, r0
d0032918:	00540000 	subseq	r0, r4, r0
d003291c:	00000000 	andeq	r0, r0, r0
d0032920:	04000000 	streq	r0, [r0]
d0032924:	0000d47d 	andeq	sp, r0, sp, ror r4
d0032928:	80550000 	subshi	r0, r5, r0
d003292c:	00004400 	andeq	r4, r0, r0, lsl #8
	...
d0032948:	80000000 	andhi	r0, r0, r0
d003294c:	80000000 	andhi	r0, r0, r0
d0032950:	88008000 	stmdahi	r0, {pc}
d0032954:	aaaaaa88 	bge	ceadd37c <_start-0x1542c94>
d0032958:	abaaaaaa 	blge	ceadd408 <_start-0x1542c08>
d003295c:	800080aa 	andhi	r8, r0, sl, lsr #1
d0032960:	8080aa80 	addhi	sl, r0, r0, lsl #21
d0032964:	8080a888 	addhi	sl, r0, r8, lsl #17
d0032968:	88808800 	stmhi	r0, {fp, pc}
d003296c:	baaa8888 	blt	cead4b94 <_start-0x154b47c>
d0032970:	888088aa 	stmhi	r0, {r1, r3, r5, r7, fp, pc}
d0032974:	8a80aaaa 	bhi	ce05d424 <_start-0x1fc2bec>
d0032978:	880080a8 	stmdahi	r0, {r3, r5, r7, pc}
d003297c:	808080a8 	addhi	r8, r0, r8, lsr #1
d0032980:	80000000 	andhi	r0, r0, r0
d0032984:	00000000 	andeq	r0, r0, r0
d0032988:	88888880 	stmhi	r8, {r7, fp, pc}
d003298c:	00888888 	addeq	r8, r8, r8, lsl #17
	...
d00329a0:	ffff5715 	undefined instruction 0xffff5715
d00329a4:	fffffdff 	undefined instruction 0xfffffdff
	...
d00329b8:	f07f5501 	undefined instruction 0xf07f5501
d00329bc:	11000000 	tstne	r0, r0
d00329c0:	10014051 	andne	r4, r1, r1, asr r0
	...
d00329e8:	aa020000 	bge	d00b29f0 <bss_end+0x7d420>
d00329ec:	aaaaaaaa 	bge	ceadd49c <_start-0x1542b74>
d00329f0:	00aaaaaa 	adceq	sl, sl, sl, lsr #21
d00329f4:	00000000 	andeq	r0, r0, r0
d00329f8:	02000000 	andeq	r0, r0, #0
d00329fc:	00000000 	andeq	r0, r0, r0
d0032a00:	aaa22202 	bge	ce8bb210 <_start-0x1764e00>
d0032a04:	02aabeaa 	adceq	fp, sl, #2720	; 0xaa0
d0032a08:	aa2a0200 	bge	d0ab3210 <bss_end+0xa7dc40>
d0032a0c:	00a02a80 	adceq	r2, r0, r0, lsl #21
	...
d0032a20:	aaa20202 	bge	ce8b3230 <_start-0x176cde0>
d0032a24:	000000a2 	andeq	r0, r0, r2, lsr #1
	...
d0032a34:	5d050000 	stcpl	0, cr0, [r5]
d0032a38:	fdffffdf 	ldc2l	15, cr15, [pc, #892]!	; 0x37c
d0032a3c:	0000fcfd 	strdeq	pc, [r0], -sp
	...
d0032a4c:	55000000 	strpl	r0, [r0]
d0032a50:	0000c0df 	ldrdeq	ip, [r0], -pc
d0032a54:	00440400 	subeq	r0, r4, r0, lsl #8
	...
d0032a80:	aaaa8a88 	bge	cead54a8 <_start-0x154ab68>
d0032a84:	babaaaaa 	blt	ceedd534 <_start-0x1142adc>
d0032a88:	000000a8 	andeq	r0, r0, r8, lsr #1
d0032a8c:	00000000 	andeq	r0, r0, r0
d0032a90:	00080800 	andeq	r0, r8, r0, lsl #16
d0032a94:	88080000 	stmdahi	r8, {}
d0032a98:	baaa8a88 	blt	cead54c0 <_start-0x154ab50>
d0032a9c:	808888a0 	addhi	r8, r8, r0, lsr #17
d0032aa0:	8a00a8aa 	bhi	d005cd50 <bss_end+0x27780>
d0032aa4:	00000088 	andeq	r0, r0, r8, lsl #1
	...
d0032ab4:	88080000 	stmdahi	r8, {}
d0032ab8:	00888888 	addeq	r8, r8, r8, lsl #17
	...
d0032acc:	ff7f1700 	undefined instruction 0xff7f1700
d0032ad0:	f07fffff 	undefined instruction 0xf07fffff
	...
d0032ae4:	c07f1500 	rsbsgt	r1, pc, r0, lsl #10
d0032ae8:	11000000 	tstne	r0, r0
d0032aec:	00010010 	andeq	r0, r1, r0, lsl r0
	...
d0032b14:	02000000 	andeq	r0, r0, #0
d0032b18:	aaaaaaaa 	bge	ceadd5c8 <_start-0x1542a48>
d0032b1c:	00a0aaaa 	adceq	sl, r0, sl, lsr #21
	...
d0032b2c:	aa280000 	bge	d0a32b34 <bss_end+0x9fd564>
d0032b30:	0080aaaa 	addeq	sl, r0, sl, lsr #21
d0032b34:	00a20000 	adceq	r0, r2, r0
d0032b38:	0000aa00 	andeq	sl, r0, r0, lsl #20
	...
d0032b4c:	22220000 	eorcs	r0, r2, #0
d0032b50:	00000022 	andeq	r0, r0, r2, lsr #32
	...
d0032b60:	05000000 	streq	r0, [r0]
d0032b64:	ffffffdd 	undefined instruction 0xffffffdd
d0032b68:	000000fd 	strdeq	r0, [r0], -sp
	...
d0032b78:	45000000 	strmi	r0, [r0]
d0032b7c:	000080dd 	ldrdeq	r8, [r0], -sp
	...
d0032b9c:	00800000 	addeq	r0, r0, r0
d0032ba0:	00000000 	andeq	r0, r0, r0
d0032ba4:	00000080 	andeq	r0, r0, r0, lsl #1
d0032ba8:	00000000 	andeq	r0, r0, r0
d0032bac:	aa8a8880 	bge	ce2d4db4 <_start-0x1d4b25c>
d0032bb0:	aabaabab 	bge	ceedda64 <_start-0x11425ac>
d0032bb4:	00808080 	addeq	r8, r0, r0, lsl #1
d0032bb8:	00800000 	addeq	r0, r0, r0
d0032bbc:	00808000 	addeq	r8, r0, r0
d0032bc0:	80800000 	addhi	r0, r0, r0
d0032bc4:	aaaa8a80 	bge	cead55cc <_start-0x154aa44>
d0032bc8:	80800080 	addhi	r0, r0, r0, lsl #1
d0032bcc:	88880080 	stmhi	r8, {r7}
d0032bd0:	00800080 	addeq	r0, r0, r0, lsl #1
d0032bd4:	00800000 	addeq	r0, r0, r0
d0032bd8:	00800000 	addeq	r0, r0, r0
d0032bdc:	00000000 	andeq	r0, r0, r0
d0032be0:	80800000 	addhi	r0, r0, r0
d0032be4:	00888888 	addeq	r8, r8, r8, lsl #17
	...
d0032bf8:	ff570100 	undefined instruction 0xff570100
d0032bfc:	00fcffff 	ldrshteq	pc, [ip], #255	; 0xff
	...
d0032c10:	00571501 	subseq	r1, r7, r1, lsl #10
	...
d0032c44:	aaaaaa02 	bge	ceadd454 <_start-0x1542bbc>
d0032c48:	0000aaaa 	andeq	sl, r0, sl, lsr #21
	...
d0032c58:	2a000000 	bcs	d0032c60 <gImage_pic+0x10294>
d0032c5c:	0000aaaa 	andeq	sl, r0, sl, lsr #21
	...
d0032c78:	02000000 	andeq	r0, r0, #0
d0032c7c:	00000022 	andeq	r0, r0, r2, lsr #32
	...
d0032c90:	ffdfdd05 	undefined instruction 0xffdfdd05
d0032c94:	000000c0 	andeq	r0, r0, r0, asr #1
	...
d0032ca4:	05000000 	streq	r0, [r0]
d0032ca8:	0000005c 	andeq	r0, r0, ip, asr r0
	...
d0032cd8:	8a880800 	bhi	ce234ce0 <_start-0x1deb330>
d0032cdc:	88aaaaaa 	stmiahi	sl!, {r1, r3, r5, r7, r9, fp, sp, pc}
	...
d0032cf0:	a8aa0888 	stmiage	sl!, {r3, r7, fp}
d0032cf4:	00000000 	andeq	r0, r0, r0
d0032cf8:	08000000 	stmdaeq	r0, {}
	...
d0032d10:	00888808 	addeq	r8, r8, r8, lsl #16
	...
d0032d24:	11000000 	tstne	r0, r0
d0032d28:	00005057 	andeq	r5, r0, r7, asr r0
	...
d0032d3c:	00501100 	subseq	r1, r0, r0, lsl #2
	...
d0032d70:	aa2a2200 	bge	d0abb578 <bss_end+0xa85fa8>
d0032d74:	000000a8 	andeq	r0, r0, r8, lsr #1
	...
d0032d84:	22000000 	andcs	r0, r0, #0
d0032d88:	0000a0aa 	andeq	sl, r0, sl, lsr #1
	...
d0032dd0:	04000000 	streq	r0, [r0]
d0032dd4:	00000040 	andeq	r0, r0, r0, asr #32
	...
d0032df4:	80000000 	andhi	r0, r0, r0
	...
d0032e04:	88800000 	stmhi	r0, {}
d0032e08:	80888888 	addhi	r8, r8, r8, lsl #17
d0032e0c:	00000080 	andeq	r0, r0, r0, lsl #1
	...
d0032e1c:	80aa8880 	adchi	r8, sl, r0, lsl #17
d0032e20:	80000000 	andhi	r0, r0, r0
d0032e24:	80000000 	andhi	r0, r0, r0
	...
d0032e30:	80000000 	andhi	r0, r0, r0
d0032e34:	80000000 	andhi	r0, r0, r0
d0032e38:	00000000 	andeq	r0, r0, r0
d0032e3c:	00808000 	addeq	r8, r0, r0
	...
d0032e9c:	00020000 	andeq	r0, r2, r0
	...
d0032eb0:	02000000 	andeq	r0, r0, #0
d0032eb4:	00000002 	andeq	r0, r0, r2
	...
d0032f34:	00088808 	andeq	r8, r8, r8, lsl #16
	...
d0032f48:	00888808 	addeq	r8, r8, r8, lsl #16
	...
d003305c:	00800000 	addeq	r0, r0, r0
d0033060:	00808080 	addeq	r8, r0, r0, lsl #1
d0033064:	00000080 	andeq	r0, r0, r0, lsl #1
d0033068:	00000000 	andeq	r0, r0, r0
d003306c:	00800080 	addeq	r0, r0, r0, lsl #1
d0033070:	00000080 	andeq	r0, r0, r0, lsl #1
d0033074:	80808080 	addhi	r8, r0, r0, lsl #1
	...
d0033080:	00000080 	andeq	r0, r0, r0, lsl #1
d0033084:	00000000 	andeq	r0, r0, r0
d0033088:	00800000 	addeq	r0, r0, r0
d003308c:	00000080 	andeq	r0, r0, r0, lsl #1
	...
d00332a4:	80008000 	andhi	r8, r0, r0
d00332a8:	00000000 	andeq	r0, r0, r0
d00332ac:	00008000 	andeq	r8, r0, r0
d00332b0:	00000000 	andeq	r0, r0, r0
d00332b4:	80008000 	andhi	r8, r0, r0
d00332b8:	80000000 	andhi	r0, r0, r0
d00332bc:	00000000 	andeq	r0, r0, r0
d00332c0:	80000000 	andhi	r0, r0, r0
	...
d00332cc:	80000000 	andhi	r0, r0, r0
d00332d0:	00000000 	andeq	r0, r0, r0
d00332d4:	80008000 	andhi	r8, r0, r0
d00332d8:	00008000 	andeq	r8, r0, r0
	...
d0033500:	00800080 	addeq	r0, r0, r0, lsl #1
d0033504:	00000080 	andeq	r0, r0, r0, lsl #1
d0033508:	00000000 	andeq	r0, r0, r0
d003350c:	00800000 	addeq	r0, r0, r0
	...
d0033518:	00800000 	addeq	r0, r0, r0
	...
d0033528:	00800000 	addeq	r0, r0, r0
d003352c:	00800000 	addeq	r0, r0, r0
	...
d0033538:	00000080 	andeq	r0, r0, r0, lsl #1
	...
d0033760:	80000000 	andhi	r0, r0, r0
d0033764:	00000000 	andeq	r0, r0, r0
d0033768:	80000000 	andhi	r0, r0, r0
	...
d0033774:	80008000 	andhi	r8, r0, r0
	...
d0033784:	80000000 	andhi	r0, r0, r0
d0033788:	00008000 	andeq	r8, r0, r0
d003378c:	80000000 	andhi	r0, r0, r0
d0033790:	00000000 	andeq	r0, r0, r0
d0033794:	80000000 	andhi	r0, r0, r0
d0033798:	00008000 	andeq	r8, r0, r0
d003379c:	00008000 	andeq	r8, r0, r0
	...
d00339ac:	00800000 	addeq	r0, r0, r0
	...
d00339b8:	00000080 	andeq	r0, r0, r0, lsl #1
	...
d00339c8:	00000080 	andeq	r0, r0, r0, lsl #1
	...
d00339d4:	00800000 	addeq	r0, r0, r0
d00339d8:	00000080 	andeq	r0, r0, r0, lsl #1
d00339dc:	00000080 	andeq	r0, r0, r0, lsl #1
	...

Disassembly of section .data:

d00355cc <pfb>:
d00355cc:	23000000 	movwcs	r0, #0

Disassembly of section .comment:

00000000 <.comment>:
   0:	43434700 	movtmi	r4, #14080	; 0x3700
   4:	5328203a 	teqpl	r8, #58	; 0x3a
   8:	6372756f 	cmnvs	r2, #465567744	; 0x1bc00000
   c:	20797265 	rsbscs	r7, r9, r5, ror #4
  10:	202b2b47 	eorcs	r2, fp, r7, asr #22
  14:	6574694c 	ldrbvs	r6, [r4, #-2380]!	; 0x94c
  18:	30303220 	eorscc	r3, r0, r0, lsr #4
  1c:	2d337139 	ldfcss	f7, [r3, #-228]!	; 0xffffff1c
  20:	20293736 	eorcs	r3, r9, r6, lsr r7
  24:	2e342e34 	mrccs	14, 1, r2, cr4, cr4, {1}
  28:	47000031 	smladxmi	r0, r1, r0, r0
  2c:	203a4343 	eorscs	r4, sl, r3, asr #6
  30:	756f5328 	strbvc	r5, [pc, #-808]!	; fffffd10 <bss_end+0x2ffca740>
  34:	72656372 	rsbvc	r6, r5, #-939524095	; 0xc8000001
  38:	2b472079 	blcs	11c8224 <_start-0xcee57dec>
  3c:	694c202b 	stmdbvs	ip, {r0, r1, r3, r5, sp}^
  40:	32206574 	eorcc	r6, r0, #486539264	; 0x1d000000
  44:	71393030 	teqvc	r9, r0, lsr r0
  48:	37362d33 	undefined instruction 0x37362d33
  4c:	2e342029 	cdpcs	0, 3, cr2, cr4, cr9, {1}
  50:	00312e34 	eorseq	r2, r1, r4, lsr lr
  54:	43434700 	movtmi	r4, #14080	; 0x3700
  58:	5328203a 	teqpl	r8, #58	; 0x3a
  5c:	6372756f 	cmnvs	r2, #465567744	; 0x1bc00000
  60:	20797265 	rsbscs	r7, r9, r5, ror #4
  64:	202b2b47 	eorcs	r2, fp, r7, asr #22
  68:	6574694c 	ldrbvs	r6, [r4, #-2380]!	; 0x94c
  6c:	30303220 	eorscc	r3, r0, r0, lsr #4
  70:	2d337139 	ldfcss	f7, [r3, #-228]!	; 0xffffff1c
  74:	20293736 	eorcs	r3, r9, r6, lsr r7
  78:	2e342e34 	mrccs	14, 1, r2, cr4, cr4, {1}
  7c:	Address 0x0000007c is out of bounds.


Disassembly of section .ARM.attributes:

00000000 <.ARM.attributes>:
   0:	00002641 	andeq	r2, r0, r1, asr #12
   4:	61656100 	cmnvs	r5, r0, lsl #2
   8:	01006962 	tsteq	r0, r2, ror #18
   c:	0000001c 	andeq	r0, r0, ip, lsl r0
  10:	45543505 	ldrbmi	r3, [r4, #-1285]	; 0x505
  14:	08040600 	stmdaeq	r4, {r9, sl}
  18:	12010901 	andne	r0, r1, #16384	; 0x4000
  1c:	15011404 	strne	r1, [r1, #-1028]	; 0x404
  20:	18031701 	stmdane	r3, {r0, r8, r9, sl, ip}
  24:	Address 0x00000024 is out of bounds.

